
========================================================================

** ELF Header Information

    File Name: bin\mspi_quad_example.axf

    Machine class: ELFCLASS32 (32-bit)
    Data encoding: ELFDATA2LSB (Little endian)
    Header version: EV_CURRENT (Current version)
    Operating System ABI: none
    ABI Version: 0
    File Type: ET_EXEC (Executable) (2)
    Machine: EM_ARM (ARM)

    Image Entry point: 0x00000239
    Flags: EF_ARM_HASENTRY + EF_ARM_ABI_FLOAT_HARD (0x05000402)

    ARM ELF revision: 5 (ABI version 2)

    Conforms to Hard float procedure-call standard

    Built with
    Component: ARM Compiler 5.06 update 6 (build 750) Tool: armasm [4d35ec]
    Component: ARM Compiler 5.06 update 6 (build 750) Tool: armlink [4d35ed]

    Header size: 52 bytes (0x34)
    Program header entry size: 32 bytes (0x20)
    Section header entry size: 40 bytes (0x28)

    Program header entries: 1
    Section header entries: 17

    Program header offset: 1958600 (0x001de2c8)
    Section header offset: 1958632 (0x001de2e8)

    Section header string table index: 16

========================================================================

** Program header #0 (PT_LOAD) [PF_X + PF_W + PF_R + PF_ARM_ENTRY]
    Size : 58156 bytes (24680 bytes in file)
    Virtual address: 0x00000000 (Alignment 8)


========================================================================

** Section #1 'MCU_MRAM' (SHT_PROGBITS) [SHF_ALLOC + SHF_EXECINSTR]
    Size   : 24452 bytes (alignment 4)
    Address: 0x00000000

    $d
    RESET
    __Vectors
        0x00000000:    10008368    h...    DCD    268469096
        0x00000004:    00000201    ....    DCD    513
        0x00000008:    0000021f    ....    DCD    543
        0x0000000c:    00000379    y...    DCD    889
        0x00000010:    00000221    !...    DCD    545
        0x00000014:    00000223    #...    DCD    547
        0x00000018:    00000225    %...    DCD    549
        0x0000001c:    00000227    '...    DCD    551
        0x00000020:    00000000    ....    DCD    0
        0x00000024:    00000000    ....    DCD    0
        0x00000028:    00000000    ....    DCD    0
        0x0000002c:    00000229    )...    DCD    553
        0x00000030:    0000022b    +...    DCD    555
        0x00000034:    00000000    ....    DCD    0
        0x00000038:    0000022d    -...    DCD    557
        0x0000003c:    0000022f    /...    DCD    559
        0x00000040:    00000231    1...    DCD    561
        0x00000044:    00000231    1...    DCD    561
        0x00000048:    00000231    1...    DCD    561
        0x0000004c:    00000231    1...    DCD    561
        0x00000050:    00000231    1...    DCD    561
        0x00000054:    00000231    1...    DCD    561
        0x00000058:    00000231    1...    DCD    561
        0x0000005c:    00000231    1...    DCD    561
        0x00000060:    00000231    1...    DCD    561
        0x00000064:    00000231    1...    DCD    561
        0x00000068:    00000231    1...    DCD    561
        0x0000006c:    00000231    1...    DCD    561
        0x00000070:    00000231    1...    DCD    561
        0x00000074:    00000231    1...    DCD    561
        0x00000078:    00000231    1...    DCD    561
        0x0000007c:    00000231    1...    DCD    561
        0x00000080:    00000231    1...    DCD    561
        0x00000084:    00000231    1...    DCD    561
        0x00000088:    00000231    1...    DCD    561
        0x0000008c:    00000231    1...    DCD    561
        0x00000090:    00000231    1...    DCD    561
        0x00000094:    00000231    1...    DCD    561
        0x00000098:    000038f1    .8..    DCD    14577
        0x0000009c:    00000231    1...    DCD    561
        0x000000a0:    00000231    1...    DCD    561
        0x000000a4:    00000231    1...    DCD    561
        0x000000a8:    00000231    1...    DCD    561
        0x000000ac:    00000231    1...    DCD    561
        0x000000b0:    00000231    1...    DCD    561
        0x000000b4:    00000231    1...    DCD    561
        0x000000b8:    00000231    1...    DCD    561
        0x000000bc:    00000231    1...    DCD    561
        0x000000c0:    00000231    1...    DCD    561
        0x000000c4:    00000231    1...    DCD    561
        0x000000c8:    00000231    1...    DCD    561
        0x000000cc:    00000231    1...    DCD    561
        0x000000d0:    00000231    1...    DCD    561
        0x000000d4:    00000231    1...    DCD    561
        0x000000d8:    00000231    1...    DCD    561
        0x000000dc:    00000231    1...    DCD    561
        0x000000e0:    00000231    1...    DCD    561
        0x000000e4:    00000231    1...    DCD    561
        0x000000e8:    00000231    1...    DCD    561
        0x000000ec:    00000231    1...    DCD    561
        0x000000f0:    00000231    1...    DCD    561
        0x000000f4:    00000231    1...    DCD    561
        0x000000f8:    00000231    1...    DCD    561
        0x000000fc:    00000231    1...    DCD    561
        0x00000100:    00000231    1...    DCD    561
        0x00000104:    00000231    1...    DCD    561
        0x00000108:    00000231    1...    DCD    561
        0x0000010c:    00000231    1...    DCD    561
        0x00000110:    00000231    1...    DCD    561
        0x00000114:    00000231    1...    DCD    561
        0x00000118:    00000231    1...    DCD    561
        0x0000011c:    00000231    1...    DCD    561
        0x00000120:    00000231    1...    DCD    561
        0x00000124:    00000231    1...    DCD    561
        0x00000128:    00000231    1...    DCD    561
        0x0000012c:    00000231    1...    DCD    561
        0x00000130:    00000231    1...    DCD    561
        0x00000134:    00000231    1...    DCD    561
        0x00000138:    00000231    1...    DCD    561
        0x0000013c:    00000231    1...    DCD    561
        0x00000140:    00000231    1...    DCD    561
        0x00000144:    00000231    1...    DCD    561
        0x00000148:    00000231    1...    DCD    561
        0x0000014c:    00000231    1...    DCD    561
        0x00000150:    00000231    1...    DCD    561
        0x00000154:    00000231    1...    DCD    561
        0x00000158:    00000231    1...    DCD    561
        0x0000015c:    00000231    1...    DCD    561
        0x00000160:    00000231    1...    DCD    561
        0x00000164:    00000231    1...    DCD    561
        0x00000168:    00000231    1...    DCD    561
        0x0000016c:    00000231    1...    DCD    561
        0x00000170:    00000231    1...    DCD    561
        0x00000174:    00000231    1...    DCD    561
        0x00000178:    00000231    1...    DCD    561
        0x0000017c:    00000231    1...    DCD    561
        0x00000180:    00000231    1...    DCD    561
        0x00000184:    00000231    1...    DCD    561
        0x00000188:    00000231    1...    DCD    561
        0x0000018c:    00000231    1...    DCD    561
    __Patchable
        0x00000190:    00000000    ....    DCD    0
        0x00000194:    00000000    ....    DCD    0
        0x00000198:    00000000    ....    DCD    0
        0x0000019c:    00000000    ....    DCD    0
        0x000001a0:    00000000    ....    DCD    0
        0x000001a4:    00000000    ....    DCD    0
        0x000001a8:    00000000    ....    DCD    0
        0x000001ac:    00000000    ....    DCD    0
        0x000001b0:    00000000    ....    DCD    0
        0x000001b4:    00000000    ....    DCD    0
        0x000001b8:    00000000    ....    DCD    0
        0x000001bc:    00000000    ....    DCD    0
        0x000001c0:    00000000    ....    DCD    0
        0x000001c4:    00000000    ....    DCD    0
        0x000001c8:    00000000    ....    DCD    0
        0x000001cc:    00000000    ....    DCD    0
        0x000001d0:    00000000    ....    DCD    0
        0x000001d4:    00000000    ....    DCD    0
        0x000001d8:    00000000    ....    DCD    0
        0x000001dc:    00000000    ....    DCD    0
        0x000001e0:    00000000    ....    DCD    0
        0x000001e4:    00000000    ....    DCD    0
        0x000001e8:    00000000    ....    DCD    0
        0x000001ec:    00000000    ....    DCD    0
        0x000001f0:    00000000    ....    DCD    0
        0x000001f4:    00000000    ....    DCD    0
        0x000001f8:    00000000    ....    DCD    0
        0x000001fc:    00000000    ....    DCD    0
    $t
    $v0
    Reset_Handler
        0x00000200:    f64e5088    N..P    MOV      r0,#0xed88
        0x00000204:    f2ce0000    ....    MOVT     r0,#0xe000
        0x00000208:    6801        .h      LDR      r1,[r0,#0]
        0x0000020a:    f4410170    A.p.    ORR      r1,r1,#0xf00000
        0x0000020e:    6001        .`      STR      r1,[r0,#0]
        0x00000210:    f3bf8f4f    ..O.    DSB      
        0x00000214:    f3bf8f6f    ..o.    ISB      
        0x00000218:    4806        .H      LDR      r0,[pc,#24] ; [0x234] = 0x239
        0x0000021a:    4700        .G      BX       r0
        0x0000021c:    e7fe        ..      B        0x21c ; Reset_Handler + 28
    NMI_Handler
        0x0000021e:    e7fe        ..      B        NMI_Handler ; 0x21e
    MemManage_Handler
        0x00000220:    e7fe        ..      B        MemManage_Handler ; 0x220
    BusFault_Handler
        0x00000222:    e7fe        ..      B        BusFault_Handler ; 0x222
    UsageFault_Handler
        0x00000224:    e7fe        ..      B        UsageFault_Handler ; 0x224
    SecureFault_Handler
        0x00000226:    e7fe        ..      B        SecureFault_Handler ; 0x226
    SVC_Handler
        0x00000228:    e7fe        ..      B        SVC_Handler ; 0x228
    DebugMon_Handler
        0x0000022a:    e7fe        ..      B        DebugMon_Handler ; 0x22a
    PendSV_Handler
        0x0000022c:    e7fe        ..      B        PendSV_Handler ; 0x22c
    SysTick_Handler
        0x0000022e:    e7fe        ..      B        SysTick_Handler ; 0x22e
    am_cryptosec_isr
    am_default_isr
    am_adc_isr
    am_audadc0_isr
    am_brownout_isr
    am_cachecpu_isr
    am_clkgen_isr
    am_cpucpumb_isr
    am_ctimer_isr
    am_disp_isr
    am_dsi_isr
    am_dsp0cpumb_isr
    am_dsp0idamtrigout_isr
    am_dsp1cpumb_isr
    am_dsp1idamtrigout_isr
    am_dspi2s0_isr
    am_dspi2s1_isr
    am_dspi2s2_isr
    am_dspi2s3_isr
    am_gpio0_001f_isr
    am_gpio0_203f_isr
    am_gpio0_405f_isr
    am_gpio0_607f_isr
    am_gpio1_001f_isr
    am_gpio1_203f_isr
    am_gpio1_405f_isr
    am_gpio1_607f_isr
    am_gpu_isr
    am_iomaster0_isr
    am_iomaster1_isr
    am_iomaster2_isr
    am_iomaster3_isr
    am_iomaster4_isr
    am_iomaster5_isr
    am_iomaster6_isr
    am_iomaster7_isr
    am_ioslave_acc_isr
    am_ioslave_ios_isr
    am_memcpy0_isr
    am_mspi0_isr
    am_mspi1_isr
    am_pdm0_isr
    am_pdm1_isr
    am_pdm2_isr
    am_pdm3_isr
    am_rtc_isr
    am_sdio_isr
    am_stimer_cmpr0_isr
    am_stimer_cmpr1_isr
    am_stimer_cmpr2_isr
    am_stimer_cmpr3_isr
    am_stimer_cmpr4_isr
    am_stimer_cmpr5_isr
    am_stimer_cmpr6_isr
    am_stimer_cmpr7_isr
    am_stimerof_isr
    am_timer00_isr
    am_timer01_isr
    am_timer02_isr
    am_timer03_isr
    am_timer04_isr
    am_timer05_isr
    am_timer06_isr
    am_timer07_isr
    am_timer08_isr
    am_timer09_isr
    am_timer10_isr
    am_timer11_isr
    am_timer12_isr
    am_timer13_isr
    am_timer14_isr
    am_timer15_isr
    am_uart1_isr
    am_uart2_isr
    am_uart3_isr
    am_uart_isr
    am_usb_isr
    am_vcomp_isr
    am_watchdog_isr
        0x00000230:    e7fe        ..      B        am_cryptosec_isr ; 0x230
    $d
        0x00000232:    0000        ..      DCW    0
        0x00000234:    00000239    9...    DCD    569
    $t
    !!!main
    __main
        0x00000238:    f000f802    ....    BL       __scatterload ; 0x240
        0x0000023c:    f000f86a    ..j.    BL       __rt_entry ; 0x314
    !!!scatter
    __scatterload
    __scatterload_rt2
    __scatterload_rt2_thumb_only
        0x00000240:    a00a        ..      ADR      r0,{pc}+0x2c ; 0x26c
        0x00000242:    e8900c00    ....    LDM      r0,{r10,r11}
        0x00000246:    4482        .D      ADD      r10,r10,r0
        0x00000248:    4483        .D      ADD      r11,r11,r0
        0x0000024a:    f1aa0701    ....    SUB      r7,r10,#1
    __scatterload_null
        0x0000024e:    45da        .E      CMP      r10,r11
        0x00000250:    d101        ..      BNE      0x256 ; __scatterload_null + 8
        0x00000252:    f000f85f    .._.    BL       __rt_entry ; 0x314
        0x00000256:    f2af0e09    ....    ADR      lr,{pc}-7 ; 0x24f
        0x0000025a:    e8ba000f    ....    LDM      r10!,{r0-r3}
        0x0000025e:    f0130f01    ....    TST      r3,#1
        0x00000262:    bf18        ..      IT       NE
        0x00000264:    1afb        ..      SUBNE    r3,r7,r3
        0x00000266:    f0430301    C...    ORR      r3,r3,#1
        0x0000026a:    4718        .G      BX       r3
    $d
        0x0000026c:    00005ce8    .\..    DCD    23784
        0x00000270:    00005d18    .]..    DCD    23832
    $t
    !!dczerorl2
    __decompress
    __decompress1
        0x00000274:    440a        .D      ADD      r2,r2,r1
        0x00000276:    f04f0c00    O...    MOV      r12,#0
        0x0000027a:    f8103b01    ...;    LDRB     r3,[r0],#1
        0x0000027e:    f0130407    ....    ANDS     r4,r3,#7
        0x00000282:    bf08        ..      IT       EQ
        0x00000284:    f8104b01    ...K    LDRBEQ   r4,[r0],#1
        0x00000288:    111d        ..      ASRS     r5,r3,#4
        0x0000028a:    bf08        ..      IT       EQ
        0x0000028c:    f8105b01    ...[    LDRBEQ   r5,[r0],#1
        0x00000290:    1e64        d.      SUBS     r4,r4,#1
        0x00000292:    d005        ..      BEQ      0x2a0 ; __decompress + 44
        0x00000294:    f8106b01    ...k    LDRB     r6,[r0],#1
        0x00000298:    1e64        d.      SUBS     r4,r4,#1
        0x0000029a:    f8016b01    ...k    STRB     r6,[r1],#1
        0x0000029e:    d1f9        ..      BNE      0x294 ; __decompress + 32
        0x000002a0:    f0130f08    ....    TST      r3,#8
        0x000002a4:    bf1e        ..      ITTT     NE
        0x000002a6:    f8104b01    ...K    LDRBNE   r4,[r0],#1
        0x000002aa:    1cad        ..      ADDNE    r5,r5,#2
        0x000002ac:    1b0c        ..      SUBNE    r4,r1,r4
        0x000002ae:    d109        ..      BNE      0x2c4 ; __decompress + 80
        0x000002b0:    1e6d        m.      SUBS     r5,r5,#1
        0x000002b2:    bf58        X.      IT       PL
        0x000002b4:    f801cb01    ....    STRBPL   r12,[r1],#1
        0x000002b8:    d5fa        ..      BPL      0x2b0 ; __decompress + 60
        0x000002ba:    e005        ..      B        0x2c8 ; __decompress + 84
        0x000002bc:    f8146b01    ...k    LDRB     r6,[r4],#1
        0x000002c0:    f8016b01    ...k    STRB     r6,[r1],#1
        0x000002c4:    1e6d        m.      SUBS     r5,r5,#1
        0x000002c6:    d5f9        ..      BPL      0x2bc ; __decompress + 72
        0x000002c8:    4291        .B      CMP      r1,r2
        0x000002ca:    d3d6        ..      BCC      0x27a ; __decompress + 6
        0x000002cc:    4770        pG      BX       lr
        0x000002ce:    0000        ..      MOVS     r0,r0
    !!handler_copy
    __scatterload_copy
        0x000002d0:    3a10        .:      SUBS     r2,r2,#0x10
        0x000002d2:    bf24        $.      ITT      CS
        0x000002d4:    c878        x.      LDMCS    r0!,{r3-r6}
        0x000002d6:    c178        x.      STMCS    r1!,{r3-r6}
        0x000002d8:    d8fa        ..      BHI      __scatterload_copy ; 0x2d0
        0x000002da:    0752        R.      LSLS     r2,r2,#29
        0x000002dc:    bf24        $.      ITT      CS
        0x000002de:    c830        0.      LDMCS    r0!,{r4,r5}
        0x000002e0:    c130        0.      STMCS    r1!,{r4,r5}
        0x000002e2:    bf44        D.      ITT      MI
        0x000002e4:    6804        .h      LDRMI    r4,[r0,#0]
        0x000002e6:    600c        .`      STRMI    r4,[r1,#0]
        0x000002e8:    4770        pG      BX       lr
        0x000002ea:    0000        ..      MOVS     r0,r0
    !!handler_zi
    __scatterload_zeroinit
        0x000002ec:    2300        .#      MOVS     r3,#0
        0x000002ee:    2400        .$      MOVS     r4,#0
        0x000002f0:    2500        .%      MOVS     r5,#0
        0x000002f2:    2600        .&      MOVS     r6,#0
        0x000002f4:    3a10        .:      SUBS     r2,r2,#0x10
        0x000002f6:    bf28        (.      IT       CS
        0x000002f8:    c178        x.      STMCS    r1!,{r3-r6}
        0x000002fa:    d8fb        ..      BHI      0x2f4 ; __scatterload_zeroinit + 8
        0x000002fc:    0752        R.      LSLS     r2,r2,#29
        0x000002fe:    bf28        (.      IT       CS
        0x00000300:    c130        0.      STMCS    r1!,{r4,r5}
        0x00000302:    bf48        H.      IT       MI
        0x00000304:    600b        .`      STRMI    r3,[r1,#0]
        0x00000306:    4770        pG      BX       lr
    .ARM.Collect$$libinit$$00000000
    __rt_lib_init
        0x00000308:    b51f        ..      PUSH     {r0-r4,lr}
    .ARM.Collect$$libinit$$00000001
    __rt_lib_init_fp_1
        0x0000030a:    f005fba0    ....    BL       _fp_init ; 0x5a4e
    .ARM.Collect$$libinit$$00000004
    .ARM.Collect$$libinit$$0000000A
    .ARM.Collect$$libinit$$0000000C
    .ARM.Collect$$libinit$$0000000E
    .ARM.Collect$$libinit$$00000011
    .ARM.Collect$$libinit$$00000013
    .ARM.Collect$$libinit$$00000015
    .ARM.Collect$$libinit$$00000017
    .ARM.Collect$$libinit$$00000019
    .ARM.Collect$$libinit$$0000001B
    .ARM.Collect$$libinit$$0000001D
    .ARM.Collect$$libinit$$0000001F
    .ARM.Collect$$libinit$$00000021
    .ARM.Collect$$libinit$$00000023
    .ARM.Collect$$libinit$$00000025
    .ARM.Collect$$libinit$$0000002C
    .ARM.Collect$$libinit$$0000002E
    .ARM.Collect$$libinit$$00000030
    .ARM.Collect$$libinit$$00000032
    .ARM.Collect$$libinit$$00000033
    __rt_lib_init_alloca_1
    __rt_lib_init_argv_1
    __rt_lib_init_atexit_1
    __rt_lib_init_clock_1
    __rt_lib_init_cpp_1
    __rt_lib_init_exceptions_1
    __rt_lib_init_fp_trap_1
    __rt_lib_init_getenv_1
    __rt_lib_init_heap_1
    __rt_lib_init_lc_collate_1
    __rt_lib_init_lc_ctype_1
    __rt_lib_init_lc_monetary_1
    __rt_lib_init_lc_numeric_1
    __rt_lib_init_lc_time_1
    __rt_lib_init_preinit_1
    __rt_lib_init_rand_1
    __rt_lib_init_return
    __rt_lib_init_signal_1
    __rt_lib_init_stdio_1
    __rt_lib_init_user_alloc_1
        0x0000030e:    bd1f        ..      POP      {r0-r4,pc}
    .ARM.Collect$$libshutdown$$00000000
    __rt_lib_shutdown
        0x00000310:    b510        ..      PUSH     {r4,lr}
    .ARM.Collect$$libshutdown$$00000002
    .ARM.Collect$$libshutdown$$00000004
    .ARM.Collect$$libshutdown$$00000007
    .ARM.Collect$$libshutdown$$0000000A
    .ARM.Collect$$libshutdown$$0000000C
    .ARM.Collect$$libshutdown$$0000000F
    .ARM.Collect$$libshutdown$$00000010
    __rt_lib_shutdown_cpp_1
    __rt_lib_shutdown_fp_trap_1
    __rt_lib_shutdown_heap_1
    __rt_lib_shutdown_return
    __rt_lib_shutdown_signal_1
    __rt_lib_shutdown_stdio_1
    __rt_lib_shutdown_user_alloc_1
        0x00000312:    bd10        ..      POP      {r4,pc}
    .ARM.Collect$$rtentry$$00000000
    .ARM.Collect$$rtentry$$00000002
    .ARM.Collect$$rtentry$$00000004
    __rt_entry
    __rt_entry_presh_1
    __rt_entry_sh
        0x00000314:    f000f8fb    ....    BL       __user_setup_stackheap ; 0x50e
        0x00000318:    4611        .F      MOV      r1,r2
    .ARM.Collect$$rtentry$$00000009
    .ARM.Collect$$rtentry$$0000000A
    __rt_entry_li
    __rt_entry_postsh_1
        0x0000031a:    f7fffff5    ....    BL       __rt_lib_init ; 0x308
    .ARM.Collect$$rtentry$$0000000C
    .ARM.Collect$$rtentry$$0000000D
    __rt_entry_main
    __rt_entry_postli_1
        0x0000031e:    f004f9ad    ....    BL       main ; 0x467c
        0x00000322:    f000f919    ....    BL       exit ; 0x558
    .ARM.Collect$$rtexit$$00000000
    __rt_exit
        0x00000326:    b403        ..      PUSH     {r0,r1}
    .ARM.Collect$$rtexit$$00000002
    .ARM.Collect$$rtexit$$00000003
    __rt_exit_ls
    __rt_exit_prels_1
        0x00000328:    f7fffff2    ....    BL       __rt_lib_shutdown ; 0x310
    .ARM.Collect$$rtexit$$00000004
    __rt_exit_exit
        0x0000032c:    bc03        ..      POP      {r0,r1}
        0x0000032e:    f000f921    ..!.    BL       _sys_exit ; 0x574
        0x00000332:    0000        ..      MOVS     r0,r0
    .emb_text
    $v0
    __asm___19_mspi_quad_example_c_ba1d92ee__xip_test_function
        0x00000334:    bf00        ..      NOP      
        0x00000336:    bf00        ..      NOP      
        0x00000338:    bf00        ..      NOP      
        0x0000033a:    bf00        ..      NOP      
        0x0000033c:    bf00        ..      NOP      
        0x0000033e:    bf00        ..      NOP      
        0x00000340:    bf00        ..      NOP      
        0x00000342:    bf00        ..      NOP      
        0x00000344:    bf00        ..      NOP      
        0x00000346:    bf00        ..      NOP      
        0x00000348:    bf00        ..      NOP      
        0x0000034a:    bf00        ..      NOP      
        0x0000034c:    bf00        ..      NOP      
        0x0000034e:    bf00        ..      NOP      
        0x00000350:    bf00        ..      NOP      
        0x00000352:    bf00        ..      NOP      
        0x00000354:    bf00        ..      NOP      
        0x00000356:    bf00        ..      NOP      
        0x00000358:    bf00        ..      NOP      
        0x0000035a:    bf00        ..      NOP      
        0x0000035c:    bf00        ..      NOP      
        0x0000035e:    bf00        ..      NOP      
        0x00000360:    bf00        ..      NOP      
        0x00000362:    bf00        ..      NOP      
        0x00000364:    bf00        ..      NOP      
        0x00000366:    bf00        ..      NOP      
        0x00000368:    bf00        ..      NOP      
        0x0000036a:    bf00        ..      NOP      
        0x0000036c:    bf00        ..      NOP      
        0x0000036e:    bf00        ..      NOP      
        0x00000370:    bf00        ..      NOP      
        0x00000372:    bf00        ..      NOP      
        0x00000374:    4770        pG      BX       lr
        0x00000376:    0000        ..      MOVS     r0,r0
    .emb_text
    $v0
    HardFault_Handler
        0x00000378:    b501        ..      PUSH     {r0,lr}
        0x0000037a:    f01e0f04    ....    TST      lr,#4
        0x0000037e:    bf0a        ..      ITET     EQ
        0x00000380:    f3ef8008    ....    MRSEQ    r0,MSP
        0x00000384:    f3ef8009    ....    MRSNE    r0,PSP
        0x00000388:    f1100008    ....    ADDSEQ   r0,r0,#8
        0x0000038c:    f003fad4    ....    BL       am_util_faultisr_collect_data ; 0x3938
        0x00000390:    bd01        ..      POP      {r0,pc}
    getStackedReg
        0x00000392:    0080        ..      LSLS     r0,r0,#2
        0x00000394:    1840        @.      ADDS     r0,r0,r1
        0x00000396:    6800        .h      LDR      r0,[r0,#0]
        0x00000398:    4770        pG      BX       lr
        0x0000039a:    0000        ..      MOVS     r0,r0
    .emb_text
    $v0
    am_hal_interrupt_master_enable
        0x0000039c:    f3ef8010    ....    MRS      r0,PRIMASK
        0x000003a0:    b662        b.      CPSIE    i
        0x000003a2:    4770        pG      BX       lr
    am_hal_interrupt_master_disable
        0x000003a4:    f3ef8010    ....    MRS      r0,PRIMASK
        0x000003a8:    b672        r.      CPSID    i
        0x000003aa:    4770        pG      BX       lr
    am_hal_interrupt_master_set
        0x000003ac:    f3808810    ....    MSR      PRIMASK,r0
        0x000003b0:    4770        pG      BX       lr
        0x000003b2:    0000        ..      MOVS     r0,r0
    .text
    $v0
    __user_initial_stackheap
        0x000003b4:    4802        .H      LDR      r0,[pc,#8] ; [0x3c0] = 0x10007368
        0x000003b6:    4903        .I      LDR      r1,[pc,#12] ; [0x3c4] = 0x10008368
        0x000003b8:    4a01        .J      LDR      r2,[pc,#4] ; [0x3c0] = 0x10007368
        0x000003ba:    4b03        .K      LDR      r3,[pc,#12] ; [0x3c8] = 0x10007368
        0x000003bc:    4770        pG      BX       lr
    $d
        0x000003be:    0000        ..      DCW    0
        0x000003c0:    10007368    hs..    DCD    268465000
        0x000003c4:    10008368    h...    DCD    268469096
        0x000003c8:    10007368    hs..    DCD    268465000
    $t
    .text
    __aeabi_memcpy
    __rt_memcpy
        0x000003cc:    2a03        .*      CMP      r2,#3
        0x000003ce:    f2408030    @.0.    BLS.W    _memcpy_lastbytes ; 0x432
        0x000003d2:    f0100c03    ....    ANDS     r12,r0,#3
        0x000003d6:    f0008015    ....    BEQ.W    0x404 ; __aeabi_memcpy + 56
        0x000003da:    f8113b01    ...;    LDRB     r3,[r1],#1
        0x000003de:    f1bc0f02    ....    CMP      r12,#2
        0x000003e2:    4462        bD      ADD      r2,r2,r12
        0x000003e4:    bf98        ..      IT       LS
        0x000003e6:    f811cb01    ....    LDRBLS   r12,[r1],#1
        0x000003ea:    f8003b01    ...;    STRB     r3,[r0],#1
        0x000003ee:    bf38        8.      IT       CC
        0x000003f0:    f8113b01    ...;    LDRBCC   r3,[r1],#1
        0x000003f4:    f1a20204    ....    SUB      r2,r2,#4
        0x000003f8:    bf98        ..      IT       LS
        0x000003fa:    f800cb01    ....    STRBLS   r12,[r0],#1
        0x000003fe:    bf38        8.      IT       CC
        0x00000400:    f8003b01    ...;    STRBCC   r3,[r0],#1
        0x00000404:    f0110303    ....    ANDS     r3,r1,#3
        0x00000408:    f000804f    ..O.    BEQ.W    __aeabi_memcpy4 ; 0x4aa
        0x0000040c:    3a08        .:      SUBS     r2,r2,#8
        0x0000040e:    f0c08008    ....    BCC.W    0x422 ; __aeabi_memcpy + 86
        0x00000412:    f8513b04    Q..;    LDR      r3,[r1],#4
        0x00000416:    3a08        .:      SUBS     r2,r2,#8
        0x00000418:    f851cb04    Q...    LDR      r12,[r1],#4
        0x0000041c:    e8a01008    ....    STM      r0!,{r3,r12}
        0x00000420:    e7f5        ..      B        0x40e ; __aeabi_memcpy + 66
        0x00000422:    1d12        ..      ADDS     r2,r2,#4
        0x00000424:    bf5c        \.      ITT      PL
        0x00000426:    f8513b04    Q..;    LDRPL    r3,[r1],#4
        0x0000042a:    f8403b04    @..;    STRPL    r3,[r0],#4
        0x0000042e:    f3af8000    ....    NOP.W    
    _memcpy_lastbytes
        0x00000432:    07d2        ..      LSLS     r2,r2,#31
        0x00000434:    bf24        $.      ITT      CS
        0x00000436:    f8113b01    ...;    LDRBCS   r3,[r1],#1
        0x0000043a:    f811cb01    ....    LDRBCS   r12,[r1],#1
        0x0000043e:    bf48        H.      IT       MI
        0x00000440:    f8112b01    ...+    LDRBMI   r2,[r1],#1
        0x00000444:    bf24        $.      ITT      CS
        0x00000446:    f8003b01    ...;    STRBCS   r3,[r0],#1
        0x0000044a:    f800cb01    ....    STRBCS   r12,[r0],#1
        0x0000044e:    bf48        H.      IT       MI
        0x00000450:    f8002b01    ...+    STRBMI   r2,[r0],#1
        0x00000454:    4770        pG      BX       lr
    .text
    __aeabi_memclr4
    __aeabi_memclr8
    __rt_memclr_w
        0x00000456:    f04f0200    O...    MOV      r2,#0
    _memset_w
        0x0000045a:    b500        ..      PUSH     {lr}
        0x0000045c:    4613        .F      MOV      r3,r2
        0x0000045e:    4694        .F      MOV      r12,r2
        0x00000460:    4696        .F      MOV      lr,r2
        0x00000462:    3920         9      SUBS     r1,r1,#0x20
        0x00000464:    bf22        ".      ITTT     CS
        0x00000466:    e8a0500c    ...P    STMCS    r0!,{r2,r3,r12,lr}
        0x0000046a:    e8a0500c    ...P    STMCS    r0!,{r2,r3,r12,lr}
        0x0000046e:    f1b10120    .. .    SUBSCS   r1,r1,#0x20
        0x00000472:    f4bfaff7    ....    BCS.W    0x464 ; _memset_w + 10
        0x00000476:    0709        ..      LSLS     r1,r1,#28
        0x00000478:    bf28        (.      IT       CS
        0x0000047a:    e8a0500c    ...P    STMCS    r0!,{r2,r3,r12,lr}
        0x0000047e:    bf48        H.      IT       MI
        0x00000480:    c00c        ..      STMMI    r0!,{r2,r3}
        0x00000482:    f85deb04    ]...    POP      {lr}
        0x00000486:    0089        ..      LSLS     r1,r1,#2
        0x00000488:    bf28        (.      IT       CS
        0x0000048a:    f8402b04    @..+    STRCS    r2,[r0],#4
        0x0000048e:    bf08        ..      IT       EQ
        0x00000490:    4770        pG      BXEQ     lr
        0x00000492:    bf48        H.      IT       MI
        0x00000494:    f8202b02     ..+    STRHMI   r2,[r0],#2
        0x00000498:    f0114f80    ...O    TST      r1,#0x40000000
        0x0000049c:    bf18        ..      IT       NE
        0x0000049e:    f8002b01    ...+    STRBNE   r2,[r0],#1
        0x000004a2:    4770        pG      BX       lr
    .text
    __use_two_region_memory
        0x000004a4:    4770        pG      BX       lr
    __rt_heap_escrow$2region
        0x000004a6:    4770        pG      BX       lr
    __rt_heap_expand$2region
        0x000004a8:    4770        pG      BX       lr
    .text
    __aeabi_memcpy4
    __aeabi_memcpy8
    __rt_memcpy_w
        0x000004aa:    b510        ..      PUSH     {r4,lr}
        0x000004ac:    3a20         :      SUBS     r2,r2,#0x20
        0x000004ae:    f0c0800b    ....    BCC.W    0x4c8 ; __aeabi_memcpy4 + 30
        0x000004b2:    e8b15018    ...P    LDM      r1!,{r3,r4,r12,lr}
        0x000004b6:    3a20         :      SUBS     r2,r2,#0x20
        0x000004b8:    e8a05018    ...P    STM      r0!,{r3,r4,r12,lr}
        0x000004bc:    e8b15018    ...P    LDM      r1!,{r3,r4,r12,lr}
        0x000004c0:    e8a05018    ...P    STM      r0!,{r3,r4,r12,lr}
        0x000004c4:    f4bfaff5    ....    BCS.W    0x4b2 ; __aeabi_memcpy4 + 8
        0x000004c8:    ea5f7c02    _..|    LSLS     r12,r2,#28
        0x000004cc:    bf24        $.      ITT      CS
        0x000004ce:    e8b15018    ...P    LDMCS    r1!,{r3,r4,r12,lr}
        0x000004d2:    e8a05018    ...P    STMCS    r0!,{r3,r4,r12,lr}
        0x000004d6:    bf44        D.      ITT      MI
        0x000004d8:    c918        ..      LDMMI    r1!,{r3,r4}
        0x000004da:    c018        ..      STMMI    r0!,{r3,r4}
        0x000004dc:    e8bd4010    ...@    POP      {r4,lr}
        0x000004e0:    ea5f7c82    _..|    LSLS     r12,r2,#30
        0x000004e4:    bf24        $.      ITT      CS
        0x000004e6:    f8513b04    Q..;    LDRCS    r3,[r1],#4
        0x000004ea:    f8403b04    @..;    STRCS    r3,[r0],#4
        0x000004ee:    bf08        ..      IT       EQ
        0x000004f0:    4770        pG      BXEQ     lr
    _memcpy_lastbytes_aligned
        0x000004f2:    07d2        ..      LSLS     r2,r2,#31
        0x000004f4:    bf28        (.      IT       CS
        0x000004f6:    f8313b02    1..;    LDRHCS   r3,[r1],#2
        0x000004fa:    bf48        H.      IT       MI
        0x000004fc:    f8112b01    ...+    LDRBMI   r2,[r1],#1
        0x00000500:    bf28        (.      IT       CS
        0x00000502:    f8203b02     ..;    STRHCS   r3,[r0],#2
        0x00000506:    bf48        H.      IT       MI
        0x00000508:    f8002b01    ...+    STRBMI   r2,[r0],#1
        0x0000050c:    4770        pG      BX       lr
    .text
    __user_setup_stackheap
        0x0000050e:    4675        uF      MOV      r5,lr
        0x00000510:    f000f82c    ..,.    BL       __user_libspace ; 0x56c
        0x00000514:    46ae        .F      MOV      lr,r5
        0x00000516:    0005        ..      MOVS     r5,r0
        0x00000518:    4669        iF      MOV      r1,sp
        0x0000051a:    4653        SF      MOV      r3,r10
        0x0000051c:    f0200007     ...    BIC      r0,r0,#7
        0x00000520:    4685        .F      MOV      sp,r0
        0x00000522:    b018        ..      ADD      sp,sp,#0x60
        0x00000524:    b520         .      PUSH     {r5,lr}
        0x00000526:    f7ffff45    ..E.    BL       __user_initial_stackheap ; 0x3b4
        0x0000052a:    e8bd4020    .. @    POP      {r5,lr}
        0x0000052e:    f04f0600    O...    MOV      r6,#0
        0x00000532:    f04f0700    O...    MOV      r7,#0
        0x00000536:    f04f0800    O...    MOV      r8,#0
        0x0000053a:    f04f0b00    O...    MOV      r11,#0
        0x0000053e:    f0210107    !...    BIC      r1,r1,#7
        0x00000542:    46ac        .F      MOV      r12,r5
        0x00000544:    e8ac09c0    ....    STM      r12!,{r6-r8,r11}
        0x00000548:    e8ac09c0    ....    STM      r12!,{r6-r8,r11}
        0x0000054c:    e8ac09c0    ....    STM      r12!,{r6-r8,r11}
        0x00000550:    e8ac09c0    ....    STM      r12!,{r6-r8,r11}
        0x00000554:    468d        .F      MOV      sp,r1
        0x00000556:    4770        pG      BX       lr
    .text
    exit
        0x00000558:    b510        ..      PUSH     {r4,lr}
        0x0000055a:    4604        .F      MOV      r4,r0
        0x0000055c:    f3af8000    ....    NOP.W    
        0x00000560:    4620         F      MOV      r0,r4
        0x00000562:    e8bd4010    ...@    POP      {r4,lr}
        0x00000566:    f7ffbede    ....    B.W      __rt_exit ; 0x326
        0x0000056a:    0000        ..      MOVS     r0,r0
    .text
    __user_libspace
    __user_perproc_libspace
    __user_perthread_libspace
        0x0000056c:    4800        .H      LDR      r0,[pc,#0] ; [0x570] = 0x10007308
        0x0000056e:    4770        pG      BX       lr
    $d
        0x00000570:    10007308    .s..    DCD    268464904
    $t
    .text
    _sys_exit
        0x00000574:    4901        .I      LDR      r1,[pc,#4] ; [0x57c] = 0x20026
        0x00000576:    2018        .       MOVS     r0,#0x18
        0x00000578:    beab        ..      BKPT     #0xab
        0x0000057a:    e7fe        ..      B        0x57a ; _sys_exit + 6
    $d
        0x0000057c:    00020026    &...    DCD    131110
    $t
    .text
    __I$use$semihosting
    __use_no_semihosting_swi
        0x00000580:    4770        pG      BX       lr
    .text
    __semihosting_library_function
        0x00000582:    0000        ..      MOVS     r0,r0
    i.am_bsp_itm_printf_enable
    am_bsp_itm_printf_enable
        0x00000584:    4909        .I      LDR      r1,[pc,#36] ; [0x5ac] = 0x1000013c
        0x00000586:    b508        ..      PUSH     {r3,lr}
        0x00000588:    2001        .       MOVS     r0,#1
        0x0000058a:    7008        .p      STRB     r0,[r1,#0]
        0x0000058c:    f001fafc    ....    BL       am_hal_itm_enable ; 0x1b88
        0x00000590:    4807        .H      LDR      r0,[pc,#28] ; [0x5b0] = 0xf4240
        0x00000592:    f003f989    ....    BL       am_hal_tpiu_enable ; 0x38a8
        0x00000596:    4807        .H      LDR      r0,[pc,#28] ; [0x5b4] = 0x1000019c
        0x00000598:    6801        .h      LDR      r1,[r0,#0]
        0x0000059a:    9100        ..      STR      r1,[sp,#0]
        0x0000059c:    201c        .       MOVS     r0,#0x1c
        0x0000059e:    f001fadf    ....    BL       am_hal_gpio_pinconfig ; 0x1b60
        0x000005a2:    e8bd4008    ...@    POP      {r3,lr}
        0x000005a6:    4804        .H      LDR      r0,[pc,#16] ; [0x5b8] = 0x1bd1
        0x000005a8:    f003bc54    ..T.    B.W      am_util_stdio_printf_init ; 0x3e54
    $d
        0x000005ac:    1000013c    <...    DCD    268435772
        0x000005b0:    000f4240    @B..    DCD    1000000
        0x000005b4:    1000019c    ....    DCD    268435868
        0x000005b8:    00001bd1    ....    DCD    7121
    $t
    i.am_bsp_low_power_init
    am_bsp_low_power_init
        0x000005bc:    b510        ..      PUSH     {r4,lr}
        0x000005be:    f003f8eb    ....    BL       am_hal_pwrctrl_low_power_init ; 0x3798
        0x000005c2:    e8bd4010    ...@    POP      {r4,lr}
        0x000005c6:    f003b941    ..A.    B.W      am_hal_rtc_osc_disable ; 0x384c
        0x000005ca:    0000        ..      MOVS     r0,r0
    i.am_bsp_mspi_pins_enable
    am_bsp_mspi_pins_enable
        0x000005cc:    b508        ..      PUSH     {r3,lr}
        0x000005ce:    b180        ..      CBZ      r0,0x5f2 ; am_bsp_mspi_pins_enable + 38
        0x000005d0:    2801        .(      CMP      r0,#1
        0x000005d2:    bf1c        ..      ITT      NE
        0x000005d4:    2802        .(      CMPNE    r0,#2
        0x000005d6:    bd08        ..      POPNE    {r3,pc}
        0x000005d8:    2910        .)      CMP      r1,#0x10
        0x000005da:    bf28        (.      IT       CS
        0x000005dc:    bd08        ..      POPCS    {r3,pc}
        0x000005de:    e8dff001    ....    TBB      [pc,r1]
    $d
        0x000005e2:    edd3        ..      DCW    60883
        0x000005e4:    fafbfcfc    ....    DCD    4210818300
        0x000005e8:    fcfcf8f9    ....    DCD    4244437241
        0x000005ec:    fafbfcfc    ....    DCD    4210818300
        0x000005f0:    fafb        ..      DCW    64251
    $t
        0x000005f2:    2910        .)      CMP      r1,#0x10
        0x000005f4:    bf28        (.      IT       CS
        0x000005f6:    bd08        ..      POPCS    {r3,pc}
        0x000005f8:    e8dff001    ....    TBB      [pc,r1]
    $d
        0x000005fc:    efef2208    ."..    DCD    4025426440
        0x00000600:    ef88623c    <b..    DCD    4018692668
        0x00000604:    efefefef    ....    DCD    4025479151
        0x00000608:    623c623c    <b<b    DCD    1648124476
    $t
        0x0000060c:    48e0        .H      LDR      r0,[pc,#896] ; [0x990] = 0x10000144
        0x0000060e:    6801        .h      LDR      r1,[r0,#0]
        0x00000610:    9100        ..      STR      r1,[sp,#0]
        0x00000612:    2049        I       MOVS     r0,#0x49
        0x00000614:    f001faa4    ....    BL       am_hal_gpio_pinconfig ; 0x1b60
        0x00000618:    48de        .H      LDR      r0,[pc,#888] ; [0x994] = 0x1000014c
        0x0000061a:    6801        .h      LDR      r1,[r0,#0]
        0x0000061c:    9100        ..      STR      r1,[sp,#0]
        0x0000061e:    2040        @       MOVS     r0,#0x40
        0x00000620:    f001fa9e    ....    BL       am_hal_gpio_pinconfig ; 0x1b60
        0x00000624:    48dc        .H      LDR      r0,[pc,#880] ; [0x998] = 0x10000150
        0x00000626:    6801        .h      LDR      r1,[r0,#0]
        0x00000628:    9100        ..      STR      r1,[sp,#0]
        0x0000062a:    2041        A       MOVS     r0,#0x41
        0x0000062c:    f001fa98    ....    BL       am_hal_gpio_pinconfig ; 0x1b60
        0x00000630:    48da        .H      LDR      r0,[pc,#872] ; [0x99c] = 0x1000016c
        0x00000632:    6801        .h      LDR      r1,[r0,#0]
        0x00000634:    9100        ..      STR      r1,[sp,#0]
        0x00000636:    e8bd4008    ...@    POP      {r3,lr}
        0x0000063a:    2048        H       MOVS     r0,#0x48
        0x0000063c:    f001ba90    ....    B.W      am_hal_gpio_pinconfig ; 0x1b60
        0x00000640:    48d7        .H      LDR      r0,[pc,#860] ; [0x9a0] = 0x10000148
        0x00000642:    6801        .h      LDR      r1,[r0,#0]
        0x00000644:    9100        ..      STR      r1,[sp,#0]
        0x00000646:    2034        4       MOVS     r0,#0x34
        0x00000648:    f001fa8a    ....    BL       am_hal_gpio_pinconfig ; 0x1b60
        0x0000064c:    48d1        .H      LDR      r0,[pc,#836] ; [0x994] = 0x1000014c
        0x0000064e:    6801        .h      LDR      r1,[r0,#0]
        0x00000650:    9100        ..      STR      r1,[sp,#0]
        0x00000652:    2040        @       MOVS     r0,#0x40
        0x00000654:    f001fa84    ....    BL       am_hal_gpio_pinconfig ; 0x1b60
        0x00000658:    48cf        .H      LDR      r0,[pc,#828] ; [0x998] = 0x10000150
        0x0000065a:    6801        .h      LDR      r1,[r0,#0]
        0x0000065c:    9100        ..      STR      r1,[sp,#0]
        0x0000065e:    2041        A       MOVS     r0,#0x41
        0x00000660:    f001fa7e    ..~.    BL       am_hal_gpio_pinconfig ; 0x1b60
        0x00000664:    48cd        .H      LDR      r0,[pc,#820] ; [0x99c] = 0x1000016c
        0x00000666:    6801        .h      LDR      r1,[r0,#0]
        0x00000668:    9100        ..      STR      r1,[sp,#0]
        0x0000066a:    e8bd4008    ...@    POP      {r3,lr}
        0x0000066e:    2048        H       MOVS     r0,#0x48
        0x00000670:    f001ba76    ..v.    B.W      am_hal_gpio_pinconfig ; 0x1b60
        0x00000674:    48c6        .H      LDR      r0,[pc,#792] ; [0x990] = 0x10000144
        0x00000676:    6801        .h      LDR      r1,[r0,#0]
        0x00000678:    9100        ..      STR      r1,[sp,#0]
        0x0000067a:    2049        I       MOVS     r0,#0x49
        0x0000067c:    f001fa70    ..p.    BL       am_hal_gpio_pinconfig ; 0x1b60
        0x00000680:    48c4        .H      LDR      r0,[pc,#784] ; [0x994] = 0x1000014c
        0x00000682:    6801        .h      LDR      r1,[r0,#0]
        0x00000684:    9100        ..      STR      r1,[sp,#0]
        0x00000686:    2040        @       MOVS     r0,#0x40
        0x00000688:    f001fa6a    ..j.    BL       am_hal_gpio_pinconfig ; 0x1b60
        0x0000068c:    48c2        .H      LDR      r0,[pc,#776] ; [0x998] = 0x10000150
        0x0000068e:    6801        .h      LDR      r1,[r0,#0]
        0x00000690:    9100        ..      STR      r1,[sp,#0]
        0x00000692:    2041        A       MOVS     r0,#0x41
        0x00000694:    f001fa64    ..d.    BL       am_hal_gpio_pinconfig ; 0x1b60
        0x00000698:    48c2        .H      LDR      r0,[pc,#776] ; [0x9a4] = 0x10000154
        0x0000069a:    6801        .h      LDR      r1,[r0,#0]
        0x0000069c:    9100        ..      STR      r1,[sp,#0]
        0x0000069e:    2042        B       MOVS     r0,#0x42
        0x000006a0:    f001fa5e    ..^.    BL       am_hal_gpio_pinconfig ; 0x1b60
        0x000006a4:    48c0        .H      LDR      r0,[pc,#768] ; [0x9a8] = 0x10000158
        0x000006a6:    6801        .h      LDR      r1,[r0,#0]
        0x000006a8:    9100        ..      STR      r1,[sp,#0]
        0x000006aa:    2043        C       MOVS     r0,#0x43
        0x000006ac:    f001fa58    ..X.    BL       am_hal_gpio_pinconfig ; 0x1b60
        0x000006b0:    48ba        .H      LDR      r0,[pc,#744] ; [0x99c] = 0x1000016c
        0x000006b2:    6801        .h      LDR      r1,[r0,#0]
        0x000006b4:    9100        ..      STR      r1,[sp,#0]
        0x000006b6:    e8bd4008    ...@    POP      {r3,lr}
        0x000006ba:    2048        H       MOVS     r0,#0x48
        0x000006bc:    f001ba50    ..P.    B.W      am_hal_gpio_pinconfig ; 0x1b60
        0x000006c0:    48b7        .H      LDR      r0,[pc,#732] ; [0x9a0] = 0x10000148
        0x000006c2:    6801        .h      LDR      r1,[r0,#0]
        0x000006c4:    9100        ..      STR      r1,[sp,#0]
        0x000006c6:    2034        4       MOVS     r0,#0x34
        0x000006c8:    f001fa4a    ..J.    BL       am_hal_gpio_pinconfig ; 0x1b60
        0x000006cc:    48b1        .H      LDR      r0,[pc,#708] ; [0x994] = 0x1000014c
        0x000006ce:    6801        .h      LDR      r1,[r0,#0]
        0x000006d0:    9100        ..      STR      r1,[sp,#0]
        0x000006d2:    2040        @       MOVS     r0,#0x40
        0x000006d4:    f001fa44    ..D.    BL       am_hal_gpio_pinconfig ; 0x1b60
        0x000006d8:    48af        .H      LDR      r0,[pc,#700] ; [0x998] = 0x10000150
        0x000006da:    6801        .h      LDR      r1,[r0,#0]
        0x000006dc:    9100        ..      STR      r1,[sp,#0]
        0x000006de:    2041        A       MOVS     r0,#0x41
        0x000006e0:    f001fa3e    ..>.    BL       am_hal_gpio_pinconfig ; 0x1b60
        0x000006e4:    48af        .H      LDR      r0,[pc,#700] ; [0x9a4] = 0x10000154
        0x000006e6:    6801        .h      LDR      r1,[r0,#0]
        0x000006e8:    9100        ..      STR      r1,[sp,#0]
        0x000006ea:    2042        B       MOVS     r0,#0x42
        0x000006ec:    f001fa38    ..8.    BL       am_hal_gpio_pinconfig ; 0x1b60
        0x000006f0:    48ad        .H      LDR      r0,[pc,#692] ; [0x9a8] = 0x10000158
        0x000006f2:    6801        .h      LDR      r1,[r0,#0]
        0x000006f4:    9100        ..      STR      r1,[sp,#0]
        0x000006f6:    2043        C       MOVS     r0,#0x43
        0x000006f8:    f001fa32    ..2.    BL       am_hal_gpio_pinconfig ; 0x1b60
        0x000006fc:    48a7        .H      LDR      r0,[pc,#668] ; [0x99c] = 0x1000016c
        0x000006fe:    6801        .h      LDR      r1,[r0,#0]
        0x00000700:    9100        ..      STR      r1,[sp,#0]
        0x00000702:    e8bd4008    ...@    POP      {r3,lr}
        0x00000706:    2048        H       MOVS     r0,#0x48
        0x00000708:    f001ba2a    ..*.    B.W      am_hal_gpio_pinconfig ; 0x1b60
        0x0000070c:    48a0        .H      LDR      r0,[pc,#640] ; [0x990] = 0x10000144
        0x0000070e:    6801        .h      LDR      r1,[r0,#0]
        0x00000710:    9100        ..      STR      r1,[sp,#0]
        0x00000712:    2049        I       MOVS     r0,#0x49
        0x00000714:    f001fa24    ..$.    BL       am_hal_gpio_pinconfig ; 0x1b60
        0x00000718:    489e        .H      LDR      r0,[pc,#632] ; [0x994] = 0x1000014c
        0x0000071a:    6801        .h      LDR      r1,[r0,#0]
        0x0000071c:    9100        ..      STR      r1,[sp,#0]
        0x0000071e:    2040        @       MOVS     r0,#0x40
        0x00000720:    f001fa1e    ....    BL       am_hal_gpio_pinconfig ; 0x1b60
        0x00000724:    489c        .H      LDR      r0,[pc,#624] ; [0x998] = 0x10000150
        0x00000726:    6801        .h      LDR      r1,[r0,#0]
        0x00000728:    9100        ..      STR      r1,[sp,#0]
        0x0000072a:    2041        A       MOVS     r0,#0x41
        0x0000072c:    f001fa18    ....    BL       am_hal_gpio_pinconfig ; 0x1b60
        0x00000730:    489c        .H      LDR      r0,[pc,#624] ; [0x9a4] = 0x10000154
        0x00000732:    6801        .h      LDR      r1,[r0,#0]
        0x00000734:    9100        ..      STR      r1,[sp,#0]
        0x00000736:    2042        B       MOVS     r0,#0x42
        0x00000738:    f001fa12    ....    BL       am_hal_gpio_pinconfig ; 0x1b60
        0x0000073c:    489a        .H      LDR      r0,[pc,#616] ; [0x9a8] = 0x10000158
        0x0000073e:    6801        .h      LDR      r1,[r0,#0]
        0x00000740:    9100        ..      STR      r1,[sp,#0]
        0x00000742:    2043        C       MOVS     r0,#0x43
        0x00000744:    f001fa0c    ....    BL       am_hal_gpio_pinconfig ; 0x1b60
        0x00000748:    4898        .H      LDR      r0,[pc,#608] ; [0x9ac] = 0x1000015c
        0x0000074a:    6801        .h      LDR      r1,[r0,#0]
        0x0000074c:    9100        ..      STR      r1,[sp,#0]
        0x0000074e:    2044        D       MOVS     r0,#0x44
        0x00000750:    f001fa06    ....    BL       am_hal_gpio_pinconfig ; 0x1b60
        0x00000754:    4896        .H      LDR      r0,[pc,#600] ; [0x9b0] = 0x10000160
        0x00000756:    6801        .h      LDR      r1,[r0,#0]
        0x00000758:    9100        ..      STR      r1,[sp,#0]
        0x0000075a:    2045        E       MOVS     r0,#0x45
        0x0000075c:    f001fa00    ....    BL       am_hal_gpio_pinconfig ; 0x1b60
        0x00000760:    4894        .H      LDR      r0,[pc,#592] ; [0x9b4] = 0x10000164
        0x00000762:    6801        .h      LDR      r1,[r0,#0]
        0x00000764:    9100        ..      STR      r1,[sp,#0]
        0x00000766:    2046        F       MOVS     r0,#0x46
        0x00000768:    f001f9fa    ....    BL       am_hal_gpio_pinconfig ; 0x1b60
        0x0000076c:    4892        .H      LDR      r0,[pc,#584] ; [0x9b8] = 0x10000168
        0x0000076e:    6801        .h      LDR      r1,[r0,#0]
        0x00000770:    9100        ..      STR      r1,[sp,#0]
        0x00000772:    2047        G       MOVS     r0,#0x47
        0x00000774:    f001f9f4    ....    BL       am_hal_gpio_pinconfig ; 0x1b60
        0x00000778:    4888        .H      LDR      r0,[pc,#544] ; [0x99c] = 0x1000016c
        0x0000077a:    6801        .h      LDR      r1,[r0,#0]
        0x0000077c:    9100        ..      STR      r1,[sp,#0]
        0x0000077e:    e8bd4008    ...@    POP      {r3,lr}
        0x00000782:    2048        H       MOVS     r0,#0x48
        0x00000784:    f001b9ec    ....    B.W      am_hal_gpio_pinconfig ; 0x1b60
        0x00000788:    488c        .H      LDR      r0,[pc,#560] ; [0x9bc] = 0x10000170
        0x0000078a:    6801        .h      LDR      r1,[r0,#0]
        0x0000078c:    9100        ..      STR      r1,[sp,#0]
        0x0000078e:    2053        S       MOVS     r0,#0x53
        0x00000790:    f001f9e6    ....    BL       am_hal_gpio_pinconfig ; 0x1b60
        0x00000794:    488a        .H      LDR      r0,[pc,#552] ; [0x9c0] = 0x10000178
        0x00000796:    6801        .h      LDR      r1,[r0,#0]
        0x00000798:    9100        ..      STR      r1,[sp,#0]
        0x0000079a:    204a        J       MOVS     r0,#0x4a
        0x0000079c:    f001f9e0    ....    BL       am_hal_gpio_pinconfig ; 0x1b60
        0x000007a0:    4888        .H      LDR      r0,[pc,#544] ; [0x9c4] = 0x1000017c
        0x000007a2:    6801        .h      LDR      r1,[r0,#0]
        0x000007a4:    9100        ..      STR      r1,[sp,#0]
        0x000007a6:    204b        K       MOVS     r0,#0x4b
        0x000007a8:    f001f9da    ....    BL       am_hal_gpio_pinconfig ; 0x1b60
        0x000007ac:    4886        .H      LDR      r0,[pc,#536] ; [0x9c8] = 0x10000198
        0x000007ae:    6801        .h      LDR      r1,[r0,#0]
        0x000007b0:    9100        ..      STR      r1,[sp,#0]
        0x000007b2:    e8bd4008    ...@    POP      {r3,lr}
        0x000007b6:    2052        R       MOVS     r0,#0x52
        0x000007b8:    f001b9d2    ....    B.W      am_hal_gpio_pinconfig ; 0x1b60
        0x000007bc:    4883        .H      LDR      r0,[pc,#524] ; [0x9cc] = 0x10000174
        0x000007be:    6801        .h      LDR      r1,[r0,#0]
        0x000007c0:    9100        ..      STR      r1,[sp,#0]
        0x000007c2:    2056        V       MOVS     r0,#0x56
        0x000007c4:    f001f9cc    ....    BL       am_hal_gpio_pinconfig ; 0x1b60
        0x000007c8:    487d        }H      LDR      r0,[pc,#500] ; [0x9c0] = 0x10000178
        0x000007ca:    6801        .h      LDR      r1,[r0,#0]
        0x000007cc:    9100        ..      STR      r1,[sp,#0]
        0x000007ce:    204a        J       MOVS     r0,#0x4a
        0x000007d0:    e004        ..      B        0x7dc ; am_bsp_mspi_pins_enable + 528
        0x000007d2:    e09d        ..      B        0x910 ; am_bsp_mspi_pins_enable + 836
        0x000007d4:    e05e        ^.      B        0x894 ; am_bsp_mspi_pins_enable + 712
        0x000007d6:    e037        7.      B        0x848 ; am_bsp_mspi_pins_enable + 636
        0x000007d8:    e010        ..      B        0x7fc ; am_bsp_mspi_pins_enable + 560
        0x000007da:    e0d7        ..      B        0x98c ; am_bsp_mspi_pins_enable + 960
        0x000007dc:    f001f9c0    ....    BL       am_hal_gpio_pinconfig ; 0x1b60
        0x000007e0:    4878        xH      LDR      r0,[pc,#480] ; [0x9c4] = 0x1000017c
        0x000007e2:    6801        .h      LDR      r1,[r0,#0]
        0x000007e4:    9100        ..      STR      r1,[sp,#0]
        0x000007e6:    204b        K       MOVS     r0,#0x4b
        0x000007e8:    f001f9ba    ....    BL       am_hal_gpio_pinconfig ; 0x1b60
        0x000007ec:    4876        vH      LDR      r0,[pc,#472] ; [0x9c8] = 0x10000198
        0x000007ee:    6801        .h      LDR      r1,[r0,#0]
        0x000007f0:    9100        ..      STR      r1,[sp,#0]
        0x000007f2:    e8bd4008    ...@    POP      {r3,lr}
        0x000007f6:    2052        R       MOVS     r0,#0x52
        0x000007f8:    f001b9b2    ....    B.W      am_hal_gpio_pinconfig ; 0x1b60
        0x000007fc:    486f        oH      LDR      r0,[pc,#444] ; [0x9bc] = 0x10000170
        0x000007fe:    6801        .h      LDR      r1,[r0,#0]
        0x00000800:    9100        ..      STR      r1,[sp,#0]
        0x00000802:    2053        S       MOVS     r0,#0x53
        0x00000804:    f001f9ac    ....    BL       am_hal_gpio_pinconfig ; 0x1b60
        0x00000808:    486d        mH      LDR      r0,[pc,#436] ; [0x9c0] = 0x10000178
        0x0000080a:    6801        .h      LDR      r1,[r0,#0]
        0x0000080c:    9100        ..      STR      r1,[sp,#0]
        0x0000080e:    204a        J       MOVS     r0,#0x4a
        0x00000810:    f001f9a6    ....    BL       am_hal_gpio_pinconfig ; 0x1b60
        0x00000814:    486b        kH      LDR      r0,[pc,#428] ; [0x9c4] = 0x1000017c
        0x00000816:    6801        .h      LDR      r1,[r0,#0]
        0x00000818:    9100        ..      STR      r1,[sp,#0]
        0x0000081a:    204b        K       MOVS     r0,#0x4b
        0x0000081c:    f001f9a0    ....    BL       am_hal_gpio_pinconfig ; 0x1b60
        0x00000820:    486b        kH      LDR      r0,[pc,#428] ; [0x9d0] = 0x10000180
        0x00000822:    6801        .h      LDR      r1,[r0,#0]
        0x00000824:    9100        ..      STR      r1,[sp,#0]
        0x00000826:    204c        L       MOVS     r0,#0x4c
        0x00000828:    f001f99a    ....    BL       am_hal_gpio_pinconfig ; 0x1b60
        0x0000082c:    4869        iH      LDR      r0,[pc,#420] ; [0x9d4] = 0x10000184
        0x0000082e:    6801        .h      LDR      r1,[r0,#0]
        0x00000830:    9100        ..      STR      r1,[sp,#0]
        0x00000832:    204d        M       MOVS     r0,#0x4d
        0x00000834:    f001f994    ....    BL       am_hal_gpio_pinconfig ; 0x1b60
        0x00000838:    4863        cH      LDR      r0,[pc,#396] ; [0x9c8] = 0x10000198
        0x0000083a:    6801        .h      LDR      r1,[r0,#0]
        0x0000083c:    9100        ..      STR      r1,[sp,#0]
        0x0000083e:    e8bd4008    ...@    POP      {r3,lr}
        0x00000842:    2052        R       MOVS     r0,#0x52
        0x00000844:    f001b98c    ....    B.W      am_hal_gpio_pinconfig ; 0x1b60
        0x00000848:    4860        `H      LDR      r0,[pc,#384] ; [0x9cc] = 0x10000174
        0x0000084a:    6801        .h      LDR      r1,[r0,#0]
        0x0000084c:    9100        ..      STR      r1,[sp,#0]
        0x0000084e:    2056        V       MOVS     r0,#0x56
        0x00000850:    f001f986    ....    BL       am_hal_gpio_pinconfig ; 0x1b60
        0x00000854:    485a        ZH      LDR      r0,[pc,#360] ; [0x9c0] = 0x10000178
        0x00000856:    6801        .h      LDR      r1,[r0,#0]
        0x00000858:    9100        ..      STR      r1,[sp,#0]
        0x0000085a:    204a        J       MOVS     r0,#0x4a
        0x0000085c:    f001f980    ....    BL       am_hal_gpio_pinconfig ; 0x1b60
        0x00000860:    4858        XH      LDR      r0,[pc,#352] ; [0x9c4] = 0x1000017c
        0x00000862:    6801        .h      LDR      r1,[r0,#0]
        0x00000864:    9100        ..      STR      r1,[sp,#0]
        0x00000866:    204b        K       MOVS     r0,#0x4b
        0x00000868:    f001f97a    ..z.    BL       am_hal_gpio_pinconfig ; 0x1b60
        0x0000086c:    4858        XH      LDR      r0,[pc,#352] ; [0x9d0] = 0x10000180
        0x0000086e:    6801        .h      LDR      r1,[r0,#0]
        0x00000870:    9100        ..      STR      r1,[sp,#0]
        0x00000872:    204c        L       MOVS     r0,#0x4c
        0x00000874:    f001f974    ..t.    BL       am_hal_gpio_pinconfig ; 0x1b60
        0x00000878:    4856        VH      LDR      r0,[pc,#344] ; [0x9d4] = 0x10000184
        0x0000087a:    6801        .h      LDR      r1,[r0,#0]
        0x0000087c:    9100        ..      STR      r1,[sp,#0]
        0x0000087e:    204d        M       MOVS     r0,#0x4d
        0x00000880:    f001f96e    ..n.    BL       am_hal_gpio_pinconfig ; 0x1b60
        0x00000884:    4850        PH      LDR      r0,[pc,#320] ; [0x9c8] = 0x10000198
        0x00000886:    6801        .h      LDR      r1,[r0,#0]
        0x00000888:    9100        ..      STR      r1,[sp,#0]
        0x0000088a:    e8bd4008    ...@    POP      {r3,lr}
        0x0000088e:    2052        R       MOVS     r0,#0x52
        0x00000890:    f001b966    ..f.    B.W      am_hal_gpio_pinconfig ; 0x1b60
        0x00000894:    4849        IH      LDR      r0,[pc,#292] ; [0x9bc] = 0x10000170
        0x00000896:    6801        .h      LDR      r1,[r0,#0]
        0x00000898:    9100        ..      STR      r1,[sp,#0]
        0x0000089a:    2053        S       MOVS     r0,#0x53
        0x0000089c:    f001f960    ..`.    BL       am_hal_gpio_pinconfig ; 0x1b60
        0x000008a0:    4847        GH      LDR      r0,[pc,#284] ; [0x9c0] = 0x10000178
        0x000008a2:    6801        .h      LDR      r1,[r0,#0]
        0x000008a4:    9100        ..      STR      r1,[sp,#0]
        0x000008a6:    204a        J       MOVS     r0,#0x4a
        0x000008a8:    f001f95a    ..Z.    BL       am_hal_gpio_pinconfig ; 0x1b60
        0x000008ac:    4845        EH      LDR      r0,[pc,#276] ; [0x9c4] = 0x1000017c
        0x000008ae:    6801        .h      LDR      r1,[r0,#0]
        0x000008b0:    9100        ..      STR      r1,[sp,#0]
        0x000008b2:    204b        K       MOVS     r0,#0x4b
        0x000008b4:    f001f954    ..T.    BL       am_hal_gpio_pinconfig ; 0x1b60
        0x000008b8:    4845        EH      LDR      r0,[pc,#276] ; [0x9d0] = 0x10000180
        0x000008ba:    6801        .h      LDR      r1,[r0,#0]
        0x000008bc:    9100        ..      STR      r1,[sp,#0]
        0x000008be:    204c        L       MOVS     r0,#0x4c
        0x000008c0:    f001f94e    ..N.    BL       am_hal_gpio_pinconfig ; 0x1b60
        0x000008c4:    4843        CH      LDR      r0,[pc,#268] ; [0x9d4] = 0x10000184
        0x000008c6:    6801        .h      LDR      r1,[r0,#0]
        0x000008c8:    9100        ..      STR      r1,[sp,#0]
        0x000008ca:    204d        M       MOVS     r0,#0x4d
        0x000008cc:    f001f948    ..H.    BL       am_hal_gpio_pinconfig ; 0x1b60
        0x000008d0:    4841        AH      LDR      r0,[pc,#260] ; [0x9d8] = 0x10000188
        0x000008d2:    6801        .h      LDR      r1,[r0,#0]
        0x000008d4:    9100        ..      STR      r1,[sp,#0]
        0x000008d6:    204e        N       MOVS     r0,#0x4e
        0x000008d8:    f001f942    ..B.    BL       am_hal_gpio_pinconfig ; 0x1b60
        0x000008dc:    483f        ?H      LDR      r0,[pc,#252] ; [0x9dc] = 0x1000018c
        0x000008de:    6801        .h      LDR      r1,[r0,#0]
        0x000008e0:    9100        ..      STR      r1,[sp,#0]
        0x000008e2:    204f        O       MOVS     r0,#0x4f
        0x000008e4:    f001f93c    ..<.    BL       am_hal_gpio_pinconfig ; 0x1b60
        0x000008e8:    483d        =H      LDR      r0,[pc,#244] ; [0x9e0] = 0x10000190
        0x000008ea:    6801        .h      LDR      r1,[r0,#0]
        0x000008ec:    9100        ..      STR      r1,[sp,#0]
        0x000008ee:    2050        P       MOVS     r0,#0x50
        0x000008f0:    f001f936    ..6.    BL       am_hal_gpio_pinconfig ; 0x1b60
        0x000008f4:    483b        ;H      LDR      r0,[pc,#236] ; [0x9e4] = 0x10000194
        0x000008f6:    6801        .h      LDR      r1,[r0,#0]
        0x000008f8:    9100        ..      STR      r1,[sp,#0]
        0x000008fa:    2051        Q       MOVS     r0,#0x51
        0x000008fc:    f001f930    ..0.    BL       am_hal_gpio_pinconfig ; 0x1b60
        0x00000900:    4831        1H      LDR      r0,[pc,#196] ; [0x9c8] = 0x10000198
        0x00000902:    6801        .h      LDR      r1,[r0,#0]
        0x00000904:    9100        ..      STR      r1,[sp,#0]
        0x00000906:    e8bd4008    ...@    POP      {r3,lr}
        0x0000090a:    2052        R       MOVS     r0,#0x52
        0x0000090c:    f001b928    ..(.    B.W      am_hal_gpio_pinconfig ; 0x1b60
        0x00000910:    482e        .H      LDR      r0,[pc,#184] ; [0x9cc] = 0x10000174
        0x00000912:    6801        .h      LDR      r1,[r0,#0]
        0x00000914:    9100        ..      STR      r1,[sp,#0]
        0x00000916:    2056        V       MOVS     r0,#0x56
        0x00000918:    f001f922    ..".    BL       am_hal_gpio_pinconfig ; 0x1b60
        0x0000091c:    4828        (H      LDR      r0,[pc,#160] ; [0x9c0] = 0x10000178
        0x0000091e:    6801        .h      LDR      r1,[r0,#0]
        0x00000920:    9100        ..      STR      r1,[sp,#0]
        0x00000922:    204a        J       MOVS     r0,#0x4a
        0x00000924:    f001f91c    ....    BL       am_hal_gpio_pinconfig ; 0x1b60
        0x00000928:    4826        &H      LDR      r0,[pc,#152] ; [0x9c4] = 0x1000017c
        0x0000092a:    6801        .h      LDR      r1,[r0,#0]
        0x0000092c:    9100        ..      STR      r1,[sp,#0]
        0x0000092e:    204b        K       MOVS     r0,#0x4b
        0x00000930:    f001f916    ....    BL       am_hal_gpio_pinconfig ; 0x1b60
        0x00000934:    4826        &H      LDR      r0,[pc,#152] ; [0x9d0] = 0x10000180
        0x00000936:    6801        .h      LDR      r1,[r0,#0]
        0x00000938:    9100        ..      STR      r1,[sp,#0]
        0x0000093a:    204c        L       MOVS     r0,#0x4c
        0x0000093c:    f001f910    ....    BL       am_hal_gpio_pinconfig ; 0x1b60
        0x00000940:    4824        $H      LDR      r0,[pc,#144] ; [0x9d4] = 0x10000184
        0x00000942:    6801        .h      LDR      r1,[r0,#0]
        0x00000944:    9100        ..      STR      r1,[sp,#0]
        0x00000946:    204d        M       MOVS     r0,#0x4d
        0x00000948:    f001f90a    ....    BL       am_hal_gpio_pinconfig ; 0x1b60
        0x0000094c:    4822        "H      LDR      r0,[pc,#136] ; [0x9d8] = 0x10000188
        0x0000094e:    6801        .h      LDR      r1,[r0,#0]
        0x00000950:    9100        ..      STR      r1,[sp,#0]
        0x00000952:    204e        N       MOVS     r0,#0x4e
        0x00000954:    f001f904    ....    BL       am_hal_gpio_pinconfig ; 0x1b60
        0x00000958:    4820         H      LDR      r0,[pc,#128] ; [0x9dc] = 0x1000018c
        0x0000095a:    6801        .h      LDR      r1,[r0,#0]
        0x0000095c:    9100        ..      STR      r1,[sp,#0]
        0x0000095e:    204f        O       MOVS     r0,#0x4f
        0x00000960:    f001f8fe    ....    BL       am_hal_gpio_pinconfig ; 0x1b60
        0x00000964:    481e        .H      LDR      r0,[pc,#120] ; [0x9e0] = 0x10000190
        0x00000966:    6801        .h      LDR      r1,[r0,#0]
        0x00000968:    9100        ..      STR      r1,[sp,#0]
        0x0000096a:    2050        P       MOVS     r0,#0x50
        0x0000096c:    f001f8f8    ....    BL       am_hal_gpio_pinconfig ; 0x1b60
        0x00000970:    481c        .H      LDR      r0,[pc,#112] ; [0x9e4] = 0x10000194
        0x00000972:    6801        .h      LDR      r1,[r0,#0]
        0x00000974:    9100        ..      STR      r1,[sp,#0]
        0x00000976:    2051        Q       MOVS     r0,#0x51
        0x00000978:    f001f8f2    ....    BL       am_hal_gpio_pinconfig ; 0x1b60
        0x0000097c:    4812        .H      LDR      r0,[pc,#72] ; [0x9c8] = 0x10000198
        0x0000097e:    6801        .h      LDR      r1,[r0,#0]
        0x00000980:    9100        ..      STR      r1,[sp,#0]
        0x00000982:    e8bd4008    ...@    POP      {r3,lr}
        0x00000986:    2052        R       MOVS     r0,#0x52
        0x00000988:    f001b8ea    ....    B.W      am_hal_gpio_pinconfig ; 0x1b60
        0x0000098c:    bd08        ..      POP      {r3,pc}
    $d
        0x0000098e:    0000        ..      DCW    0
        0x00000990:    10000144    D...    DCD    268435780
        0x00000994:    1000014c    L...    DCD    268435788
        0x00000998:    10000150    P...    DCD    268435792
        0x0000099c:    1000016c    l...    DCD    268435820
        0x000009a0:    10000148    H...    DCD    268435784
        0x000009a4:    10000154    T...    DCD    268435796
        0x000009a8:    10000158    X...    DCD    268435800
        0x000009ac:    1000015c    \...    DCD    268435804
        0x000009b0:    10000160    `...    DCD    268435808
        0x000009b4:    10000164    d...    DCD    268435812
        0x000009b8:    10000168    h...    DCD    268435816
        0x000009bc:    10000170    p...    DCD    268435824
        0x000009c0:    10000178    x...    DCD    268435832
        0x000009c4:    1000017c    |...    DCD    268435836
        0x000009c8:    10000198    ....    DCD    268435864
        0x000009cc:    10000174    t...    DCD    268435828
        0x000009d0:    10000180    ....    DCD    268435840
        0x000009d4:    10000184    ....    DCD    268435844
        0x000009d8:    10000188    ....    DCD    268435848
        0x000009dc:    1000018c    ....    DCD    268435852
        0x000009e0:    10000190    ....    DCD    268435856
        0x000009e4:    10000194    ....    DCD    268435860
    $t
    i.am_device_deinit_flash
    am_device_deinit_flash
        0x000009e8:    b570        p.      PUSH     {r4-r6,lr}
        0x000009ea:    b0a2        ..      SUB      sp,sp,#0x88
        0x000009ec:    4604        .F      MOV      r4,r0
        0x000009ee:    4626        &F      MOV      r6,r4
        0x000009f0:    2180        .!      MOVS     r1,#0x80
        0x000009f2:    a802        ..      ADD      r0,sp,#8
        0x000009f4:    f7fffd2f    ../.    BL       __aeabi_memclr4 ; 0x456
        0x000009f8:    7bb0        .{      LDRB     r0,[r6,#0xe]
        0x000009fa:    2808        .(      CMP      r0,#8
        0x000009fc:    d21a        ..      BCS      0xa34 ; am_device_deinit_flash + 76
        0x000009fe:    e8dff000    ....    TBB      [pc,r0]
    $d
        0x00000a02:    0504        ..      DCW    1284
        0x00000a04:    07061919    ....    DCD    117840153
        0x00000a08:    0908        ..      DCW    2312
    $t
        0x00000a0a:    bf00        ..      NOP      
        0x00000a0c:    e014        ..      B        0xa38 ; am_device_deinit_flash + 80
        0x00000a0e:    bf00        ..      NOP      
        0x00000a10:    bf00        ..      NOP      
        0x00000a12:    bf00        ..      NOP      
        0x00000a14:    2000        .       MOVS     r0,#0
        0x00000a16:    a902        ..      ADD      r1,sp,#8
        0x00000a18:    4603        .F      MOV      r3,r0
        0x00000a1a:    4602        .F      MOV      r2,r0
        0x00000a1c:    e9cd1000    ....    STRD     r1,r0,[sp,#0]
        0x00000a20:    21ff        .!      MOVS     r1,#0xff
        0x00000a22:    4620         F      MOV      r0,r4
        0x00000a24:    f000f89c    ....    BL       am_devices_mspi_atxp032_command_write ; 0xb60
        0x00000a28:    4605        .F      MOV      r5,r0
        0x00000a2a:    b115        ..      CBZ      r5,0xa32 ; am_device_deinit_flash + 74
        0x00000a2c:    2001        .       MOVS     r0,#1
        0x00000a2e:    b022        ".      ADD      sp,sp,#0x88
        0x00000a30:    bd70        p.      POP      {r4-r6,pc}
        0x00000a32:    e001        ..      B        0xa38 ; am_device_deinit_flash + 80
        0x00000a34:    2001        .       MOVS     r0,#1
        0x00000a36:    e7fa        ..      B        0xa2e ; am_device_deinit_flash + 70
        0x00000a38:    bf00        ..      NOP      
        0x00000a3a:    2000        .       MOVS     r0,#0
        0x00000a3c:    e7f7        ..      B        0xa2e ; am_device_deinit_flash + 70
    i.am_device_init_flash
    am_device_init_flash
        0x00000a3e:    b530        0.      PUSH     {r4,r5,lr}
        0x00000a40:    b0a3        ..      SUB      sp,sp,#0x8c
        0x00000a42:    4604        .F      MOV      r4,r0
        0x00000a44:    2180        .!      MOVS     r1,#0x80
        0x00000a46:    a803        ..      ADD      r0,sp,#0xc
        0x00000a48:    f7fffd05    ....    BL       __aeabi_memclr4 ; 0x456
        0x00000a4c:    4625        %F      MOV      r5,r4
        0x00000a4e:    2000        .       MOVS     r0,#0
        0x00000a50:    a903        ..      ADD      r1,sp,#0xc
        0x00000a52:    4603        .F      MOV      r3,r0
        0x00000a54:    4602        .F      MOV      r2,r0
        0x00000a56:    e9cd1000    ....    STRD     r1,r0,[sp,#0]
        0x00000a5a:    2106        .!      MOVS     r1,#6
        0x00000a5c:    4620         F      MOV      r0,r4
        0x00000a5e:    f000f87f    ....    BL       am_devices_mspi_atxp032_command_write ; 0xb60
        0x00000a62:    2003        .       MOVS     r0,#3
        0x00000a64:    9003        ..      STR      r0,[sp,#0xc]
        0x00000a66:    2002        .       MOVS     r0,#2
        0x00000a68:    a903        ..      ADD      r1,sp,#0xc
        0x00000a6a:    2300        .#      MOVS     r3,#0
        0x00000a6c:    461a        .F      MOV      r2,r3
        0x00000a6e:    e9cd1000    ....    STRD     r1,r0,[sp,#0]
        0x00000a72:    2171        q!      MOVS     r1,#0x71
        0x00000a74:    4620         F      MOV      r0,r4
        0x00000a76:    f000f873    ..s.    BL       am_devices_mspi_atxp032_command_write ; 0xb60
        0x00000a7a:    2000        .       MOVS     r0,#0
        0x00000a7c:    a903        ..      ADD      r1,sp,#0xc
        0x00000a7e:    4603        .F      MOV      r3,r0
        0x00000a80:    4602        .F      MOV      r2,r0
        0x00000a82:    e9cd1000    ....    STRD     r1,r0,[sp,#0]
        0x00000a86:    2106        .!      MOVS     r1,#6
        0x00000a88:    4620         F      MOV      r0,r4
        0x00000a8a:    f000f869    ..i.    BL       am_devices_mspi_atxp032_command_write ; 0xb60
        0x00000a8e:    7ba8        .{      LDRB     r0,[r5,#0xe]
        0x00000a90:    2808        .(      CMP      r0,#8
        0x00000a92:    d229        ).      BCS      0xae8 ; am_device_init_flash + 170
        0x00000a94:    e8dff000    ....    TBB      [pc,r0]
    $d
        0x00000a98:    28280504    ..((    DCD    673711364
        0x00000a9c:    1d1c1110    ....    DCD    488378640
    $t
        0x00000aa0:    bf00        ..      NOP      
        0x00000aa2:    2000        .       MOVS     r0,#0
        0x00000aa4:    a903        ..      ADD      r1,sp,#0xc
        0x00000aa6:    4603        .F      MOV      r3,r0
        0x00000aa8:    4602        .F      MOV      r2,r0
        0x00000aaa:    e9cd1000    ....    STRD     r1,r0,[sp,#0]
        0x00000aae:    21ff        .!      MOVS     r1,#0xff
        0x00000ab0:    4620         F      MOV      r0,r4
        0x00000ab2:    f000f855    ..U.    BL       am_devices_mspi_atxp032_command_write ; 0xb60
        0x00000ab6:    e01a        ..      B        0xaee ; am_device_init_flash + 176
        0x00000ab8:    bf00        ..      NOP      
        0x00000aba:    2000        .       MOVS     r0,#0
        0x00000abc:    a903        ..      ADD      r1,sp,#0xc
        0x00000abe:    4603        .F      MOV      r3,r0
        0x00000ac0:    4602        .F      MOV      r2,r0
        0x00000ac2:    e9cd1000    ....    STRD     r1,r0,[sp,#0]
        0x00000ac6:    2138        8!      MOVS     r1,#0x38
        0x00000ac8:    4620         F      MOV      r0,r4
        0x00000aca:    f000f849    ..I.    BL       am_devices_mspi_atxp032_command_write ; 0xb60
        0x00000ace:    e00e        ..      B        0xaee ; am_device_init_flash + 176
        0x00000ad0:    bf00        ..      NOP      
        0x00000ad2:    2000        .       MOVS     r0,#0
        0x00000ad4:    a903        ..      ADD      r1,sp,#0xc
        0x00000ad6:    4603        .F      MOV      r3,r0
        0x00000ad8:    4602        .F      MOV      r2,r0
        0x00000ada:    e9cd1000    ....    STRD     r1,r0,[sp,#0]
        0x00000ade:    21e8        .!      MOVS     r1,#0xe8
        0x00000ae0:    4620         F      MOV      r0,r4
        0x00000ae2:    f000f83d    ..=.    BL       am_devices_mspi_atxp032_command_write ; 0xb60
        0x00000ae6:    e002        ..      B        0xaee ; am_device_init_flash + 176
        0x00000ae8:    2001        .       MOVS     r0,#1
        0x00000aea:    b023        #.      ADD      sp,sp,#0x8c
        0x00000aec:    bd30        0.      POP      {r4,r5,pc}
        0x00000aee:    bf00        ..      NOP      
        0x00000af0:    2000        .       MOVS     r0,#0
        0x00000af2:    e7fa        ..      B        0xaea ; am_device_init_flash + 172
    i.am_devices_mspi_atxp032_command_read
    am_devices_mspi_atxp032_command_read
        0x00000af4:    e92d4ff0    -..O    PUSH     {r4-r11,lr}
        0x00000af8:    b087        ..      SUB      sp,sp,#0x1c
        0x00000afa:    4604        .F      MOV      r4,r0
        0x00000afc:    460d        .F      MOV      r5,r1
        0x00000afe:    4616        .F      MOV      r6,r2
        0x00000b00:    461f        .F      MOV      r7,r3
        0x00000b02:    e9dd8910    ....    LDRD     r8,r9,[sp,#0x40]
        0x00000b06:    46a3        .F      MOV      r11,r4
        0x00000b08:    211c        .!      MOVS     r1,#0x1c
        0x00000b0a:    4668        hF      MOV      r0,sp
        0x00000b0c:    f7fffca3    ....    BL       __aeabi_memclr4 ; 0x456
        0x00000b10:    2000        .       MOVS     r0,#0
        0x00000b12:    f88d000a    ....    STRB     r0,[sp,#0xa]
        0x00000b16:    f88d600b    ...`    STRB     r6,[sp,#0xb]
        0x00000b1a:    9703        ..      STR      r7,[sp,#0xc]
        0x00000b1c:    2001        .       MOVS     r0,#1
        0x00000b1e:    f88d0010    ....    STRB     r0,[sp,#0x10]
        0x00000b22:    f8ad5012    ...P    STRH     r5,[sp,#0x12]
        0x00000b26:    2000        .       MOVS     r0,#0
        0x00000b28:    f88d0014    ....    STRB     r0,[sp,#0x14]
        0x00000b2c:    f8cd9004    ....    STR      r9,[sp,#4]
        0x00000b30:    f8cd8018    ....    STR      r8,[sp,#0x18]
        0x00000b34:    f88d0000    ....    STRB     r0,[sp,#0]
        0x00000b38:    f88d0009    ....    STRB     r0,[sp,#9]
        0x00000b3c:    f88d0015    ....    STRB     r0,[sp,#0x15]
        0x00000b40:    f88d0016    ....    STRB     r0,[sp,#0x16]
        0x00000b44:    4a05        .J      LDR      r2,[pc,#20] ; [0xb5c] = 0xf4240
        0x00000b46:    4669        iF      MOV      r1,sp
        0x00000b48:    f8db0004    ....    LDR      r0,[r11,#4]
        0x00000b4c:    f001f930    ..0.    BL       am_hal_mspi_blocking_transfer ; 0x1db0
        0x00000b50:    4682        .F      MOV      r10,r0
        0x00000b52:    4650        PF      MOV      r0,r10
        0x00000b54:    b007        ..      ADD      sp,sp,#0x1c
        0x00000b56:    e8bd8ff0    ....    POP      {r4-r11,pc}
    $d
        0x00000b5a:    0000        ..      DCW    0
        0x00000b5c:    000f4240    @B..    DCD    1000000
    $t
    i.am_devices_mspi_atxp032_command_write
    am_devices_mspi_atxp032_command_write
        0x00000b60:    e92d4ff0    -..O    PUSH     {r4-r11,lr}
        0x00000b64:    b087        ..      SUB      sp,sp,#0x1c
        0x00000b66:    4604        .F      MOV      r4,r0
        0x00000b68:    460d        .F      MOV      r5,r1
        0x00000b6a:    4616        .F      MOV      r6,r2
        0x00000b6c:    461f        .F      MOV      r7,r3
        0x00000b6e:    e9dd8910    ....    LDRD     r8,r9,[sp,#0x40]
        0x00000b72:    46a3        .F      MOV      r11,r4
        0x00000b74:    211c        .!      MOVS     r1,#0x1c
        0x00000b76:    4668        hF      MOV      r0,sp
        0x00000b78:    f7fffc6d    ..m.    BL       __aeabi_memclr4 ; 0x456
        0x00000b7c:    f8cd9004    ....    STR      r9,[sp,#4]
        0x00000b80:    2001        .       MOVS     r0,#1
        0x00000b82:    f88d000a    ....    STRB     r0,[sp,#0xa]
        0x00000b86:    f88d600b    ...`    STRB     r6,[sp,#0xb]
        0x00000b8a:    9703        ..      STR      r7,[sp,#0xc]
        0x00000b8c:    f88d0010    ....    STRB     r0,[sp,#0x10]
        0x00000b90:    f8ad5012    ...P    STRH     r5,[sp,#0x12]
        0x00000b94:    2000        .       MOVS     r0,#0
        0x00000b96:    f88d0014    ....    STRB     r0,[sp,#0x14]
        0x00000b9a:    f8cd8018    ....    STR      r8,[sp,#0x18]
        0x00000b9e:    f88d0000    ....    STRB     r0,[sp,#0]
        0x00000ba2:    f88d0009    ....    STRB     r0,[sp,#9]
        0x00000ba6:    f88d0015    ....    STRB     r0,[sp,#0x15]
        0x00000baa:    f88d0016    ....    STRB     r0,[sp,#0x16]
        0x00000bae:    4a05        .J      LDR      r2,[pc,#20] ; [0xbc4] = 0xf4240
        0x00000bb0:    4669        iF      MOV      r1,sp
        0x00000bb2:    f8db0004    ....    LDR      r0,[r11,#4]
        0x00000bb6:    f001f8fb    ....    BL       am_hal_mspi_blocking_transfer ; 0x1db0
        0x00000bba:    4682        .F      MOV      r10,r0
        0x00000bbc:    4650        PF      MOV      r0,r10
        0x00000bbe:    b007        ..      ADD      sp,sp,#0x1c
        0x00000bc0:    e8bd8ff0    ....    POP      {r4-r11,pc}
    $d
        0x00000bc4:    000f4240    @B..    DCD    1000000
    $t
    i.am_devices_mspi_atxp032_deinit
    am_devices_mspi_atxp032_deinit
        0x00000bc8:    b570        p.      PUSH     {r4-r6,lr}
        0x00000bca:    4606        .F      MOV      r6,r0
        0x00000bcc:    4634        4F      MOV      r4,r6
        0x00000bce:    4630        0F      MOV      r0,r6
        0x00000bd0:    f7ffff0a    ....    BL       am_device_deinit_flash ; 0x9e8
        0x00000bd4:    4605        .F      MOV      r5,r0
        0x00000bd6:    b10d        ..      CBZ      r5,0xbdc ; am_devices_mspi_atxp032_deinit + 20
        0x00000bd8:    2001        .       MOVS     r0,#1
        0x00000bda:    bd70        p.      POP      {r4-r6,pc}
        0x00000bdc:    4630        0F      MOV      r0,r6
        0x00000bde:    f000fb4f    ..O.    BL       am_devices_mspi_atxp032_reset ; 0x1280
        0x00000be2:    b108        ..      CBZ      r0,0xbe8 ; am_devices_mspi_atxp032_deinit + 32
        0x00000be4:    2001        .       MOVS     r0,#1
        0x00000be6:    e7f8        ..      B        0xbda ; am_devices_mspi_atxp032_deinit + 18
        0x00000be8:    f04f31ff    O..1    MOV      r1,#0xffffffff
        0x00000bec:    6860        `h      LDR      r0,[r4,#4]
        0x00000bee:    f002f94b    ..K.    BL       am_hal_mspi_interrupt_disable ; 0x2e88
        0x00000bf2:    4605        .F      MOV      r5,r0
        0x00000bf4:    b10d        ..      CBZ      r5,0xbfa ; am_devices_mspi_atxp032_deinit + 50
        0x00000bf6:    2001        .       MOVS     r0,#1
        0x00000bf8:    e7ef        ..      B        0xbda ; am_devices_mspi_atxp032_deinit + 18
        0x00000bfa:    f04f31ff    O..1    MOV      r1,#0xffffffff
        0x00000bfe:    6860        `h      LDR      r0,[r4,#4]
        0x00000c00:    f002f928    ..(.    BL       am_hal_mspi_interrupt_clear ; 0x2e54
        0x00000c04:    4605        .F      MOV      r5,r0
        0x00000c06:    b10d        ..      CBZ      r5,0xc0c ; am_devices_mspi_atxp032_deinit + 68
        0x00000c08:    2001        .       MOVS     r0,#1
        0x00000c0a:    e7e6        ..      B        0xbda ; am_devices_mspi_atxp032_deinit + 18
        0x00000c0c:    6860        `h      LDR      r0,[r4,#4]
        0x00000c0e:    f002f865    ..e.    BL       am_hal_mspi_disable ; 0x2cdc
        0x00000c12:    4605        .F      MOV      r5,r0
        0x00000c14:    b10d        ..      CBZ      r5,0xc1a ; am_devices_mspi_atxp032_deinit + 82
        0x00000c16:    2001        .       MOVS     r0,#1
        0x00000c18:    e7df        ..      B        0xbda ; am_devices_mspi_atxp032_deinit + 18
        0x00000c1a:    2200        ."      MOVS     r2,#0
        0x00000c1c:    2102        .!      MOVS     r1,#2
        0x00000c1e:    6860        `h      LDR      r0,[r4,#4]
        0x00000c20:    f002fb8a    ....    BL       am_hal_mspi_power_control ; 0x3338
        0x00000c24:    b120         .      CBZ      r0,0xc30 ; am_devices_mspi_atxp032_deinit + 104
        0x00000c26:    a008        ..      ADR      r0,{pc}+0x22 ; 0xc48
        0x00000c28:    f003f8f6    ....    BL       am_util_stdio_printf ; 0x3e18
        0x00000c2c:    2001        .       MOVS     r0,#1
        0x00000c2e:    e7d4        ..      B        0xbda ; am_devices_mspi_atxp032_deinit + 18
        0x00000c30:    6860        `h      LDR      r0,[r4,#4]
        0x00000c32:    f001fee3    ....    BL       am_hal_mspi_deinitialize ; 0x29fc
        0x00000c36:    4605        .F      MOV      r5,r0
        0x00000c38:    b10d        ..      CBZ      r5,0xc3e ; am_devices_mspi_atxp032_deinit + 118
        0x00000c3a:    2001        .       MOVS     r0,#1
        0x00000c3c:    e7cd        ..      B        0xbda ; am_devices_mspi_atxp032_deinit + 18
        0x00000c3e:    2000        .       MOVS     r0,#0
        0x00000c40:    7720         w      STRB     r0,[r4,#0x1c]
        0x00000c42:    bf00        ..      NOP      
        0x00000c44:    e7c9        ..      B        0xbda ; am_devices_mspi_atxp032_deinit + 18
    $d
        0x00000c46:    0000        ..      DCW    0
        0x00000c48:    6f727245    Erro    DCD    1869771333
        0x00000c4c:    202d2072    r -     DCD    539828338
        0x00000c50:    6c696146    Fail    DCD    1818845510
        0x00000c54:    74206465    ed t    DCD    1948279909
        0x00000c58:    6f70206f    o po    DCD    1869619311
        0x00000c5c:    20726577    wer     DCD    544367991
        0x00000c60:    4d206e6f    on M    DCD    1293971055
        0x00000c64:    2e495053    SPI.    DCD    776556627
        0x00000c68:    0000000a    ....    DCD    10
    $t
    i.am_devices_mspi_atxp032_disable_scrambling
    am_devices_mspi_atxp032_disable_scrambling
        0x00000c6c:    b570        p.      PUSH     {r4-r6,lr}
        0x00000c6e:    b0a2        ..      SUB      sp,sp,#0x88
        0x00000c70:    4604        .F      MOV      r4,r0
        0x00000c72:    4626        &F      MOV      r6,r4
        0x00000c74:    2180        .!      MOVS     r1,#0x80
        0x00000c76:    a802        ..      ADD      r0,sp,#8
        0x00000c78:    f7fffbed    ....    BL       __aeabi_memclr4 ; 0x456
        0x00000c7c:    2000        .       MOVS     r0,#0
        0x00000c7e:    a902        ..      ADD      r1,sp,#8
        0x00000c80:    4603        .F      MOV      r3,r0
        0x00000c82:    4602        .F      MOV      r2,r0
        0x00000c84:    e9cd1000    ....    STRD     r1,r0,[sp,#0]
        0x00000c88:    2106        .!      MOVS     r1,#6
        0x00000c8a:    4620         F      MOV      r0,r4
        0x00000c8c:    f7ffff68    ..h.    BL       am_devices_mspi_atxp032_command_write ; 0xb60
        0x00000c90:    4605        .F      MOV      r5,r0
        0x00000c92:    b115        ..      CBZ      r5,0xc9a ; am_devices_mspi_atxp032_disable_scrambling + 46
        0x00000c94:    2001        .       MOVS     r0,#1
        0x00000c96:    b022        ".      ADD      sp,sp,#0x88
        0x00000c98:    bd70        p.      POP      {r4-r6,pc}
        0x00000c9a:    6831        1h      LDR      r1,[r6,#0]
        0x00000c9c:    eb010181    ....    ADD      r1,r1,r1,LSL #2
        0x00000ca0:    4b06        .K      LDR      r3,[pc,#24] ; [0xcbc] = 0x10000054
        0x00000ca2:    eb030281    ....    ADD      r2,r3,r1,LSL #2
        0x00000ca6:    2106        .!      MOVS     r1,#6
        0x00000ca8:    6870        ph      LDR      r0,[r6,#4]
        0x00000caa:    f001f9e3    ....    BL       am_hal_mspi_control ; 0x2074
        0x00000cae:    4605        .F      MOV      r5,r0
        0x00000cb0:    b10d        ..      CBZ      r5,0xcb6 ; am_devices_mspi_atxp032_disable_scrambling + 74
        0x00000cb2:    2001        .       MOVS     r0,#1
        0x00000cb4:    e7ef        ..      B        0xc96 ; am_devices_mspi_atxp032_disable_scrambling + 42
        0x00000cb6:    2000        .       MOVS     r0,#0
        0x00000cb8:    e7ed        ..      B        0xc96 ; am_devices_mspi_atxp032_disable_scrambling + 42
    $d
        0x00000cba:    0000        ..      DCW    0
        0x00000cbc:    10000054    T...    DCD    268435540
    $t
    i.am_devices_mspi_atxp032_disable_xip
    am_devices_mspi_atxp032_disable_xip
        0x00000cc0:    b570        p.      PUSH     {r4-r6,lr}
        0x00000cc2:    b0a2        ..      SUB      sp,sp,#0x88
        0x00000cc4:    4604        .F      MOV      r4,r0
        0x00000cc6:    4626        &F      MOV      r6,r4
        0x00000cc8:    2180        .!      MOVS     r1,#0x80
        0x00000cca:    a802        ..      ADD      r0,sp,#8
        0x00000ccc:    f7fffbc3    ....    BL       __aeabi_memclr4 ; 0x456
        0x00000cd0:    2000        .       MOVS     r0,#0
        0x00000cd2:    a902        ..      ADD      r1,sp,#8
        0x00000cd4:    4603        .F      MOV      r3,r0
        0x00000cd6:    4602        .F      MOV      r2,r0
        0x00000cd8:    e9cd1000    ....    STRD     r1,r0,[sp,#0]
        0x00000cdc:    2106        .!      MOVS     r1,#6
        0x00000cde:    4620         F      MOV      r0,r4
        0x00000ce0:    f7ffff3e    ..>.    BL       am_devices_mspi_atxp032_command_write ; 0xb60
        0x00000ce4:    4605        .F      MOV      r5,r0
        0x00000ce6:    b115        ..      CBZ      r5,0xcee ; am_devices_mspi_atxp032_disable_xip + 46
        0x00000ce8:    2001        .       MOVS     r0,#1
        0x00000cea:    b022        ".      ADD      sp,sp,#0x88
        0x00000cec:    bd70        p.      POP      {r4-r6,pc}
        0x00000cee:    6831        1h      LDR      r1,[r6,#0]
        0x00000cf0:    eb010181    ....    ADD      r1,r1,r1,LSL #2
        0x00000cf4:    4b06        .K      LDR      r3,[pc,#24] ; [0xd10] = 0x10000054
        0x00000cf6:    eb030281    ....    ADD      r2,r3,r1,LSL #2
        0x00000cfa:    210c        .!      MOVS     r1,#0xc
        0x00000cfc:    6870        ph      LDR      r0,[r6,#4]
        0x00000cfe:    f001f9b9    ....    BL       am_hal_mspi_control ; 0x2074
        0x00000d02:    4605        .F      MOV      r5,r0
        0x00000d04:    b10d        ..      CBZ      r5,0xd0a ; am_devices_mspi_atxp032_disable_xip + 74
        0x00000d06:    2001        .       MOVS     r0,#1
        0x00000d08:    e7ef        ..      B        0xcea ; am_devices_mspi_atxp032_disable_xip + 42
        0x00000d0a:    2000        .       MOVS     r0,#0
        0x00000d0c:    e7ed        ..      B        0xcea ; am_devices_mspi_atxp032_disable_xip + 42
    $d
        0x00000d0e:    0000        ..      DCW    0
        0x00000d10:    10000054    T...    DCD    268435540
    $t
    i.am_devices_mspi_atxp032_enable_scrambling
    am_devices_mspi_atxp032_enable_scrambling
        0x00000d14:    b570        p.      PUSH     {r4-r6,lr}
        0x00000d16:    4604        .F      MOV      r4,r0
        0x00000d18:    4625        %F      MOV      r5,r4
        0x00000d1a:    6829        )h      LDR      r1,[r5,#0]
        0x00000d1c:    eb010181    ....    ADD      r1,r1,r1,LSL #2
        0x00000d20:    4b06        .K      LDR      r3,[pc,#24] ; [0xd3c] = 0x10000054
        0x00000d22:    eb030281    ....    ADD      r2,r3,r1,LSL #2
        0x00000d26:    2107        .!      MOVS     r1,#7
        0x00000d28:    6868        hh      LDR      r0,[r5,#4]
        0x00000d2a:    f001f9a3    ....    BL       am_hal_mspi_control ; 0x2074
        0x00000d2e:    4606        .F      MOV      r6,r0
        0x00000d30:    b10e        ..      CBZ      r6,0xd36 ; am_devices_mspi_atxp032_enable_scrambling + 34
        0x00000d32:    2001        .       MOVS     r0,#1
        0x00000d34:    bd70        p.      POP      {r4-r6,pc}
        0x00000d36:    2000        .       MOVS     r0,#0
        0x00000d38:    e7fc        ..      B        0xd34 ; am_devices_mspi_atxp032_enable_scrambling + 32
    $d
        0x00000d3a:    0000        ..      DCW    0
        0x00000d3c:    10000054    T...    DCD    268435540
    $t
    i.am_devices_mspi_atxp032_enable_xip
    am_devices_mspi_atxp032_enable_xip
        0x00000d40:    b570        p.      PUSH     {r4-r6,lr}
        0x00000d42:    4605        .F      MOV      r5,r0
        0x00000d44:    462c        ,F      MOV      r4,r5
        0x00000d46:    6821        !h      LDR      r1,[r4,#0]
        0x00000d48:    eb010181    ....    ADD      r1,r1,r1,LSL #2
        0x00000d4c:    4b11        .K      LDR      r3,[pc,#68] ; [0xd94] = 0x10000054
        0x00000d4e:    eb030281    ....    ADD      r2,r3,r1,LSL #2
        0x00000d52:    210b        .!      MOVS     r1,#0xb
        0x00000d54:    6860        `h      LDR      r0,[r4,#4]
        0x00000d56:    f001f98d    ....    BL       am_hal_mspi_control ; 0x2074
        0x00000d5a:    4606        .F      MOV      r6,r0
        0x00000d5c:    b10e        ..      CBZ      r6,0xd62 ; am_devices_mspi_atxp032_enable_xip + 34
        0x00000d5e:    2001        .       MOVS     r0,#1
        0x00000d60:    bd70        p.      POP      {r4-r6,pc}
        0x00000d62:    6821        !h      LDR      r1,[r4,#0]
        0x00000d64:    eb010181    ....    ADD      r1,r1,r1,LSL #2
        0x00000d68:    4b0a        .K      LDR      r3,[pc,#40] ; [0xd94] = 0x10000054
        0x00000d6a:    eb030281    ....    ADD      r2,r3,r1,LSL #2
        0x00000d6e:    210d        .!      MOVS     r1,#0xd
        0x00000d70:    6860        `h      LDR      r0,[r4,#4]
        0x00000d72:    f001f97f    ....    BL       am_hal_mspi_control ; 0x2074
        0x00000d76:    4606        .F      MOV      r6,r0
        0x00000d78:    b10e        ..      CBZ      r6,0xd7e ; am_devices_mspi_atxp032_enable_xip + 62
        0x00000d7a:    2001        .       MOVS     r0,#1
        0x00000d7c:    e7f0        ..      B        0xd60 ; am_devices_mspi_atxp032_enable_xip + 32
        0x00000d7e:    21c0        .!      MOVS     r1,#0xc0
        0x00000d80:    6860        `h      LDR      r0,[r4,#4]
        0x00000d82:    f002f881    ....    BL       am_hal_mspi_interrupt_disable ; 0x2e88
        0x00000d86:    4606        .F      MOV      r6,r0
        0x00000d88:    b10e        ..      CBZ      r6,0xd8e ; am_devices_mspi_atxp032_enable_xip + 78
        0x00000d8a:    2001        .       MOVS     r0,#1
        0x00000d8c:    e7e8        ..      B        0xd60 ; am_devices_mspi_atxp032_enable_xip + 32
        0x00000d8e:    2000        .       MOVS     r0,#0
        0x00000d90:    e7e6        ..      B        0xd60 ; am_devices_mspi_atxp032_enable_xip + 32
    $d
        0x00000d92:    0000        ..      DCW    0
        0x00000d94:    10000054    T...    DCD    268435540
    $t
    i.am_devices_mspi_atxp032_id
    am_devices_mspi_atxp032_id
        0x00000d98:    b570        p.      PUSH     {r4-r6,lr}
        0x00000d9a:    b086        ..      SUB      sp,sp,#0x18
        0x00000d9c:    4605        .F      MOV      r5,r0
        0x00000d9e:    200b        .       MOVS     r0,#0xb
        0x00000da0:    a903        ..      ADD      r1,sp,#0xc
        0x00000da2:    2300        .#      MOVS     r3,#0
        0x00000da4:    461a        .F      MOV      r2,r3
        0x00000da6:    e9cd1000    ....    STRD     r1,r0,[sp,#0]
        0x00000daa:    219f        .!      MOVS     r1,#0x9f
        0x00000dac:    4628        (F      MOV      r0,r5
        0x00000dae:    f7fffea1    ....    BL       am_devices_mspi_atxp032_command_read ; 0xaf4
        0x00000db2:    4606        .F      MOV      r6,r0
        0x00000db4:    f89d0013    ....    LDRB     r0,[sp,#0x13]
        0x00000db8:    0400        ..      LSLS     r0,r0,#16
        0x00000dba:    f89d1014    ....    LDRB     r1,[sp,#0x14]
        0x00000dbe:    ea402001    @..     ORR      r0,r0,r1,LSL #8
        0x00000dc2:    f89d1015    ....    LDRB     r1,[sp,#0x15]
        0x00000dc6:    ea400401    @...    ORR      r4,r0,r1
        0x00000dca:    4804        .H      LDR      r0,[pc,#16] ; [0xddc] = 0x43a700
        0x00000dcc:    4284        .B      CMP      r4,r0
        0x00000dce:    d103        ..      BNE      0xdd8 ; am_devices_mspi_atxp032_id + 64
        0x00000dd0:    b916        ..      CBNZ     r6,0xdd8 ; am_devices_mspi_atxp032_id + 64
        0x00000dd2:    2000        .       MOVS     r0,#0
        0x00000dd4:    b006        ..      ADD      sp,sp,#0x18
        0x00000dd6:    bd70        p.      POP      {r4-r6,pc}
        0x00000dd8:    2001        .       MOVS     r0,#1
        0x00000dda:    e7fb        ..      B        0xdd4 ; am_devices_mspi_atxp032_id + 60
    $d
        0x00000ddc:    0043a700    ..C.    DCD    4433664
    $t
    i.am_devices_mspi_atxp032_init
    am_devices_mspi_atxp032_init
        0x00000de0:    e92d47ff    -..G    PUSH     {r0-r10,lr}
        0x00000de4:    4680        .F      MOV      r8,r0
        0x00000de6:    460d        .F      MOV      r5,r1
        0x00000de8:    4691        .F      MOV      r9,r2
        0x00000dea:    469a        .F      MOV      r10,r3
        0x00000dec:    489b        .H      LDR      r0,[pc,#620] ; [0x105c] = 0x10000108
        0x00000dee:    6847        Gh      LDR      r7,[r0,#4]
        0x00000df0:    2400        .$      MOVS     r4,#0
        0x00000df2:    f1b80f03    ....    CMP      r8,#3
        0x00000df6:    d800        ..      BHI      0xdfa ; am_devices_mspi_atxp032_init + 26
        0x00000df8:    b91d        ..      CBNZ     r5,0xe02 ; am_devices_mspi_atxp032_init + 34
        0x00000dfa:    2001        .       MOVS     r0,#1
        0x00000dfc:    b004        ..      ADD      sp,sp,#0x10
        0x00000dfe:    e8bd87f0    ....    POP      {r4-r10,pc}
        0x00000e02:    2400        .$      MOVS     r4,#0
        0x00000e04:    e006        ..      B        0xe14 ; am_devices_mspi_atxp032_init + 52
        0x00000e06:    4896        .H      LDR      r0,[pc,#600] ; [0x1060] = 0x100056ac
        0x00000e08:    eb001044    ..D.    ADD      r0,r0,r4,LSL #5
        0x00000e0c:    7f00        ..      LDRB     r0,[r0,#0x1c]
        0x00000e0e:    b900        ..      CBNZ     r0,0xe12 ; am_devices_mspi_atxp032_init + 50
        0x00000e10:    e002        ..      B        0xe18 ; am_devices_mspi_atxp032_init + 56
        0x00000e12:    1c64        d.      ADDS     r4,r4,#1
        0x00000e14:    2c00        .,      CMP      r4,#0
        0x00000e16:    d0f6        ..      BEQ      0xe06 ; am_devices_mspi_atxp032_init + 38
        0x00000e18:    bf00        ..      NOP      
        0x00000e1a:    2c01        .,      CMP      r4,#1
        0x00000e1c:    d101        ..      BNE      0xe22 ; am_devices_mspi_atxp032_init + 66
        0x00000e1e:    2001        .       MOVS     r0,#1
        0x00000e20:    e7ec        ..      B        0xdfc ; am_devices_mspi_atxp032_init + 28
        0x00000e22:    2000        .       MOVS     r0,#0
        0x00000e24:    e00d        ..      B        0xe42 ; am_devices_mspi_atxp032_init + 98
        0x00000e26:    7829        )x      LDRB     r1,[r5,#0]
        0x00000e28:    4a8c        .J      LDR      r2,[pc,#560] ; [0x105c] = 0x10000108
        0x00000e2a:    f8122030    ..0     LDRB     r2,[r2,r0,LSL #3]
        0x00000e2e:    4291        .B      CMP      r1,r2
        0x00000e30:    d106        ..      BNE      0xe40 ; am_devices_mspi_atxp032_init + 96
        0x00000e32:    498a        .I      LDR      r1,[pc,#552] ; [0x105c] = 0x10000108
        0x00000e34:    eb0101c0    ....    ADD      r1,r1,r0,LSL #3
        0x00000e38:    684f        Oh      LDR      r7,[r1,#4]
        0x00000e3a:    7869        ix      LDRB     r1,[r5,#1]
        0x00000e3c:    7279        yr      STRB     r1,[r7,#9]
        0x00000e3e:    e002        ..      B        0xe46 ; am_devices_mspi_atxp032_init + 102
        0x00000e40:    1c40        @.      ADDS     r0,r0,#1
        0x00000e42:    2806        .(      CMP      r0,#6
        0x00000e44:    d3ef        ..      BCC      0xe26 ; am_devices_mspi_atxp032_init + 70
        0x00000e46:    bf00        ..      NOP      
        0x00000e48:    f000fe62    ..b.    BL       am_hal_fault_capture_enable ; 0x1b10
        0x00000e4c:    79b8        .y      LDRB     r0,[r7,#6]
        0x00000e4e:    2808        .(      CMP      r0,#8
        0x00000e50:    d270        p.      BCS      0xf34 ; am_devices_mspi_atxp032_init + 340
        0x00000e52:    e8dff000    ....    TBB      [pc,r0]
    $d
        0x00000e56:    4f04        .O      DCW    20228
        0x00000e58:    50059b9b    ...P    DCD    1342544795
        0x00000e5c:    5106        .Q      DCW    20742
    $t
        0x00000e5e:    bf00        ..      NOP      
        0x00000e60:    bf00        ..      NOP      
        0x00000e62:    497f        .I      LDR      r1,[pc,#508] ; [0x1060] = 0x100056ac
        0x00000e64:    eb011144    ..D.    ADD      r1,r1,r4,LSL #5
        0x00000e68:    f1010008    ....    ADD      r0,r1,#8
        0x00000e6c:    2214        ."      MOVS     r2,#0x14
        0x00000e6e:    497d        }I      LDR      r1,[pc,#500] ; [0x1064] = 0x10000090
        0x00000e70:    f7fffaac    ....    BL       __aeabi_memcpy ; 0x3cc
        0x00000e74:    a903        ..      ADD      r1,sp,#0xc
        0x00000e76:    4640        @F      MOV      r0,r8
        0x00000e78:    f001ffc0    ....    BL       am_hal_mspi_initialize ; 0x2dfc
        0x00000e7c:    b120         .      CBZ      r0,0xe88 ; am_devices_mspi_atxp032_init + 168
        0x00000e7e:    a07a        z.      ADR      r0,{pc}+0x1ea ; 0x1068
        0x00000e80:    f002ffca    ....    BL       am_util_stdio_printf ; 0x3e18
        0x00000e84:    2001        .       MOVS     r0,#1
        0x00000e86:    e7b9        ..      B        0xdfc ; am_devices_mspi_atxp032_init + 28
        0x00000e88:    2200        ."      MOVS     r2,#0
        0x00000e8a:    4611        .F      MOV      r1,r2
        0x00000e8c:    9803        ..      LDR      r0,[sp,#0xc]
        0x00000e8e:    f002fa53    ..S.    BL       am_hal_mspi_power_control ; 0x3338
        0x00000e92:    b120         .      CBZ      r0,0xe9e ; am_devices_mspi_atxp032_init + 190
        0x00000e94:    a07d        }.      ADR      r0,{pc}+0x1f8 ; 0x108c
        0x00000e96:    f002ffbf    ....    BL       am_util_stdio_printf ; 0x3e18
        0x00000e9a:    2001        .       MOVS     r0,#1
        0x00000e9c:    e7ae        ..      B        0xdfc ; am_devices_mspi_atxp032_init + 28
        0x00000e9e:    4a84        .J      LDR      r2,[pc,#528] ; [0x10b0] = 0x100056a0
        0x00000ea0:    ca07        ..      LDM      r2,{r0-r2}
        0x00000ea2:    e88d0007    ....    STM      sp,{r0-r2}
        0x00000ea6:    68a8        .h      LDR      r0,[r5,#8]
        0x00000ea8:    9000        ..      STR      r0,[sp,#0]
        0x00000eaa:    6868        hh      LDR      r0,[r5,#4]
        0x00000eac:    9001        ..      STR      r0,[sp,#4]
        0x00000eae:    4669        iF      MOV      r1,sp
        0x00000eb0:    9803        ..      LDR      r0,[sp,#0xc]
        0x00000eb2:    f001f899    ....    BL       am_hal_mspi_configure ; 0x1fe8
        0x00000eb6:    b120         .      CBZ      r0,0xec2 ; am_devices_mspi_atxp032_init + 226
        0x00000eb8:    a07e        ~.      ADR      r0,{pc}+0x1fc ; 0x10b4
        0x00000eba:    f002ffad    ....    BL       am_util_stdio_printf ; 0x3e18
        0x00000ebe:    2001        .       MOVS     r0,#1
        0x00000ec0:    e79c        ..      B        0xdfc ; am_devices_mspi_atxp032_init + 28
        0x00000ec2:    4968        hI      LDR      r1,[pc,#416] ; [0x1064] = 0x10000090
        0x00000ec4:    9803        ..      LDR      r0,[sp,#0xc]
        0x00000ec6:    f001fdd9    ....    BL       am_hal_mspi_device_configure ; 0x2a7c
        0x00000eca:    b120         .      CBZ      r0,0xed6 ; am_devices_mspi_atxp032_init + 246
        0x00000ecc:    a084        ..      ADR      r0,{pc}+0x214 ; 0x10e0
        0x00000ece:    f002ffa3    ....    BL       am_util_stdio_printf ; 0x3e18
        0x00000ed2:    2001        .       MOVS     r0,#1
        0x00000ed4:    e792        ..      B        0xdfc ; am_devices_mspi_atxp032_init + 28
        0x00000ed6:    9803        ..      LDR      r0,[sp,#0xc]
        0x00000ed8:    f001ff36    ..6.    BL       am_hal_mspi_enable ; 0x2d48
        0x00000edc:    b120         .      CBZ      r0,0xee8 ; am_devices_mspi_atxp032_init + 264
        0x00000ede:    a089        ..      ADR      r0,{pc}+0x226 ; 0x1104
        0x00000ee0:    f002ff9a    ....    BL       am_util_stdio_printf ; 0x3e18
        0x00000ee4:    2001        .       MOVS     r0,#1
        0x00000ee6:    e789        ..      B        0xdfc ; am_devices_mspi_atxp032_init + 28
        0x00000ee8:    485e        ^H      LDR      r0,[pc,#376] ; [0x1064] = 0x10000090
        0x00000eea:    7981        .y      LDRB     r1,[r0,#6]
        0x00000eec:    4640        @F      MOV      r0,r8
        0x00000eee:    f7fffb6d    ..m.    BL       am_bsp_mspi_pins_enable ; 0x5cc
        0x00000ef2:    e04d        M.      B        0xf90 ; am_devices_mspi_atxp032_init + 432
        0x00000ef4:    bf00        ..      NOP      
        0x00000ef6:    bf00        ..      NOP      
        0x00000ef8:    4959        YI      LDR      r1,[pc,#356] ; [0x1060] = 0x100056ac
        0x00000efa:    eb011144    ..D.    ADD      r1,r1,r4,LSL #5
        0x00000efe:    f1010008    ....    ADD      r0,r1,#8
        0x00000f02:    2214        ."      MOVS     r2,#0x14
        0x00000f04:    4987        .I      LDR      r1,[pc,#540] ; [0x1124] = 0x100000a4
        0x00000f06:    f7fffa61    ..a.    BL       __aeabi_memcpy ; 0x3cc
        0x00000f0a:    a903        ..      ADD      r1,sp,#0xc
        0x00000f0c:    4640        @F      MOV      r0,r8
        0x00000f0e:    f001ff75    ..u.    BL       am_hal_mspi_initialize ; 0x2dfc
        0x00000f12:    b120         .      CBZ      r0,0xf1e ; am_devices_mspi_atxp032_init + 318
        0x00000f14:    a054        T.      ADR      r0,{pc}+0x154 ; 0x1068
        0x00000f16:    f002ff7f    ....    BL       am_util_stdio_printf ; 0x3e18
        0x00000f1a:    2001        .       MOVS     r0,#1
        0x00000f1c:    e76e        n.      B        0xdfc ; am_devices_mspi_atxp032_init + 28
        0x00000f1e:    2200        ."      MOVS     r2,#0
        0x00000f20:    4611        .F      MOV      r1,r2
        0x00000f22:    9803        ..      LDR      r0,[sp,#0xc]
        0x00000f24:    f002fa08    ....    BL       am_hal_mspi_power_control ; 0x3338
        0x00000f28:    b128        (.      CBZ      r0,0xf36 ; am_devices_mspi_atxp032_init + 342
        0x00000f2a:    a058        X.      ADR      r0,{pc}+0x162 ; 0x108c
        0x00000f2c:    f002ff74    ..t.    BL       am_util_stdio_printf ; 0x3e18
        0x00000f30:    2001        .       MOVS     r0,#1
        0x00000f32:    e763        c.      B        0xdfc ; am_devices_mspi_atxp032_init + 28
        0x00000f34:    e02a        *.      B        0xf8c ; am_devices_mspi_atxp032_init + 428
        0x00000f36:    4a5e        ^J      LDR      r2,[pc,#376] ; [0x10b0] = 0x100056a0
        0x00000f38:    ca07        ..      LDM      r2,{r0-r2}
        0x00000f3a:    e88d0007    ....    STM      sp,{r0-r2}
        0x00000f3e:    68a8        .h      LDR      r0,[r5,#8]
        0x00000f40:    9000        ..      STR      r0,[sp,#0]
        0x00000f42:    6868        hh      LDR      r0,[r5,#4]
        0x00000f44:    9001        ..      STR      r0,[sp,#4]
        0x00000f46:    4669        iF      MOV      r1,sp
        0x00000f48:    9803        ..      LDR      r0,[sp,#0xc]
        0x00000f4a:    f001f84d    ..M.    BL       am_hal_mspi_configure ; 0x1fe8
        0x00000f4e:    b120         .      CBZ      r0,0xf5a ; am_devices_mspi_atxp032_init + 378
        0x00000f50:    a058        X.      ADR      r0,{pc}+0x164 ; 0x10b4
        0x00000f52:    f002ff61    ..a.    BL       am_util_stdio_printf ; 0x3e18
        0x00000f56:    2001        .       MOVS     r0,#1
        0x00000f58:    e750        P.      B        0xdfc ; am_devices_mspi_atxp032_init + 28
        0x00000f5a:    4972        rI      LDR      r1,[pc,#456] ; [0x1124] = 0x100000a4
        0x00000f5c:    9803        ..      LDR      r0,[sp,#0xc]
        0x00000f5e:    f001fd8d    ....    BL       am_hal_mspi_device_configure ; 0x2a7c
        0x00000f62:    b120         .      CBZ      r0,0xf6e ; am_devices_mspi_atxp032_init + 398
        0x00000f64:    a05e        ^.      ADR      r0,{pc}+0x17c ; 0x10e0
        0x00000f66:    f002ff57    ..W.    BL       am_util_stdio_printf ; 0x3e18
        0x00000f6a:    2001        .       MOVS     r0,#1
        0x00000f6c:    e746        F.      B        0xdfc ; am_devices_mspi_atxp032_init + 28
        0x00000f6e:    9803        ..      LDR      r0,[sp,#0xc]
        0x00000f70:    f001feea    ....    BL       am_hal_mspi_enable ; 0x2d48
        0x00000f74:    b120         .      CBZ      r0,0xf80 ; am_devices_mspi_atxp032_init + 416
        0x00000f76:    a063        c.      ADR      r0,{pc}+0x18e ; 0x1104
        0x00000f78:    f002ff4e    ..N.    BL       am_util_stdio_printf ; 0x3e18
        0x00000f7c:    2001        .       MOVS     r0,#1
        0x00000f7e:    e73d        =.      B        0xdfc ; am_devices_mspi_atxp032_init + 28
        0x00000f80:    4868        hH      LDR      r0,[pc,#416] ; [0x1124] = 0x100000a4
        0x00000f82:    7981        .y      LDRB     r1,[r0,#6]
        0x00000f84:    4640        @F      MOV      r0,r8
        0x00000f86:    f7fffb21    ..!.    BL       am_bsp_mspi_pins_enable ; 0x5cc
        0x00000f8a:    e001        ..      B        0xf90 ; am_devices_mspi_atxp032_init + 432
        0x00000f8c:    2001        .       MOVS     r0,#1
        0x00000f8e:    e735        5.      B        0xdfc ; am_devices_mspi_atxp032_init + 28
        0x00000f90:    bf00        ..      NOP      
        0x00000f92:    4933        3I      LDR      r1,[pc,#204] ; [0x1060] = 0x100056ac
        0x00000f94:    eb011144    ..D.    ADD      r1,r1,r4,LSL #5
        0x00000f98:    9803        ..      LDR      r0,[sp,#0xc]
        0x00000f9a:    6048        H`      STR      r0,[r1,#4]
        0x00000f9c:    4830        0H      LDR      r0,[pc,#192] ; [0x1060] = 0x100056ac
        0x00000f9e:    eb001044    ..D.    ADD      r0,r0,r4,LSL #5
        0x00000fa2:    f8c08000    ....    STR      r8,[r0,#0]
        0x00000fa6:    492e        .I      LDR      r1,[pc,#184] ; [0x1060] = 0x100056ac
        0x00000fa8:    eb011044    ..D.    ADD      r0,r1,r4,LSL #5
        0x00000fac:    f000f968    ..h.    BL       am_devices_mspi_atxp032_reset ; 0x1280
        0x00000fb0:    b108        ..      CBZ      r0,0xfb6 ; am_devices_mspi_atxp032_init + 470
        0x00000fb2:    2001        .       MOVS     r0,#1
        0x00000fb4:    e722        ".      B        0xdfc ; am_devices_mspi_atxp032_init + 28
        0x00000fb6:    492a        *I      LDR      r1,[pc,#168] ; [0x1060] = 0x100056ac
        0x00000fb8:    eb011144    ..D.    ADD      r1,r1,r4,LSL #5
        0x00000fbc:    f1010008    ....    ADD      r0,r1,#8
        0x00000fc0:    2214        ."      MOVS     r2,#0x14
        0x00000fc2:    4639        9F      MOV      r1,r7
        0x00000fc4:    f7fffa02    ....    BL       __aeabi_memcpy ; 0x3cc
        0x00000fc8:    4925        %I      LDR      r1,[pc,#148] ; [0x1060] = 0x100056ac
        0x00000fca:    eb011044    ..D.    ADD      r0,r1,r4,LSL #5
        0x00000fce:    f7fffd36    ..6.    BL       am_device_init_flash ; 0xa3e
        0x00000fd2:    4606        .F      MOV      r6,r0
        0x00000fd4:    b10e        ..      CBZ      r6,0xfda ; am_devices_mspi_atxp032_init + 506
        0x00000fd6:    2001        .       MOVS     r0,#1
        0x00000fd8:    e710        ..      B        0xdfc ; am_devices_mspi_atxp032_init + 28
        0x00000fda:    4921        !I      LDR      r1,[pc,#132] ; [0x1060] = 0x100056ac
        0x00000fdc:    eb011044    ..D.    ADD      r0,r1,r4,LSL #5
        0x00000fe0:    f7fffeae    ....    BL       am_devices_mspi_atxp032_enable_xip ; 0xd40
        0x00000fe4:    9803        ..      LDR      r0,[sp,#0xc]
        0x00000fe6:    f001fe79    ..y.    BL       am_hal_mspi_disable ; 0x2cdc
        0x00000fea:    4606        .F      MOV      r6,r0
        0x00000fec:    b10e        ..      CBZ      r6,0xff2 ; am_devices_mspi_atxp032_init + 530
        0x00000fee:    2001        .       MOVS     r0,#1
        0x00000ff0:    e704        ..      B        0xdfc ; am_devices_mspi_atxp032_init + 28
        0x00000ff2:    4639        9F      MOV      r1,r7
        0x00000ff4:    9803        ..      LDR      r0,[sp,#0xc]
        0x00000ff6:    f001fd41    ..A.    BL       am_hal_mspi_device_configure ; 0x2a7c
        0x00000ffa:    4606        .F      MOV      r6,r0
        0x00000ffc:    b10e        ..      CBZ      r6,0x1002 ; am_devices_mspi_atxp032_init + 546
        0x00000ffe:    2001        .       MOVS     r0,#1
        0x00001000:    e6fc        ..      B        0xdfc ; am_devices_mspi_atxp032_init + 28
        0x00001002:    9803        ..      LDR      r0,[sp,#0xc]
        0x00001004:    f001fea0    ....    BL       am_hal_mspi_enable ; 0x2d48
        0x00001008:    4606        .F      MOV      r6,r0
        0x0000100a:    b10e        ..      CBZ      r6,0x1010 ; am_devices_mspi_atxp032_init + 560
        0x0000100c:    2001        .       MOVS     r0,#1
        0x0000100e:    e6f5        ..      B        0xdfc ; am_devices_mspi_atxp032_init + 28
        0x00001010:    79b9        .y      LDRB     r1,[r7,#6]
        0x00001012:    4640        @F      MOV      r0,r8
        0x00001014:    f7fffada    ....    BL       am_bsp_mspi_pins_enable ; 0x5cc
        0x00001018:    f44f51d4    O..Q    MOV      r1,#0x1a80
        0x0000101c:    9803        ..      LDR      r0,[sp,#0xc]
        0x0000101e:    f001ff19    ....    BL       am_hal_mspi_interrupt_clear ; 0x2e54
        0x00001022:    4606        .F      MOV      r6,r0
        0x00001024:    b10e        ..      CBZ      r6,0x102a ; am_devices_mspi_atxp032_init + 586
        0x00001026:    2001        .       MOVS     r0,#1
        0x00001028:    e6e8        ..      B        0xdfc ; am_devices_mspi_atxp032_init + 28
        0x0000102a:    f44f51d4    O..Q    MOV      r1,#0x1a80
        0x0000102e:    9803        ..      LDR      r0,[sp,#0xc]
        0x00001030:    f001ff48    ..H.    BL       am_hal_mspi_interrupt_enable ; 0x2ec4
        0x00001034:    4606        .F      MOV      r6,r0
        0x00001036:    b10e        ..      CBZ      r6,0x103c ; am_devices_mspi_atxp032_init + 604
        0x00001038:    2001        .       MOVS     r0,#1
        0x0000103a:    e6df        ..      B        0xdfc ; am_devices_mspi_atxp032_init + 28
        0x0000103c:    2001        .       MOVS     r0,#1
        0x0000103e:    4908        .I      LDR      r1,[pc,#32] ; [0x1060] = 0x100056ac
        0x00001040:    eb011144    ..D.    ADD      r1,r1,r4,LSL #5
        0x00001044:    7708        .w      STRB     r0,[r1,#0x1c]
        0x00001046:    9803        ..      LDR      r0,[sp,#0xc]
        0x00001048:    f8ca0000    ....    STR      r0,[r10,#0]
        0x0000104c:    4804        .H      LDR      r0,[pc,#16] ; [0x1060] = 0x100056ac
        0x0000104e:    eb001044    ..D.    ADD      r0,r0,r4,LSL #5
        0x00001052:    f8c90000    ....    STR      r0,[r9,#0]
        0x00001056:    2000        .       MOVS     r0,#0
        0x00001058:    e6d0        ..      B        0xdfc ; am_devices_mspi_atxp032_init + 28
    $d
        0x0000105a:    0000        ..      DCW    0
        0x0000105c:    10000108    ....    DCD    268435720
        0x00001060:    100056ac    .V..    DCD    268457644
        0x00001064:    10000090    ....    DCD    268435600
        0x00001068:    6f727245    Erro    DCD    1869771333
        0x0000106c:    202d2072    r -     DCD    539828338
        0x00001070:    6c696146    Fail    DCD    1818845510
        0x00001074:    74206465    ed t    DCD    1948279909
        0x00001078:    6e69206f    o in    DCD    1852383343
        0x0000107c:    61697469    itia    DCD    1634301033
        0x00001080:    657a696c    lize    DCD    1702521196
        0x00001084:    50534d20     MSP    DCD    1347636512
        0x00001088:    000a2e49    I...    DCD    667209
        0x0000108c:    6f727245    Erro    DCD    1869771333
        0x00001090:    202d2072    r -     DCD    539828338
        0x00001094:    6c696146    Fail    DCD    1818845510
        0x00001098:    74206465    ed t    DCD    1948279909
        0x0000109c:    6f70206f    o po    DCD    1869619311
        0x000010a0:    20726577    wer     DCD    544367991
        0x000010a4:    4d206e6f    on M    DCD    1293971055
        0x000010a8:    2e495053    SPI.    DCD    776556627
        0x000010ac:    0000000a    ....    DCD    10
        0x000010b0:    100056a0    .V..    DCD    268457632
        0x000010b4:    6f727245    Erro    DCD    1869771333
        0x000010b8:    202d2072    r -     DCD    539828338
        0x000010bc:    6c696146    Fail    DCD    1818845510
        0x000010c0:    74206465    ed t    DCD    1948279909
        0x000010c4:    6f63206f    o co    DCD    1868767343
        0x000010c8:    6769666e    nfig    DCD    1734960750
        0x000010cc:    20657275    ure     DCD    543519349
        0x000010d0:    4950534d    MSPI    DCD    1230000973
        0x000010d4:    76656420     dev    DCD    1986356256
        0x000010d8:    2e656369    ice.    DCD    778396521
        0x000010dc:    0000000a    ....    DCD    10
        0x000010e0:    6f727245    Erro    DCD    1869771333
        0x000010e4:    202d2072    r -     DCD    539828338
        0x000010e8:    6c696146    Fail    DCD    1818845510
        0x000010ec:    74206465    ed t    DCD    1948279909
        0x000010f0:    6f63206f    o co    DCD    1868767343
        0x000010f4:    6769666e    nfig    DCD    1734960750
        0x000010f8:    20657275    ure     DCD    543519349
        0x000010fc:    4950534d    MSPI    DCD    1230000973
        0x00001100:    00000a2e    ....    DCD    2606
        0x00001104:    6f727245    Erro    DCD    1869771333
        0x00001108:    202d2072    r -     DCD    539828338
        0x0000110c:    6c696146    Fail    DCD    1818845510
        0x00001110:    74206465    ed t    DCD    1948279909
        0x00001114:    6e65206f    o en    DCD    1852121199
        0x00001118:    656c6261    able    DCD    1701601889
        0x0000111c:    50534d20     MSP    DCD    1347636512
        0x00001120:    000a2e49    I...    DCD    667209
        0x00001124:    100000a4    ....    DCD    268435620
    $t
    i.am_devices_mspi_atxp032_mass_erase
    am_devices_mspi_atxp032_mass_erase
        0x00001128:    b5f0        ..      PUSH     {r4-r7,lr}
        0x0000112a:    b0a3        ..      SUB      sp,sp,#0x8c
        0x0000112c:    4607        .F      MOV      r7,r0
        0x0000112e:    2500        .%      MOVS     r5,#0
        0x00001130:    2180        .!      MOVS     r1,#0x80
        0x00001132:    a803        ..      ADD      r0,sp,#0xc
        0x00001134:    f7fff98f    ....    BL       __aeabi_memclr4 ; 0x456
        0x00001138:    2000        .       MOVS     r0,#0
        0x0000113a:    a903        ..      ADD      r1,sp,#0xc
        0x0000113c:    4603        .F      MOV      r3,r0
        0x0000113e:    4602        .F      MOV      r2,r0
        0x00001140:    e9cd1000    ....    STRD     r1,r0,[sp,#0]
        0x00001144:    2106        .!      MOVS     r1,#6
        0x00001146:    4638        8F      MOV      r0,r7
        0x00001148:    f7fffd0a    ....    BL       am_devices_mspi_atxp032_command_write ; 0xb60
        0x0000114c:    4604        .F      MOV      r4,r0
        0x0000114e:    b114        ..      CBZ      r4,0x1156 ; am_devices_mspi_atxp032_mass_erase + 46
        0x00001150:    2001        .       MOVS     r0,#1
        0x00001152:    b023        #.      ADD      sp,sp,#0x8c
        0x00001154:    bdf0        ..      POP      {r4-r7,pc}
        0x00001156:    2000        .       MOVS     r0,#0
        0x00001158:    a903        ..      ADD      r1,sp,#0xc
        0x0000115a:    4603        .F      MOV      r3,r0
        0x0000115c:    4602        .F      MOV      r2,r0
        0x0000115e:    e9cd1000    ....    STRD     r1,r0,[sp,#0]
        0x00001162:    21c7        .!      MOVS     r1,#0xc7
        0x00001164:    4638        8F      MOV      r0,r7
        0x00001166:    f7fffcfb    ....    BL       am_devices_mspi_atxp032_command_write ; 0xb60
        0x0000116a:    4604        .F      MOV      r4,r0
        0x0000116c:    b10c        ..      CBZ      r4,0x1172 ; am_devices_mspi_atxp032_mass_erase + 74
        0x0000116e:    2001        .       MOVS     r0,#1
        0x00001170:    e7ef        ..      B        0x1152 ; am_devices_mspi_atxp032_mass_erase + 42
        0x00001172:    2600        .&      MOVS     r6,#0
        0x00001174:    e016        ..      B        0x11a4 ; am_devices_mspi_atxp032_mass_erase + 124
        0x00001176:    2000        .       MOVS     r0,#0
        0x00001178:    9003        ..      STR      r0,[sp,#0xc]
        0x0000117a:    2001        .       MOVS     r0,#1
        0x0000117c:    a903        ..      ADD      r1,sp,#0xc
        0x0000117e:    2300        .#      MOVS     r3,#0
        0x00001180:    461a        .F      MOV      r2,r3
        0x00001182:    e9cd1000    ....    STRD     r1,r0,[sp,#0]
        0x00001186:    2105        .!      MOVS     r1,#5
        0x00001188:    4638        8F      MOV      r0,r7
        0x0000118a:    f7fffcb3    ....    BL       am_devices_mspi_atxp032_command_read ; 0xaf4
        0x0000118e:    9803        ..      LDR      r0,[sp,#0xc]
        0x00001190:    f0000001    ....    AND      r0,r0,#1
        0x00001194:    f0800501    ....    EOR      r5,r0,#1
        0x00001198:    b105        ..      CBZ      r5,0x119c ; am_devices_mspi_atxp032_mass_erase + 116
        0x0000119a:    e006        ..      B        0x11aa ; am_devices_mspi_atxp032_mass_erase + 130
        0x0000119c:    200a        .       MOVS     r0,#0xa
        0x0000119e:    f002fbbb    ....    BL       am_util_delay_ms ; 0x3918
        0x000011a2:    1c76        v.      ADDS     r6,r6,#1
        0x000011a4:    480b        .H      LDR      r0,[pc,#44] ; [0x11d4] = 0xf4240
        0x000011a6:    4286        .B      CMP      r6,r0
        0x000011a8:    d3e5        ..      BCC      0x1176 ; am_devices_mspi_atxp032_mass_erase + 78
        0x000011aa:    bf00        ..      NOP      
        0x000011ac:    b90d        ..      CBNZ     r5,0x11b2 ; am_devices_mspi_atxp032_mass_erase + 138
        0x000011ae:    2001        .       MOVS     r0,#1
        0x000011b0:    e7cf        ..      B        0x1152 ; am_devices_mspi_atxp032_mass_erase + 42
        0x000011b2:    2000        .       MOVS     r0,#0
        0x000011b4:    a903        ..      ADD      r1,sp,#0xc
        0x000011b6:    4603        .F      MOV      r3,r0
        0x000011b8:    4602        .F      MOV      r2,r0
        0x000011ba:    e9cd1000    ....    STRD     r1,r0,[sp,#0]
        0x000011be:    2104        .!      MOVS     r1,#4
        0x000011c0:    4638        8F      MOV      r0,r7
        0x000011c2:    f7fffccd    ....    BL       am_devices_mspi_atxp032_command_write ; 0xb60
        0x000011c6:    4604        .F      MOV      r4,r0
        0x000011c8:    b10c        ..      CBZ      r4,0x11ce ; am_devices_mspi_atxp032_mass_erase + 166
        0x000011ca:    2001        .       MOVS     r0,#1
        0x000011cc:    e7c1        ..      B        0x1152 ; am_devices_mspi_atxp032_mass_erase + 42
        0x000011ce:    2000        .       MOVS     r0,#0
        0x000011d0:    e7bf        ..      B        0x1152 ; am_devices_mspi_atxp032_mass_erase + 42
    $d
        0x000011d2:    0000        ..      DCW    0
        0x000011d4:    000f4240    @B..    DCD    1000000
    $t
    i.am_devices_mspi_atxp032_read
    am_devices_mspi_atxp032_read
        0x000011d8:    e92d4ff0    -..O    PUSH     {r4-r11,lr}
        0x000011dc:    b089        ..      SUB      sp,sp,#0x24
        0x000011de:    4605        .F      MOV      r5,r0
        0x000011e0:    460e        .F      MOV      r6,r1
        0x000011e2:    4617        .F      MOV      r7,r2
        0x000011e4:    4698        .F      MOV      r8,r3
        0x000011e6:    f8ddb048    ..H.    LDR      r11,[sp,#0x48]
        0x000011ea:    46a9        .F      MOV      r9,r5
        0x000011ec:    2001        .       MOVS     r0,#1
        0x000011ee:    f88d000d    ....    STRB     r0,[sp,#0xd]
        0x000011f2:    2000        .       MOVS     r0,#0
        0x000011f4:    f88d000e    ....    STRB     r0,[sp,#0xe]
        0x000011f8:    f8cd8010    ....    STR      r8,[sp,#0x10]
        0x000011fc:    9705        ..      STR      r7,[sp,#0x14]
        0x000011fe:    9606        ..      STR      r6,[sp,#0x18]
        0x00001200:    9007        ..      STR      r0,[sp,#0x1c]
        0x00001202:    9008        ..      STR      r0,[sp,#0x20]
        0x00001204:    f88d000c    ....    STRB     r0,[sp,#0xc]
        0x00001208:    f1bb0f00    ....    CMP      r11,#0
        0x0000120c:    d025        %.      BEQ      0x125a ; am_devices_mspi_atxp032_read + 130
        0x0000120e:    9002        ..      STR      r0,[sp,#8]
        0x00001210:    a802        ..      ADD      r0,sp,#8
        0x00001212:    9000        ..      STR      r0,[sp,#0]
        0x00001214:    4b18        .K      LDR      r3,[pc,#96] ; [0x1278] = 0x56f7
        0x00001216:    2201        ."      MOVS     r2,#1
        0x00001218:    a903        ..      ADD      r1,sp,#0xc
        0x0000121a:    f8d90004    ....    LDR      r0,[r9,#4]
        0x0000121e:    f001ffd7    ....    BL       am_hal_mspi_nonblocking_transfer ; 0x31d0
        0x00001222:    4604        .F      MOV      r4,r0
        0x00001224:    b11c        ..      CBZ      r4,0x122e ; am_devices_mspi_atxp032_read + 86
        0x00001226:    2001        .       MOVS     r0,#1
        0x00001228:    b009        ..      ADD      sp,sp,#0x24
        0x0000122a:    e8bd8ff0    ....    POP      {r4-r11,pc}
        0x0000122e:    f04f0a00    O...    MOV      r10,#0
        0x00001232:    e008        ..      B        0x1246 ; am_devices_mspi_atxp032_read + 110
        0x00001234:    f89d0008    ....    LDRB     r0,[sp,#8]
        0x00001238:    b100        ..      CBZ      r0,0x123c ; am_devices_mspi_atxp032_read + 100
        0x0000123a:    e007        ..      B        0x124c ; am_devices_mspi_atxp032_read + 116
        0x0000123c:    2001        .       MOVS     r0,#1
        0x0000123e:    f002fb74    ..t.    BL       am_util_delay_us ; 0x392a
        0x00001242:    f10a0a01    ....    ADD      r10,r10,#1
        0x00001246:    480d        .H      LDR      r0,[pc,#52] ; [0x127c] = 0xf4240
        0x00001248:    4582        .E      CMP      r10,r0
        0x0000124a:    d3f3        ..      BCC      0x1234 ; am_devices_mspi_atxp032_read + 92
        0x0000124c:    bf00        ..      NOP      
        0x0000124e:    f89d0008    ....    LDRB     r0,[sp,#8]
        0x00001252:    b908        ..      CBNZ     r0,0x1258 ; am_devices_mspi_atxp032_read + 128
        0x00001254:    2001        .       MOVS     r0,#1
        0x00001256:    e7e7        ..      B        0x1228 ; am_devices_mspi_atxp032_read + 80
        0x00001258:    e00c        ..      B        0x1274 ; am_devices_mspi_atxp032_read + 156
        0x0000125a:    2000        .       MOVS     r0,#0
        0x0000125c:    9000        ..      STR      r0,[sp,#0]
        0x0000125e:    2300        .#      MOVS     r3,#0
        0x00001260:    2201        ."      MOVS     r2,#1
        0x00001262:    a903        ..      ADD      r1,sp,#0xc
        0x00001264:    f8d90004    ....    LDR      r0,[r9,#4]
        0x00001268:    f001ffb2    ....    BL       am_hal_mspi_nonblocking_transfer ; 0x31d0
        0x0000126c:    4604        .F      MOV      r4,r0
        0x0000126e:    b10c        ..      CBZ      r4,0x1274 ; am_devices_mspi_atxp032_read + 156
        0x00001270:    2001        .       MOVS     r0,#1
        0x00001272:    e7d9        ..      B        0x1228 ; am_devices_mspi_atxp032_read + 80
        0x00001274:    2000        .       MOVS     r0,#0
        0x00001276:    e7d7        ..      B        0x1228 ; am_devices_mspi_atxp032_read + 80
    $d
        0x00001278:    000056f7    .V..    DCD    22263
        0x0000127c:    000f4240    @B..    DCD    1000000
    $t
    i.am_devices_mspi_atxp032_reset
    am_devices_mspi_atxp032_reset
        0x00001280:    b510        ..      PUSH     {r4,lr}
        0x00001282:    b0a2        ..      SUB      sp,sp,#0x88
        0x00001284:    4604        .F      MOV      r4,r0
        0x00001286:    2180        .!      MOVS     r1,#0x80
        0x00001288:    a802        ..      ADD      r0,sp,#8
        0x0000128a:    f7fff8e4    ....    BL       __aeabi_memclr4 ; 0x456
        0x0000128e:    2000        .       MOVS     r0,#0
        0x00001290:    a902        ..      ADD      r1,sp,#8
        0x00001292:    4603        .F      MOV      r3,r0
        0x00001294:    4602        .F      MOV      r2,r0
        0x00001296:    e9cd1000    ....    STRD     r1,r0,[sp,#0]
        0x0000129a:    21ff        .!      MOVS     r1,#0xff
        0x0000129c:    4620         F      MOV      r0,r4
        0x0000129e:    f7fffc5f    .._.    BL       am_devices_mspi_atxp032_command_write ; 0xb60
        0x000012a2:    b110        ..      CBZ      r0,0x12aa ; am_devices_mspi_atxp032_reset + 42
        0x000012a4:    2001        .       MOVS     r0,#1
        0x000012a6:    b022        ".      ADD      sp,sp,#0x88
        0x000012a8:    bd10        ..      POP      {r4,pc}
        0x000012aa:    2000        .       MOVS     r0,#0
        0x000012ac:    e7fb        ..      B        0x12a6 ; am_devices_mspi_atxp032_reset + 38
        0x000012ae:    0000        ..      MOVS     r0,r0
    i.am_devices_mspi_atxp032_sector_erase
    am_devices_mspi_atxp032_sector_erase
        0x000012b0:    e92d43f0    -..C    PUSH     {r4-r9,lr}
        0x000012b4:    b0a3        ..      SUB      sp,sp,#0x8c
        0x000012b6:    4605        .F      MOV      r5,r0
        0x000012b8:    460e        .F      MOV      r6,r1
        0x000012ba:    2700        .'      MOVS     r7,#0
        0x000012bc:    46a9        .F      MOV      r9,r5
        0x000012be:    2180        .!      MOVS     r1,#0x80
        0x000012c0:    a803        ..      ADD      r0,sp,#0xc
        0x000012c2:    f7fff8c8    ....    BL       __aeabi_memclr4 ; 0x456
        0x000012c6:    2000        .       MOVS     r0,#0
        0x000012c8:    a903        ..      ADD      r1,sp,#0xc
        0x000012ca:    4603        .F      MOV      r3,r0
        0x000012cc:    4602        .F      MOV      r2,r0
        0x000012ce:    e9cd1000    ....    STRD     r1,r0,[sp,#0]
        0x000012d2:    2106        .!      MOVS     r1,#6
        0x000012d4:    4628        (F      MOV      r0,r5
        0x000012d6:    f7fffc43    ..C.    BL       am_devices_mspi_atxp032_command_write ; 0xb60
        0x000012da:    4604        .F      MOV      r4,r0
        0x000012dc:    b11c        ..      CBZ      r4,0x12e6 ; am_devices_mspi_atxp032_sector_erase + 54
        0x000012de:    2001        .       MOVS     r0,#1
        0x000012e0:    b023        #.      ADD      sp,sp,#0x8c
        0x000012e2:    e8bd83f0    ....    POP      {r4-r9,pc}
        0x000012e6:    2000        .       MOVS     r0,#0
        0x000012e8:    a903        ..      ADD      r1,sp,#0xc
        0x000012ea:    4633        3F      MOV      r3,r6
        0x000012ec:    2201        ."      MOVS     r2,#1
        0x000012ee:    e9cd1000    ....    STRD     r1,r0,[sp,#0]
        0x000012f2:    2139        9!      MOVS     r1,#0x39
        0x000012f4:    4628        (F      MOV      r0,r5
        0x000012f6:    f7fffc33    ..3.    BL       am_devices_mspi_atxp032_command_write ; 0xb60
        0x000012fa:    4604        .F      MOV      r4,r0
        0x000012fc:    b10c        ..      CBZ      r4,0x1302 ; am_devices_mspi_atxp032_sector_erase + 82
        0x000012fe:    2001        .       MOVS     r0,#1
        0x00001300:    e7ee        ..      B        0x12e0 ; am_devices_mspi_atxp032_sector_erase + 48
        0x00001302:    2000        .       MOVS     r0,#0
        0x00001304:    a903        ..      ADD      r1,sp,#0xc
        0x00001306:    4603        .F      MOV      r3,r0
        0x00001308:    4602        .F      MOV      r2,r0
        0x0000130a:    e9cd1000    ....    STRD     r1,r0,[sp,#0]
        0x0000130e:    2106        .!      MOVS     r1,#6
        0x00001310:    4628        (F      MOV      r0,r5
        0x00001312:    f7fffc25    ..%.    BL       am_devices_mspi_atxp032_command_write ; 0xb60
        0x00001316:    4604        .F      MOV      r4,r0
        0x00001318:    b10c        ..      CBZ      r4,0x131e ; am_devices_mspi_atxp032_sector_erase + 110
        0x0000131a:    2001        .       MOVS     r0,#1
        0x0000131c:    e7e0        ..      B        0x12e0 ; am_devices_mspi_atxp032_sector_erase + 48
        0x0000131e:    2000        .       MOVS     r0,#0
        0x00001320:    a903        ..      ADD      r1,sp,#0xc
        0x00001322:    4633        3F      MOV      r3,r6
        0x00001324:    2201        ."      MOVS     r2,#1
        0x00001326:    e9cd1000    ....    STRD     r1,r0,[sp,#0]
        0x0000132a:    21d8        .!      MOVS     r1,#0xd8
        0x0000132c:    4628        (F      MOV      r0,r5
        0x0000132e:    f7fffc17    ....    BL       am_devices_mspi_atxp032_command_write ; 0xb60
        0x00001332:    4604        .F      MOV      r4,r0
        0x00001334:    b10c        ..      CBZ      r4,0x133a ; am_devices_mspi_atxp032_sector_erase + 138
        0x00001336:    2001        .       MOVS     r0,#1
        0x00001338:    e7d2        ..      B        0x12e0 ; am_devices_mspi_atxp032_sector_erase + 48
        0x0000133a:    f04f0800    O...    MOV      r8,#0
        0x0000133e:    e046        F.      B        0x13ce ; am_devices_mspi_atxp032_sector_erase + 286
        0x00001340:    f899000e    ....    LDRB     r0,[r9,#0xe]
        0x00001344:    2808        .(      CMP      r0,#8
        0x00001346:    d238        8.      BCS      0x13ba ; am_devices_mspi_atxp032_sector_erase + 266
        0x00001348:    e8dff000    ....    TBB      [pc,r0]
    $d
        0x0000134c:    37370504    ..77    DCD    926352644
        0x00001350:    27261615    ..&'    DCD    656807445
    $t
        0x00001354:    bf00        ..      NOP      
        0x00001356:    2002        .       MOVS     r0,#2
        0x00001358:    a903        ..      ADD      r1,sp,#0xc
        0x0000135a:    2300        .#      MOVS     r3,#0
        0x0000135c:    461a        .F      MOV      r2,r3
        0x0000135e:    e9cd1000    ....    STRD     r1,r0,[sp,#0]
        0x00001362:    2105        .!      MOVS     r1,#5
        0x00001364:    4628        (F      MOV      r0,r5
        0x00001366:    f7fffbc5    ....    BL       am_devices_mspi_atxp032_command_read ; 0xaf4
        0x0000136a:    9803        ..      LDR      r0,[sp,#0xc]
        0x0000136c:    f0000001    ....    AND      r0,r0,#1
        0x00001370:    f0800701    ....    EOR      r7,r0,#1
        0x00001374:    e023        #.      B        0x13be ; am_devices_mspi_atxp032_sector_erase + 270
        0x00001376:    bf00        ..      NOP      
        0x00001378:    2004        .       MOVS     r0,#4
        0x0000137a:    a903        ..      ADD      r1,sp,#0xc
        0x0000137c:    2300        .#      MOVS     r3,#0
        0x0000137e:    461a        .F      MOV      r2,r3
        0x00001380:    e9cd1000    ....    STRD     r1,r0,[sp,#0]
        0x00001384:    2105        .!      MOVS     r1,#5
        0x00001386:    4628        (F      MOV      r0,r5
        0x00001388:    f7fffbb4    ....    BL       am_devices_mspi_atxp032_command_read ; 0xaf4
        0x0000138c:    9803        ..      LDR      r0,[sp,#0xc]
        0x0000138e:    f3c04000    ...@    UBFX     r0,r0,#16,#1
        0x00001392:    f0800701    ....    EOR      r7,r0,#1
        0x00001396:    e012        ..      B        0x13be ; am_devices_mspi_atxp032_sector_erase + 270
        0x00001398:    bf00        ..      NOP      
        0x0000139a:    2006        .       MOVS     r0,#6
        0x0000139c:    a903        ..      ADD      r1,sp,#0xc
        0x0000139e:    2300        .#      MOVS     r3,#0
        0x000013a0:    461a        .F      MOV      r2,r3
        0x000013a2:    e9cd1000    ....    STRD     r1,r0,[sp,#0]
        0x000013a6:    2105        .!      MOVS     r1,#5
        0x000013a8:    4628        (F      MOV      r0,r5
        0x000013aa:    f7fffba3    ....    BL       am_devices_mspi_atxp032_command_read ; 0xaf4
        0x000013ae:    9804        ..      LDR      r0,[sp,#0x10]
        0x000013b0:    f0000001    ....    AND      r0,r0,#1
        0x000013b4:    f0800701    ....    EOR      r7,r0,#1
        0x000013b8:    e001        ..      B        0x13be ; am_devices_mspi_atxp032_sector_erase + 270
        0x000013ba:    2001        .       MOVS     r0,#1
        0x000013bc:    e790        ..      B        0x12e0 ; am_devices_mspi_atxp032_sector_erase + 48
        0x000013be:    bf00        ..      NOP      
        0x000013c0:    b107        ..      CBZ      r7,0x13c4 ; am_devices_mspi_atxp032_sector_erase + 276
        0x000013c2:    e007        ..      B        0x13d4 ; am_devices_mspi_atxp032_sector_erase + 292
        0x000013c4:    200a        .       MOVS     r0,#0xa
        0x000013c6:    f002faa7    ....    BL       am_util_delay_ms ; 0x3918
        0x000013ca:    f1080801    ....    ADD      r8,r8,#1
        0x000013ce:    480b        .H      LDR      r0,[pc,#44] ; [0x13fc] = 0xf4240
        0x000013d0:    4580        .E      CMP      r8,r0
        0x000013d2:    d3b5        ..      BCC      0x1340 ; am_devices_mspi_atxp032_sector_erase + 144
        0x000013d4:    bf00        ..      NOP      
        0x000013d6:    b90f        ..      CBNZ     r7,0x13dc ; am_devices_mspi_atxp032_sector_erase + 300
        0x000013d8:    2001        .       MOVS     r0,#1
        0x000013da:    e781        ..      B        0x12e0 ; am_devices_mspi_atxp032_sector_erase + 48
        0x000013dc:    2000        .       MOVS     r0,#0
        0x000013de:    a903        ..      ADD      r1,sp,#0xc
        0x000013e0:    4603        .F      MOV      r3,r0
        0x000013e2:    4602        .F      MOV      r2,r0
        0x000013e4:    e9cd1000    ....    STRD     r1,r0,[sp,#0]
        0x000013e8:    2104        .!      MOVS     r1,#4
        0x000013ea:    4628        (F      MOV      r0,r5
        0x000013ec:    f7fffbb8    ....    BL       am_devices_mspi_atxp032_command_write ; 0xb60
        0x000013f0:    4604        .F      MOV      r4,r0
        0x000013f2:    b10c        ..      CBZ      r4,0x13f8 ; am_devices_mspi_atxp032_sector_erase + 328
        0x000013f4:    2001        .       MOVS     r0,#1
        0x000013f6:    e773        s.      B        0x12e0 ; am_devices_mspi_atxp032_sector_erase + 48
        0x000013f8:    2000        .       MOVS     r0,#0
        0x000013fa:    e771        q.      B        0x12e0 ; am_devices_mspi_atxp032_sector_erase + 48
    $d
        0x000013fc:    000f4240    @B..    DCD    1000000
    $t
    i.am_devices_mspi_atxp032_write
    am_devices_mspi_atxp032_write
        0x00001400:    e92d4fff    -..O    PUSH     {r0-r11,lr}
        0x00001404:    b0ab        ..      SUB      sp,sp,#0xac
        0x00001406:    4606        .F      MOV      r6,r0
        0x00001408:    460f        .F      MOV      r7,r1
        0x0000140a:    2000        .       MOVS     r0,#0
        0x0000140c:    9024        $.      STR      r0,[sp,#0x90]
        0x0000140e:    9c2e        ..      LDR      r4,[sp,#0xb8]
        0x00001410:    f8dd80b4    ....    LDR      r8,[sp,#0xb4]
        0x00001414:    46b9        .F      MOV      r9,r7
        0x00001416:    46b2        .F      MOV      r10,r6
        0x00001418:    2180        .!      MOVS     r1,#0x80
        0x0000141a:    a804        ..      ADD      r0,sp,#0x10
        0x0000141c:    f7fff81b    ....    BL       __aeabi_memclr4 ; 0x456
        0x00001420:    e0af        ..      B        0x1582 ; am_devices_mspi_atxp032_write + 386
        0x00001422:    2000        .       MOVS     r0,#0
        0x00001424:    a904        ..      ADD      r1,sp,#0x10
        0x00001426:    4603        .F      MOV      r3,r0
        0x00001428:    4602        .F      MOV      r2,r0
        0x0000142a:    e9cd1000    ....    STRD     r1,r0,[sp,#0]
        0x0000142e:    2106        .!      MOVS     r1,#6
        0x00001430:    4630        0F      MOV      r0,r6
        0x00001432:    f7fffb95    ....    BL       am_devices_mspi_atxp032_command_write ; 0xb60
        0x00001436:    4605        .F      MOV      r5,r0
        0x00001438:    b11d        ..      CBZ      r5,0x1442 ; am_devices_mspi_atxp032_write + 66
        0x0000143a:    2001        .       MOVS     r0,#1
        0x0000143c:    b02f        /.      ADD      sp,sp,#0xbc
        0x0000143e:    e8bd8ff0    ....    POP      {r4-r11,pc}
        0x00001442:    2001        .       MOVS     r0,#1
        0x00001444:    f88d0095    ....    STRB     r0,[sp,#0x95]
        0x00001448:    f88d0096    ....    STRB     r0,[sp,#0x96]
        0x0000144c:    f5b47f80    ....    CMP      r4,#0x100
        0x00001450:    d904        ..      BLS      0x145c ; am_devices_mspi_atxp032_write + 92
        0x00001452:    0200        ..      LSLS     r0,r0,#8
        0x00001454:    9026        &.      STR      r0,[sp,#0x98]
        0x00001456:    f5a47480    ...t    SUB      r4,r4,#0x100
        0x0000145a:    e001        ..      B        0x1460 ; am_devices_mspi_atxp032_write + 96
        0x0000145c:    9426        &.      STR      r4,[sp,#0x98]
        0x0000145e:    2400        .$      MOVS     r4,#0
        0x00001460:    f8cd809c    ....    STR      r8,[sp,#0x9c]
        0x00001464:    f5087880    ...x    ADD      r8,r8,#0x100
        0x00001468:    f8cd90a0    ....    STR      r9,[sp,#0xa0]
        0x0000146c:    f5097980    ...y    ADD      r9,r9,#0x100
        0x00001470:    2000        .       MOVS     r0,#0
        0x00001472:    9029        ).      STR      r0,[sp,#0xa4]
        0x00001474:    902a        *.      STR      r0,[sp,#0xa8]
        0x00001476:    f88d0094    ....    STRB     r0,[sp,#0x94]
        0x0000147a:    9003        ..      STR      r0,[sp,#0xc]
        0x0000147c:    a803        ..      ADD      r0,sp,#0xc
        0x0000147e:    9000        ..      STR      r0,[sp,#0]
        0x00001480:    4b42        BK      LDR      r3,[pc,#264] ; [0x158c] = 0x56f7
        0x00001482:    2201        ."      MOVS     r2,#1
        0x00001484:    a925        %.      ADD      r1,sp,#0x94
        0x00001486:    f8da0004    ....    LDR      r0,[r10,#4]
        0x0000148a:    f001fea1    ....    BL       am_hal_mspi_nonblocking_transfer ; 0x31d0
        0x0000148e:    4605        .F      MOV      r5,r0
        0x00001490:    b10d        ..      CBZ      r5,0x1496 ; am_devices_mspi_atxp032_write + 150
        0x00001492:    2001        .       MOVS     r0,#1
        0x00001494:    e7d2        ..      B        0x143c ; am_devices_mspi_atxp032_write + 60
        0x00001496:    f04f0b00    O...    MOV      r11,#0
        0x0000149a:    e008        ..      B        0x14ae ; am_devices_mspi_atxp032_write + 174
        0x0000149c:    f89d000c    ....    LDRB     r0,[sp,#0xc]
        0x000014a0:    b100        ..      CBZ      r0,0x14a4 ; am_devices_mspi_atxp032_write + 164
        0x000014a2:    e007        ..      B        0x14b4 ; am_devices_mspi_atxp032_write + 180
        0x000014a4:    2001        .       MOVS     r0,#1
        0x000014a6:    f002fa40    ..@.    BL       am_util_delay_us ; 0x392a
        0x000014aa:    f10b0b01    ....    ADD      r11,r11,#1
        0x000014ae:    4838        8H      LDR      r0,[pc,#224] ; [0x1590] = 0xf4240
        0x000014b0:    4583        .E      CMP      r11,r0
        0x000014b2:    d3f3        ..      BCC      0x149c ; am_devices_mspi_atxp032_write + 156
        0x000014b4:    bf00        ..      NOP      
        0x000014b6:    f89d000c    ....    LDRB     r0,[sp,#0xc]
        0x000014ba:    b908        ..      CBNZ     r0,0x14c0 ; am_devices_mspi_atxp032_write + 192
        0x000014bc:    2001        .       MOVS     r0,#1
        0x000014be:    e7bd        ..      B        0x143c ; am_devices_mspi_atxp032_write + 60
        0x000014c0:    f04f0b00    O...    MOV      r11,#0
        0x000014c4:    e04a        J.      B        0x155c ; am_devices_mspi_atxp032_write + 348
        0x000014c6:    f89a000e    ....    LDRB     r0,[r10,#0xe]
        0x000014ca:    2808        .(      CMP      r0,#8
        0x000014cc:    d23b        ;.      BCS      0x1546 ; am_devices_mspi_atxp032_write + 326
        0x000014ce:    e8dff000    ....    TBB      [pc,r0]
    $d
        0x000014d2:    0504        ..      DCW    1284
        0x000014d4:    17163a3a    ::..    DCD    387332666
        0x000014d8:    2928        ()      DCW    10536
    $t
        0x000014da:    bf00        ..      NOP      
        0x000014dc:    2002        .       MOVS     r0,#2
        0x000014de:    a904        ..      ADD      r1,sp,#0x10
        0x000014e0:    2300        .#      MOVS     r3,#0
        0x000014e2:    461a        .F      MOV      r2,r3
        0x000014e4:    e9cd1000    ....    STRD     r1,r0,[sp,#0]
        0x000014e8:    2105        .!      MOVS     r1,#5
        0x000014ea:    4630        0F      MOV      r0,r6
        0x000014ec:    f7fffb02    ....    BL       am_devices_mspi_atxp032_command_read ; 0xaf4
        0x000014f0:    9804        ..      LDR      r0,[sp,#0x10]
        0x000014f2:    f0000001    ....    AND      r0,r0,#1
        0x000014f6:    f0800001    ....    EOR      r0,r0,#1
        0x000014fa:    9024        $.      STR      r0,[sp,#0x90]
        0x000014fc:    e025        %.      B        0x154a ; am_devices_mspi_atxp032_write + 330
        0x000014fe:    bf00        ..      NOP      
        0x00001500:    2004        .       MOVS     r0,#4
        0x00001502:    a904        ..      ADD      r1,sp,#0x10
        0x00001504:    2300        .#      MOVS     r3,#0
        0x00001506:    461a        .F      MOV      r2,r3
        0x00001508:    e9cd1000    ....    STRD     r1,r0,[sp,#0]
        0x0000150c:    2105        .!      MOVS     r1,#5
        0x0000150e:    4630        0F      MOV      r0,r6
        0x00001510:    f7fffaf0    ....    BL       am_devices_mspi_atxp032_command_read ; 0xaf4
        0x00001514:    9804        ..      LDR      r0,[sp,#0x10]
        0x00001516:    f3c04000    ...@    UBFX     r0,r0,#16,#1
        0x0000151a:    f0800001    ....    EOR      r0,r0,#1
        0x0000151e:    9024        $.      STR      r0,[sp,#0x90]
        0x00001520:    e013        ..      B        0x154a ; am_devices_mspi_atxp032_write + 330
        0x00001522:    bf00        ..      NOP      
        0x00001524:    2006        .       MOVS     r0,#6
        0x00001526:    a904        ..      ADD      r1,sp,#0x10
        0x00001528:    2300        .#      MOVS     r3,#0
        0x0000152a:    461a        .F      MOV      r2,r3
        0x0000152c:    e9cd1000    ....    STRD     r1,r0,[sp,#0]
        0x00001530:    2105        .!      MOVS     r1,#5
        0x00001532:    4630        0F      MOV      r0,r6
        0x00001534:    f7fffade    ....    BL       am_devices_mspi_atxp032_command_read ; 0xaf4
        0x00001538:    9805        ..      LDR      r0,[sp,#0x14]
        0x0000153a:    f0000001    ....    AND      r0,r0,#1
        0x0000153e:    f0800001    ....    EOR      r0,r0,#1
        0x00001542:    9024        $.      STR      r0,[sp,#0x90]
        0x00001544:    e001        ..      B        0x154a ; am_devices_mspi_atxp032_write + 330
        0x00001546:    2001        .       MOVS     r0,#1
        0x00001548:    e778        x.      B        0x143c ; am_devices_mspi_atxp032_write + 60
        0x0000154a:    bf00        ..      NOP      
        0x0000154c:    2064        d       MOVS     r0,#0x64
        0x0000154e:    f002f9ec    ....    BL       am_util_delay_us ; 0x392a
        0x00001552:    9824        $.      LDR      r0,[sp,#0x90]
        0x00001554:    b100        ..      CBZ      r0,0x1558 ; am_devices_mspi_atxp032_write + 344
        0x00001556:    e004        ..      B        0x1562 ; am_devices_mspi_atxp032_write + 354
        0x00001558:    f10b0b01    ....    ADD      r11,r11,#1
        0x0000155c:    480c        .H      LDR      r0,[pc,#48] ; [0x1590] = 0xf4240
        0x0000155e:    4583        .E      CMP      r11,r0
        0x00001560:    d3b1        ..      BCC      0x14c6 ; am_devices_mspi_atxp032_write + 198
        0x00001562:    bf00        ..      NOP      
        0x00001564:    2000        .       MOVS     r0,#0
        0x00001566:    a904        ..      ADD      r1,sp,#0x10
        0x00001568:    4603        .F      MOV      r3,r0
        0x0000156a:    4602        .F      MOV      r2,r0
        0x0000156c:    e9cd1000    ....    STRD     r1,r0,[sp,#0]
        0x00001570:    2104        .!      MOVS     r1,#4
        0x00001572:    4630        0F      MOV      r0,r6
        0x00001574:    f7fffaf4    ....    BL       am_devices_mspi_atxp032_command_write ; 0xb60
        0x00001578:    4605        .F      MOV      r5,r0
        0x0000157a:    b10d        ..      CBZ      r5,0x1580 ; am_devices_mspi_atxp032_write + 384
        0x0000157c:    2001        .       MOVS     r0,#1
        0x0000157e:    e75d        ].      B        0x143c ; am_devices_mspi_atxp032_write + 60
        0x00001580:    bf00        ..      NOP      
        0x00001582:    2c00        .,      CMP      r4,#0
        0x00001584:    f47faf4d    ..M.    BNE      0x1422 ; am_devices_mspi_atxp032_write + 34
        0x00001588:    2000        .       MOVS     r0,#0
        0x0000158a:    e757        W.      B        0x143c ; am_devices_mspi_atxp032_write + 60
    $d
        0x0000158c:    000056f7    .V..    DCD    22263
        0x00001590:    000f4240    @B..    DCD    1000000
    $t
    i.am_hal_cmdq_alloc_block
    am_hal_cmdq_alloc_block
        0x00001594:    b5f8        ..      PUSH     {r3-r7,lr}
        0x00001596:    461e        .F      MOV      r6,r3
        0x00001598:    4617        .F      MOV      r7,r2
        0x0000159a:    460d        .F      MOV      r5,r1
        0x0000159c:    1e04        ..      SUBS     r4,r0,#0
        0x0000159e:    bf1c        ..      ITT      NE
        0x000015a0:    6820         h      LDRNE    r0,[r4,#0]
        0x000015a2:    f0107f80    ....    TSTNE    r0,#0x1000000
        0x000015a6:    d004        ..      BEQ      0x15b2 ; am_hal_cmdq_alloc_block + 30
        0x000015a8:    492c        ,I      LDR      r1,[pc,#176] ; [0x165c] = 0xcdcdcd
        0x000015aa:    f020407f     ..@    BIC      r0,r0,#0xff000000
        0x000015ae:    4288        .B      CMP      r0,r1
        0x000015b0:    d001        ..      BEQ      0x15b6 ; am_hal_cmdq_alloc_block + 34
        0x000015b2:    2002        .       MOVS     r0,#2
        0x000015b4:    bdf8        ..      POP      {r3-r7,pc}
        0x000015b6:    2f00        ./      CMP      r7,#0
        0x000015b8:    bf12        ..      ITEE     NE
        0x000015ba:    2e00        ..      CMPNE    r6,#0
        0x000015bc:    2006        .       MOVEQ    r0,#6
        0x000015be:    bdf8        ..      POPEQ    {r3-r7,pc}
        0x000015c0:    e9d40104    ....    LDRD     r0,r1,[r4,#0x10]
        0x000015c4:    4288        .B      CMP      r0,r1
        0x000015c6:    bf1c        ..      ITT      NE
        0x000015c8:    2007        .       MOVNE    r0,#7
        0x000015ca:    bdf8        ..      POPNE    {r3-r7,pc}
        0x000015cc:    f7fefeea    ....    BL       am_hal_interrupt_master_disable ; 0x3a4
        0x000015d0:    9000        ..      STR      r0,[sp,#0]
        0x000015d2:    6a60        `j      LDR      r0,[r4,#0x24]
        0x000015d4:    6880        .h      LDR      r0,[r0,#8]
        0x000015d6:    6800        .h      LDR      r0,[r0,#0]
        0x000015d8:    6a21        !j      LDR      r1,[r4,#0x20]
        0x000015da:    b2c0        ..      UXTB     r0,r0
        0x000015dc:    f02101ff    !...    BIC      r1,r1,#0xff
        0x000015e0:    4308        .C      ORRS     r0,r0,r1
        0x000015e2:    61e0        .a      STR      r0,[r4,#0x1c]
        0x000015e4:    6a21        !j      LDR      r1,[r4,#0x20]
        0x000015e6:    1a09        ..      SUBS     r1,r1,r0
        0x000015e8:    bf44        D.      ITT      MI
        0x000015ea:    f5a07080    ...p    SUBMI    r0,r0,#0x100
        0x000015ee:    61e0        .a      STRMI    r0,[r4,#0x1c]
        0x000015f0:    6a60        `j      LDR      r0,[r4,#0x24]
        0x000015f2:    6840        @h      LDR      r0,[r0,#4]
        0x000015f4:    6800        .h      LDR      r0,[r0,#0]
        0x000015f6:    60e0        .`      STR      r0,[r4,#0xc]
        0x000015f8:    9800        ..      LDR      r0,[sp,#0]
        0x000015fa:    f7fefed7    ....    BL       am_hal_interrupt_master_set ; 0x3ac
        0x000015fe:    e9d40107    ....    LDRD     r0,r1,[r4,#0x1c]
        0x00001602:    1a40        @.      SUBS     r0,r0,r1
        0x00001604:    f1100ffe    ....    CMN      r0,#0xfe
        0x00001608:    d41c        ..      BMI      0x1644 ; am_hal_cmdq_alloc_block + 176
        0x0000160a:    e9d42003    ...     LDRD     r2,r0,[r4,#0xc]
        0x0000160e:    2108        .!      MOVS     r1,#8
        0x00001610:    eb0101c5    ....    ADD      r1,r1,r5,LSL #3
        0x00001614:    4290        .B      CMP      r0,r2
        0x00001616:    d312        ..      BCC      0x163e ; am_hal_cmdq_alloc_block + 170
        0x00001618:    2310        .#      MOVS     r3,#0x10
        0x0000161a:    eb0303c5    ....    ADD      r3,r3,r5,LSL #3
        0x0000161e:    f8d4c008    ....    LDR      r12,[r4,#8]
        0x00001622:    4403        .D      ADD      r3,r3,r0
        0x00001624:    4563        cE      CMP      r3,r12
        0x00001626:    d90f        ..      BLS      0x1648 ; am_hal_cmdq_alloc_block + 180
        0x00001628:    6863        ch      LDR      r3,[r4,#4]
        0x0000162a:    4419        .D      ADD      r1,r1,r3
        0x0000162c:    428a        .B      CMP      r2,r1
        0x0000162e:    d909        ..      BLS      0x1644 ; am_hal_cmdq_alloc_block + 176
        0x00001630:    6a61        aj      LDR      r1,[r4,#0x24]
        0x00001632:    6849        Ih      LDR      r1,[r1,#4]
        0x00001634:    6001        .`      STR      r1,[r0,#0]
        0x00001636:    6861        ah      LDR      r1,[r4,#4]
        0x00001638:    6041        A`      STR      r1,[r0,#4]
        0x0000163a:    6860        `h      LDR      r0,[r4,#4]
        0x0000163c:    e004        ..      B        0x1648 ; am_hal_cmdq_alloc_block + 180
        0x0000163e:    4401        .D      ADD      r1,r1,r0
        0x00001640:    4291        .B      CMP      r1,r2
        0x00001642:    d301        ..      BCC      0x1648 ; am_hal_cmdq_alloc_block + 180
        0x00001644:    2005        .       MOVS     r0,#5
        0x00001646:    bdf8        ..      POP      {r3-r7,pc}
        0x00001648:    6038        8`      STR      r0,[r7,#0]
        0x0000164a:    6a21        !j      LDR      r1,[r4,#0x20]
        0x0000164c:    eb0000c5    ....    ADD      r0,r0,r5,LSL #3
        0x00001650:    1c49        I.      ADDS     r1,r1,#1
        0x00001652:    6221        !b      STR      r1,[r4,#0x20]
        0x00001654:    6031        1`      STR      r1,[r6,#0]
        0x00001656:    6160        `a      STR      r0,[r4,#0x14]
        0x00001658:    2000        .       MOVS     r0,#0
        0x0000165a:    bdf8        ..      POP      {r3-r7,pc}
    $d
        0x0000165c:    00cdcdcd    ....    DCD    13487565
    $t
    i.am_hal_cmdq_disable
    am_hal_cmdq_disable
        0x00001660:    2800        .(      CMP      r0,#0
        0x00001662:    bf1c        ..      ITT      NE
        0x00001664:    6801        .h      LDRNE    r1,[r0,#0]
        0x00001666:    f0117f80    ....    TSTNE    r1,#0x1000000
        0x0000166a:    d004        ..      BEQ      0x1676 ; am_hal_cmdq_disable + 22
        0x0000166c:    4b0b        .K      LDR      r3,[pc,#44] ; [0x169c] = 0xcdcdcd
        0x0000166e:    f021427f    !..B    BIC      r2,r1,#0xff000000
        0x00001672:    429a        .B      CMP      r2,r3
        0x00001674:    d001        ..      BEQ      0x167a ; am_hal_cmdq_disable + 26
        0x00001676:    2002        .       MOVS     r0,#2
        0x00001678:    4770        pG      BX       lr
        0x0000167a:    f0117f00    ....    TST      r1,#0x2000000
        0x0000167e:    bf04        ..      ITT      EQ
        0x00001680:    2000        .       MOVEQ    r0,#0
        0x00001682:    4770        pG      BXEQ     lr
        0x00001684:    6a41        Aj      LDR      r1,[r0,#0x24]
        0x00001686:    6809        .h      LDR      r1,[r1,#0]
        0x00001688:    680a        .h      LDR      r2,[r1,#0]
        0x0000168a:    f0220201    "...    BIC      r2,r2,#1
        0x0000168e:    600a        .`      STR      r2,[r1,#0]
        0x00001690:    6801        .h      LDR      r1,[r0,#0]
        0x00001692:    f0217100    !..q    BIC      r1,r1,#0x2000000
        0x00001696:    6001        .`      STR      r1,[r0,#0]
        0x00001698:    2000        .       MOVS     r0,#0
        0x0000169a:    4770        pG      BX       lr
    $d
        0x0000169c:    00cdcdcd    ....    DCD    13487565
    $t
    i.am_hal_cmdq_enable
    am_hal_cmdq_enable
        0x000016a0:    2800        .(      CMP      r0,#0
        0x000016a2:    bf1c        ..      ITT      NE
        0x000016a4:    6801        .h      LDRNE    r1,[r0,#0]
        0x000016a6:    f0117f80    ....    TSTNE    r1,#0x1000000
        0x000016aa:    d004        ..      BEQ      0x16b6 ; am_hal_cmdq_enable + 22
        0x000016ac:    4b0b        .K      LDR      r3,[pc,#44] ; [0x16dc] = 0xcdcdcd
        0x000016ae:    f021427f    !..B    BIC      r2,r1,#0xff000000
        0x000016b2:    429a        .B      CMP      r2,r3
        0x000016b4:    d001        ..      BEQ      0x16ba ; am_hal_cmdq_enable + 26
        0x000016b6:    2002        .       MOVS     r0,#2
        0x000016b8:    4770        pG      BX       lr
        0x000016ba:    f0117f00    ....    TST      r1,#0x2000000
        0x000016be:    bf1c        ..      ITT      NE
        0x000016c0:    2000        .       MOVNE    r0,#0
        0x000016c2:    4770        pG      BXNE     lr
        0x000016c4:    6a41        Aj      LDR      r1,[r0,#0x24]
        0x000016c6:    6809        .h      LDR      r1,[r1,#0]
        0x000016c8:    680a        .h      LDR      r2,[r1,#0]
        0x000016ca:    f0420201    B...    ORR      r2,r2,#1
        0x000016ce:    600a        .`      STR      r2,[r1,#0]
        0x000016d0:    6801        .h      LDR      r1,[r0,#0]
        0x000016d2:    f0417100    A..q    ORR      r1,r1,#0x2000000
        0x000016d6:    6001        .`      STR      r1,[r0,#0]
        0x000016d8:    2000        .       MOVS     r0,#0
        0x000016da:    4770        pG      BX       lr
    $d
        0x000016dc:    00cdcdcd    ....    DCD    13487565
    $t
    i.am_hal_cmdq_error_resume
    am_hal_cmdq_error_resume
        0x000016e0:    2800        .(      CMP      r0,#0
        0x000016e2:    bf1c        ..      ITT      NE
        0x000016e4:    6801        .h      LDRNE    r1,[r0,#0]
        0x000016e6:    f0117f80    ....    TSTNE    r1,#0x1000000
        0x000016ea:    d004        ..      BEQ      0x16f6 ; am_hal_cmdq_error_resume + 22
        0x000016ec:    4b18        .K      LDR      r3,[pc,#96] ; [0x1750] = 0xcdcdcd
        0x000016ee:    f021427f    !..B    BIC      r2,r1,#0xff000000
        0x000016f2:    429a        .B      CMP      r2,r3
        0x000016f4:    d001        ..      BEQ      0x16fa ; am_hal_cmdq_error_resume + 26
        0x000016f6:    2002        .       MOVS     r0,#2
        0x000016f8:    4770        pG      BX       lr
        0x000016fa:    f0117f00    ....    TST      r1,#0x2000000
        0x000016fe:    bf04        ..      ITT      EQ
        0x00001700:    2000        .       MOVEQ    r0,#0
        0x00001702:    4770        pG      BXEQ     lr
        0x00001704:    6a41        Aj      LDR      r1,[r0,#0x24]
        0x00001706:    6809        .h      LDR      r1,[r1,#0]
        0x00001708:    680a        .h      LDR      r2,[r1,#0]
        0x0000170a:    f0220201    "...    BIC      r2,r2,#1
        0x0000170e:    600a        .`      STR      r2,[r1,#0]
        0x00001710:    6a42        Bj      LDR      r2,[r0,#0x24]
        0x00001712:    6853        Sh      LDR      r3,[r2,#4]
        0x00001714:    6819        .h      LDR      r1,[r3,#0]
        0x00001716:    6892        .h      LDR      r2,[r2,#8]
        0x00001718:    f8d1c000    ....    LDR      r12,[r1,#0]
        0x0000171c:    f02c0c01    ,...    BIC      r12,r12,#1
        0x00001720:    4594        .E      CMP      r12,r2
        0x00001722:    d00b        ..      BEQ      0x173c ; am_hal_cmdq_error_resume + 92
        0x00001724:    f8d1c000    ....    LDR      r12,[r1,#0]
        0x00001728:    459c        .E      CMP      r12,r3
        0x0000172a:    bf0c        ..      ITE      EQ
        0x0000172c:    6849        Ih      LDREQ    r1,[r1,#4]
        0x0000172e:    3108        .1      ADDNE    r1,r1,#8
        0x00001730:    f8d1c000    ....    LDR      r12,[r1,#0]
        0x00001734:    f02c0c01    ,...    BIC      r12,r12,#1
        0x00001738:    4594        .E      CMP      r12,r2
        0x0000173a:    d1f3        ..      BNE      0x1724 ; am_hal_cmdq_error_resume + 68
        0x0000173c:    600a        .`      STR      r2,[r1,#0]
        0x0000173e:    6a42        Bj      LDR      r2,[r0,#0x24]
        0x00001740:    6852        Rh      LDR      r2,[r2,#4]
        0x00001742:    6011        .`      STR      r1,[r2,#0]
        0x00001744:    6801        .h      LDR      r1,[r0,#0]
        0x00001746:    f0217100    !..q    BIC      r1,r1,#0x2000000
        0x0000174a:    6001        .`      STR      r1,[r0,#0]
        0x0000174c:    2000        .       MOVS     r0,#0
        0x0000174e:    4770        pG      BX       lr
    $d
        0x00001750:    00cdcdcd    ....    DCD    13487565
    $t
    i.am_hal_cmdq_get_status
    am_hal_cmdq_get_status
        0x00001754:    b538        8.      PUSH     {r3-r5,lr}
        0x00001756:    460d        .F      MOV      r5,r1
        0x00001758:    1e04        ..      SUBS     r4,r0,#0
        0x0000175a:    bf1c        ..      ITT      NE
        0x0000175c:    6820         h      LDRNE    r0,[r4,#0]
        0x0000175e:    f0107f80    ....    TSTNE    r0,#0x1000000
        0x00001762:    d004        ..      BEQ      0x176e ; am_hal_cmdq_get_status + 26
        0x00001764:    4923        #I      LDR      r1,[pc,#140] ; [0x17f4] = 0xcdcdcd
        0x00001766:    f020407f     ..@    BIC      r0,r0,#0xff000000
        0x0000176a:    4288        .B      CMP      r0,r1
        0x0000176c:    d001        ..      BEQ      0x1772 ; am_hal_cmdq_get_status + 30
        0x0000176e:    2002        .       MOVS     r0,#2
        0x00001770:    bd38        8.      POP      {r3-r5,pc}
        0x00001772:    2d00        .-      CMP      r5,#0
        0x00001774:    bf04        ..      ITT      EQ
        0x00001776:    2006        .       MOVEQ    r0,#6
        0x00001778:    bd38        8.      POPEQ    {r3-r5,pc}
        0x0000177a:    f7fefe13    ....    BL       am_hal_interrupt_master_disable ; 0x3a4
        0x0000177e:    9000        ..      STR      r0,[sp,#0]
        0x00001780:    6a60        `j      LDR      r0,[r4,#0x24]
        0x00001782:    6880        .h      LDR      r0,[r0,#8]
        0x00001784:    6800        .h      LDR      r0,[r0,#0]
        0x00001786:    6a21        !j      LDR      r1,[r4,#0x20]
        0x00001788:    b2c0        ..      UXTB     r0,r0
        0x0000178a:    f02101ff    !...    BIC      r1,r1,#0xff
        0x0000178e:    4308        .C      ORRS     r0,r0,r1
        0x00001790:    61e0        .a      STR      r0,[r4,#0x1c]
        0x00001792:    6a21        !j      LDR      r1,[r4,#0x20]
        0x00001794:    1a09        ..      SUBS     r1,r1,r0
        0x00001796:    bf44        D.      ITT      MI
        0x00001798:    f5a07080    ...p    SUBMI    r0,r0,#0x100
        0x0000179c:    61e0        .a      STRMI    r0,[r4,#0x1c]
        0x0000179e:    6a60        `j      LDR      r0,[r4,#0x24]
        0x000017a0:    6840        @h      LDR      r0,[r0,#4]
        0x000017a2:    6800        .h      LDR      r0,[r0,#0]
        0x000017a4:    60e0        .`      STR      r0,[r4,#0xc]
        0x000017a6:    9800        ..      LDR      r0,[sp,#0]
        0x000017a8:    f7fefe00    ....    BL       am_hal_interrupt_master_set ; 0x3ac
        0x000017ac:    69e0        .i      LDR      r0,[r4,#0x1c]
        0x000017ae:    6028        (`      STR      r0,[r5,#0]
        0x000017b0:    6a20         j      LDR      r0,[r4,#0x20]
        0x000017b2:    60a8        .`      STR      r0,[r5,#8]
        0x000017b4:    e9d40104    ....    LDRD     r0,r1,[r4,#0x10]
        0x000017b8:    4281        .B      CMP      r1,r0
        0x000017ba:    bf14        ..      ITE      NE
        0x000017bc:    2001        .       MOVNE    r0,#1
        0x000017be:    2000        .       MOVEQ    r0,#0
        0x000017c0:    6a21        !j      LDR      r1,[r4,#0x20]
        0x000017c2:    1a08        ..      SUBS     r0,r1,r0
        0x000017c4:    6068        h`      STR      r0,[r5,#4]
        0x000017c6:    6a61        aj      LDR      r1,[r4,#0x24]
        0x000017c8:    6988        .i      LDR      r0,[r1,#0x18]
        0x000017ca:    6800        .h      LDR      r0,[r0,#0]
        0x000017cc:    69c9        .i      LDR      r1,[r1,#0x1c]
        0x000017ce:    4001        .@      ANDS     r1,r1,r0
        0x000017d0:    bf18        ..      IT       NE
        0x000017d2:    2101        .!      MOVNE    r1,#1
        0x000017d4:    7329        )s      STRB     r1,[r5,#0xc]
        0x000017d6:    6a61        aj      LDR      r1,[r4,#0x24]
        0x000017d8:    6a49        Ij      LDR      r1,[r1,#0x24]
        0x000017da:    4001        .@      ANDS     r1,r1,r0
        0x000017dc:    bf18        ..      IT       NE
        0x000017de:    2101        .!      MOVNE    r1,#1
        0x000017e0:    7369        is      STRB     r1,[r5,#0xd]
        0x000017e2:    6a61        aj      LDR      r1,[r4,#0x24]
        0x000017e4:    6a09        .j      LDR      r1,[r1,#0x20]
        0x000017e6:    4008        .@      ANDS     r0,r0,r1
        0x000017e8:    bf18        ..      IT       NE
        0x000017ea:    2001        .       MOVNE    r0,#1
        0x000017ec:    73a8        .s      STRB     r0,[r5,#0xe]
        0x000017ee:    2000        .       MOVS     r0,#0
        0x000017f0:    bd38        8.      POP      {r3-r5,pc}
    $d
        0x000017f2:    0000        ..      DCW    0
        0x000017f4:    00cdcdcd    ....    DCD    13487565
    $t
    i.am_hal_cmdq_init
    am_hal_cmdq_init
        0x000017f8:    280b        .(      CMP      r0,#0xb
        0x000017fa:    bf24        $.      ITT      CS
        0x000017fc:    2005        .       MOVCS    r0,#5
        0x000017fe:    4770        pG      BXCS     lr
        0x00001800:    2900        .)      CMP      r1,#0
        0x00001802:    bf1e        ..      ITTT     NE
        0x00001804:    684b        Kh      LDRNE    r3,[r1,#4]
        0x00001806:    2b00        .+      CMPNE    r3,#0
        0x00001808:    2a00        .*      CMPNE    r2,#0
        0x0000180a:    d004        ..      BEQ      0x1816 ; am_hal_cmdq_init + 30
        0x0000180c:    f8d1c000    ....    LDR      r12,[r1,#0]
        0x00001810:    f1bc0f02    ....    CMP      r12,#2
        0x00001814:    d201        ..      BCS      0x181a ; am_hal_cmdq_init + 34
        0x00001816:    2006        .       MOVS     r0,#6
        0x00001818:    4770        pG      BX       lr
        0x0000181a:    b430        0.      PUSH     {r4,r5}
        0x0000181c:    eb000340    ..@.    ADD      r3,r0,r0,LSL #1
        0x00001820:    4c2e        .L      LDR      r4,[pc,#184] ; [0x18dc] = 0x10007124
        0x00001822:    eb0303c0    ....    ADD      r3,r3,r0,LSL #3
        0x00001826:    f8545023    T.#P    LDR      r5,[r4,r3,LSL #2]
        0x0000182a:    f0157f80    ....    TST      r5,#0x1000000
        0x0000182e:    bf1e        ..      ITTT     NE
        0x00001830:    2007        .       MOVNE    r0,#7
        0x00001832:    bc30        0.      POPNE    {r4,r5}
        0x00001834:    4770        pG      BXNE     lr
        0x00001836:    eb040383    ....    ADD      r3,r4,r3,LSL #2
        0x0000183a:    ea4f0ccc    O...    LSL      r12,r12,#3
        0x0000183e:    f8c3c018    ....    STR      r12,[r3,#0x18]
        0x00001842:    f8d1c004    ....    LDR      r12,[r1,#4]
        0x00001846:    f8c3c004    ....    STR      r12,[r3,#4]
        0x0000184a:    f8c3c00c    ....    STR      r12,[r3,#0xc]
        0x0000184e:    f8c3c014    ....    STR      r12,[r3,#0x14]
        0x00001852:    f8c3c010    ....    STR      r12,[r3,#0x10]
        0x00001856:    e9d14c00    ...L    LDRD     r4,r12,[r1,#0]
        0x0000185a:    eb0c0cc4    ....    ADD      r12,r12,r4,LSL #3
        0x0000185e:    f8c3c008    ....    STR      r12,[r3,#8]
        0x00001862:    f8d3c000    ....    LDR      r12,[r3,#0]
        0x00001866:    4c1e        .L      LDR      r4,[pc,#120] ; [0x18e0] = 0xcdcdcd
        0x00001868:    f02c7c00    ,..|    BIC      r12,r12,#0x2000000
        0x0000186c:    f04c7c80    L..|    ORR      r12,r12,#0x1000000
        0x00001870:    f3640c17    d...    BFI      r12,r4,#0,#24
        0x00001874:    f8c3c000    ....    STR      r12,[r3,#0]
        0x00001878:    f8dfc068    ..h.    LDR      r12,[pc,#104] ; [0x18e4] = 0x5b10
        0x0000187c:    eb000080    ....    ADD      r0,r0,r0,LSL #2
        0x00001880:    eb0c00c0    ....    ADD      r0,r12,r0,LSL #3
        0x00001884:    6258        Xb      STR      r0,[r3,#0x24]
        0x00001886:    2000        .       MOVS     r0,#0
        0x00001888:    61d8        .a      STR      r0,[r3,#0x1c]
        0x0000188a:    6218        .b      STR      r0,[r3,#0x20]
        0x0000188c:    f8d3c024    ..$.    LDR      r12,[r3,#0x24]
        0x00001890:    f8dcc008    ....    LDR      r12,[r12,#8]
        0x00001894:    f8cc0000    ....    STR      r0,[r12,#0]
        0x00001898:    f8d3c024    ..$.    LDR      r12,[r3,#0x24]
        0x0000189c:    f8dcc00c    ....    LDR      r12,[r12,#0xc]
        0x000018a0:    f8cc0000    ....    STR      r0,[r12,#0]
        0x000018a4:    6a58        Xj      LDR      r0,[r3,#0x24]
        0x000018a6:    f8d0c010    ....    LDR      r12,[r0,#0x10]
        0x000018aa:    f8dc4000    ...@    LDR      r4,[r12,#0]
        0x000018ae:    6940        @i      LDR      r0,[r0,#0x14]
        0x000018b0:    4320         C      ORRS     r0,r0,r4
        0x000018b2:    f8cc0000    ....    STR      r0,[r12,#0]
        0x000018b6:    f8d3c024    ..$.    LDR      r12,[r3,#0x24]
        0x000018ba:    6848        Hh      LDR      r0,[r1,#4]
        0x000018bc:    f8dcc004    ....    LDR      r12,[r12,#4]
        0x000018c0:    f8cc0000    ....    STR      r0,[r12,#0]
        0x000018c4:    7a08        .z      LDRB     r0,[r1,#8]
        0x000018c6:    2102        .!      MOVS     r1,#2
        0x000018c8:    ea010040    ..@.    AND      r0,r1,r0,LSL #1
        0x000018cc:    6a59        Yj      LDR      r1,[r3,#0x24]
        0x000018ce:    6809        .h      LDR      r1,[r1,#0]
        0x000018d0:    6008        .`      STR      r0,[r1,#0]
        0x000018d2:    6013        .`      STR      r3,[r2,#0]
        0x000018d4:    bc30        0.      POP      {r4,r5}
        0x000018d6:    2000        .       MOVS     r0,#0
        0x000018d8:    4770        pG      BX       lr
    $d
        0x000018da:    0000        ..      DCW    0
        0x000018dc:    10007124    $q..    DCD    268464420
        0x000018e0:    00cdcdcd    ....    DCD    13487565
        0x000018e4:    00005b10    .[..    DCD    23312
    $t
    i.am_hal_cmdq_post_block
    am_hal_cmdq_post_block
        0x000018e8:    2800        .(      CMP      r0,#0
        0x000018ea:    bf1c        ..      ITT      NE
        0x000018ec:    6802        .h      LDRNE    r2,[r0,#0]
        0x000018ee:    f0127f80    ....    TSTNE    r2,#0x1000000
        0x000018f2:    d004        ..      BEQ      0x18fe ; am_hal_cmdq_post_block + 22
        0x000018f4:    4b0e        .K      LDR      r3,[pc,#56] ; [0x1930] = 0xcdcdcd
        0x000018f6:    f022427f    "..B    BIC      r2,r2,#0xff000000
        0x000018fa:    429a        .B      CMP      r2,r3
        0x000018fc:    d001        ..      BEQ      0x1902 ; am_hal_cmdq_post_block + 26
        0x000018fe:    2002        .       MOVS     r0,#2
        0x00001900:    4770        pG      BX       lr
        0x00001902:    e9d03204    ...2    LDRD     r3,r2,[r0,#0x10]
        0x00001906:    4293        .B      CMP      r3,r2
        0x00001908:    bf04        ..      ITT      EQ
        0x0000190a:    2007        .       MOVEQ    r0,#7
        0x0000190c:    4770        pG      BXEQ     lr
        0x0000190e:    6a43        Cj      LDR      r3,[r0,#0x24]
        0x00001910:    689b        .h      LDR      r3,[r3,#8]
        0x00001912:    4319        .C      ORRS     r1,r1,r3
        0x00001914:    6011        .`      STR      r1,[r2,#0]
        0x00001916:    6a01        .j      LDR      r1,[r0,#0x20]
        0x00001918:    6051        Q`      STR      r1,[r2,#4]
        0x0000191a:    f1020108    ....    ADD      r1,r2,#8
        0x0000191e:    6141        Aa      STR      r1,[r0,#0x14]
        0x00001920:    6101        .a      STR      r1,[r0,#0x10]
        0x00001922:    f8901020    .. .    LDRB     r1,[r0,#0x20]
        0x00001926:    6a40        @j      LDR      r0,[r0,#0x24]
        0x00001928:    68c0        .h      LDR      r0,[r0,#0xc]
        0x0000192a:    6001        .`      STR      r1,[r0,#0]
        0x0000192c:    2000        .       MOVS     r0,#0
        0x0000192e:    4770        pG      BX       lr
    $d
        0x00001930:    00cdcdcd    ....    DCD    13487565
    $t
    i.am_hal_cmdq_post_loop_block
    am_hal_cmdq_post_loop_block
        0x00001934:    2800        .(      CMP      r0,#0
        0x00001936:    bf1c        ..      ITT      NE
        0x00001938:    6802        .h      LDRNE    r2,[r0,#0]
        0x0000193a:    f0127f80    ....    TSTNE    r2,#0x1000000
        0x0000193e:    d004        ..      BEQ      0x194a ; am_hal_cmdq_post_loop_block + 22
        0x00001940:    4b12        .K      LDR      r3,[pc,#72] ; [0x198c] = 0xcdcdcd
        0x00001942:    f022427f    "..B    BIC      r2,r2,#0xff000000
        0x00001946:    429a        .B      CMP      r2,r3
        0x00001948:    d001        ..      BEQ      0x194e ; am_hal_cmdq_post_loop_block + 26
        0x0000194a:    2002        .       MOVS     r0,#2
        0x0000194c:    4770        pG      BX       lr
        0x0000194e:    e9d03204    ...2    LDRD     r3,r2,[r0,#0x10]
        0x00001952:    4293        .B      CMP      r3,r2
        0x00001954:    bf04        ..      ITT      EQ
        0x00001956:    2007        .       MOVEQ    r0,#7
        0x00001958:    4770        pG      BXEQ     lr
        0x0000195a:    6a43        Cj      LDR      r3,[r0,#0x24]
        0x0000195c:    689b        .h      LDR      r3,[r3,#8]
        0x0000195e:    f8423b04    B..;    STR      r3,[r2],#4
        0x00001962:    2300        .#      MOVS     r3,#0
        0x00001964:    f8423b04    B..;    STR      r3,[r2],#4
        0x00001968:    6a43        Cj      LDR      r3,[r0,#0x24]
        0x0000196a:    685b        [h      LDR      r3,[r3,#4]
        0x0000196c:    4319        .C      ORRS     r1,r1,r3
        0x0000196e:    6011        .`      STR      r1,[r2,#0]
        0x00001970:    6841        Ah      LDR      r1,[r0,#4]
        0x00001972:    6051        Q`      STR      r1,[r2,#4]
        0x00001974:    f1020108    ....    ADD      r1,r2,#8
        0x00001978:    6141        Aa      STR      r1,[r0,#0x14]
        0x0000197a:    6101        .a      STR      r1,[r0,#0x10]
        0x0000197c:    f8901020    .. .    LDRB     r1,[r0,#0x20]
        0x00001980:    6a40        @j      LDR      r0,[r0,#0x24]
        0x00001982:    68c0        .h      LDR      r0,[r0,#0xc]
        0x00001984:    6001        .`      STR      r1,[r0,#0]
        0x00001986:    2000        .       MOVS     r0,#0
        0x00001988:    4770        pG      BX       lr
    $d
        0x0000198a:    0000        ..      DCW    0
        0x0000198c:    00cdcdcd    ....    DCD    13487565
    $t
    i.am_hal_cmdq_release_block
    am_hal_cmdq_release_block
        0x00001990:    2800        .(      CMP      r0,#0
        0x00001992:    bf1c        ..      ITT      NE
        0x00001994:    6801        .h      LDRNE    r1,[r0,#0]
        0x00001996:    f0117f80    ....    TSTNE    r1,#0x1000000
        0x0000199a:    d004        ..      BEQ      0x19a6 ; am_hal_cmdq_release_block + 22
        0x0000199c:    4a09        .J      LDR      r2,[pc,#36] ; [0x19c4] = 0xcdcdcd
        0x0000199e:    f021417f    !..A    BIC      r1,r1,#0xff000000
        0x000019a2:    4291        .B      CMP      r1,r2
        0x000019a4:    d001        ..      BEQ      0x19aa ; am_hal_cmdq_release_block + 26
        0x000019a6:    2002        .       MOVS     r0,#2
        0x000019a8:    4770        pG      BX       lr
        0x000019aa:    e9d01204    ....    LDRD     r1,r2,[r0,#0x10]
        0x000019ae:    4291        .B      CMP      r1,r2
        0x000019b0:    bf04        ..      ITT      EQ
        0x000019b2:    2007        .       MOVEQ    r0,#7
        0x000019b4:    4770        pG      BXEQ     lr
        0x000019b6:    6141        Aa      STR      r1,[r0,#0x14]
        0x000019b8:    6a01        .j      LDR      r1,[r0,#0x20]
        0x000019ba:    1e49        I.      SUBS     r1,r1,#1
        0x000019bc:    6201        .b      STR      r1,[r0,#0x20]
        0x000019be:    2000        .       MOVS     r0,#0
        0x000019c0:    4770        pG      BX       lr
    $d
        0x000019c2:    0000        ..      DCW    0
        0x000019c4:    00cdcdcd    ....    DCD    13487565
    $t
    i.am_hal_cmdq_reset
    am_hal_cmdq_reset
        0x000019c8:    2800        .(      CMP      r0,#0
        0x000019ca:    bf1c        ..      ITT      NE
        0x000019cc:    6801        .h      LDRNE    r1,[r0,#0]
        0x000019ce:    f0117f80    ....    TSTNE    r1,#0x1000000
        0x000019d2:    d004        ..      BEQ      0x19de ; am_hal_cmdq_reset + 22
        0x000019d4:    4b14        .K      LDR      r3,[pc,#80] ; [0x1a28] = 0xcdcdcd
        0x000019d6:    f021427f    !..B    BIC      r2,r1,#0xff000000
        0x000019da:    429a        .B      CMP      r2,r3
        0x000019dc:    d001        ..      BEQ      0x19e2 ; am_hal_cmdq_reset + 26
        0x000019de:    2002        .       MOVS     r0,#2
        0x000019e0:    4770        pG      BX       lr
        0x000019e2:    f0117f00    ....    TST      r1,#0x2000000
        0x000019e6:    bf1c        ..      ITT      NE
        0x000019e8:    2007        .       MOVNE    r0,#7
        0x000019ea:    4770        pG      BXNE     lr
        0x000019ec:    6a41        Aj      LDR      r1,[r0,#0x24]
        0x000019ee:    6809        .h      LDR      r1,[r1,#0]
        0x000019f0:    680a        .h      LDR      r2,[r1,#0]
        0x000019f2:    f0220201    "...    BIC      r2,r2,#1
        0x000019f6:    600a        .`      STR      r2,[r1,#0]
        0x000019f8:    6841        Ah      LDR      r1,[r0,#4]
        0x000019fa:    60c1        .`      STR      r1,[r0,#0xc]
        0x000019fc:    6141        Aa      STR      r1,[r0,#0x14]
        0x000019fe:    6101        .a      STR      r1,[r0,#0x10]
        0x00001a00:    2100        .!      MOVS     r1,#0
        0x00001a02:    61c1        .a      STR      r1,[r0,#0x1c]
        0x00001a04:    6201        .b      STR      r1,[r0,#0x20]
        0x00001a06:    6a42        Bj      LDR      r2,[r0,#0x24]
        0x00001a08:    6892        .h      LDR      r2,[r2,#8]
        0x00001a0a:    6011        .`      STR      r1,[r2,#0]
        0x00001a0c:    6a42        Bj      LDR      r2,[r0,#0x24]
        0x00001a0e:    68d2        .h      LDR      r2,[r2,#0xc]
        0x00001a10:    6011        .`      STR      r1,[r2,#0]
        0x00001a12:    6a42        Bj      LDR      r2,[r0,#0x24]
        0x00001a14:    6841        Ah      LDR      r1,[r0,#4]
        0x00001a16:    6852        Rh      LDR      r2,[r2,#4]
        0x00001a18:    6011        .`      STR      r1,[r2,#0]
        0x00001a1a:    6801        .h      LDR      r1,[r0,#0]
        0x00001a1c:    f0217100    !..q    BIC      r1,r1,#0x2000000
        0x00001a20:    6001        .`      STR      r1,[r0,#0]
        0x00001a22:    2000        .       MOVS     r0,#0
        0x00001a24:    4770        pG      BX       lr
    $d
        0x00001a26:    0000        ..      DCW    0
        0x00001a28:    00cdcdcd    ....    DCD    13487565
    $t
    i.am_hal_cmdq_term
    am_hal_cmdq_term
        0x00001a2c:    b538        8.      PUSH     {r3-r5,lr}
        0x00001a2e:    460d        .F      MOV      r5,r1
        0x00001a30:    1e04        ..      SUBS     r4,r0,#0
        0x00001a32:    bf1c        ..      ITT      NE
        0x00001a34:    6820         h      LDRNE    r0,[r4,#0]
        0x00001a36:    f0107f80    ....    TSTNE    r0,#0x1000000
        0x00001a3a:    d004        ..      BEQ      0x1a46 ; am_hal_cmdq_term + 26
        0x00001a3c:    491c        .I      LDR      r1,[pc,#112] ; [0x1ab0] = 0xcdcdcd
        0x00001a3e:    f020407f     ..@    BIC      r0,r0,#0xff000000
        0x00001a42:    4288        .B      CMP      r0,r1
        0x00001a44:    d001        ..      BEQ      0x1a4a ; am_hal_cmdq_term + 30
        0x00001a46:    2002        .       MOVS     r0,#2
        0x00001a48:    bd38        8.      POP      {r3-r5,pc}
        0x00001a4a:    f7fefcab    ....    BL       am_hal_interrupt_master_disable ; 0x3a4
        0x00001a4e:    9000        ..      STR      r0,[sp,#0]
        0x00001a50:    6a60        `j      LDR      r0,[r4,#0x24]
        0x00001a52:    6880        .h      LDR      r0,[r0,#8]
        0x00001a54:    6800        .h      LDR      r0,[r0,#0]
        0x00001a56:    6a21        !j      LDR      r1,[r4,#0x20]
        0x00001a58:    b2c0        ..      UXTB     r0,r0
        0x00001a5a:    f02101ff    !...    BIC      r1,r1,#0xff
        0x00001a5e:    4308        .C      ORRS     r0,r0,r1
        0x00001a60:    61e0        .a      STR      r0,[r4,#0x1c]
        0x00001a62:    6a21        !j      LDR      r1,[r4,#0x20]
        0x00001a64:    1a09        ..      SUBS     r1,r1,r0
        0x00001a66:    bf44        D.      ITT      MI
        0x00001a68:    f5a07080    ...p    SUBMI    r0,r0,#0x100
        0x00001a6c:    61e0        .a      STRMI    r0,[r4,#0x1c]
        0x00001a6e:    6a60        `j      LDR      r0,[r4,#0x24]
        0x00001a70:    6840        @h      LDR      r0,[r0,#4]
        0x00001a72:    6800        .h      LDR      r0,[r0,#0]
        0x00001a74:    60e0        .`      STR      r0,[r4,#0xc]
        0x00001a76:    9800        ..      LDR      r0,[sp,#0]
        0x00001a78:    f7fefc98    ....    BL       am_hal_interrupt_master_set ; 0x3ac
        0x00001a7c:    b92d        -.      CBNZ     r5,0x1a8a ; am_hal_cmdq_term + 94
        0x00001a7e:    e9d40107    ....    LDRD     r0,r1,[r4,#0x1c]
        0x00001a82:    4288        .B      CMP      r0,r1
        0x00001a84:    bf1c        ..      ITT      NE
        0x00001a86:    2003        .       MOVNE    r0,#3
        0x00001a88:    bd38        8.      POPNE    {r3-r5,pc}
        0x00001a8a:    6820         h      LDR      r0,[r4,#0]
        0x00001a8c:    f0207080     ..p    BIC      r0,r0,#0x1000000
        0x00001a90:    6020         `      STR      r0,[r4,#0]
        0x00001a92:    6a60        `j      LDR      r0,[r4,#0x24]
        0x00001a94:    6800        .h      LDR      r0,[r0,#0]
        0x00001a96:    6801        .h      LDR      r1,[r0,#0]
        0x00001a98:    f0210101    !...    BIC      r1,r1,#1
        0x00001a9c:    6001        .`      STR      r1,[r0,#0]
        0x00001a9e:    6a60        `j      LDR      r0,[r4,#0x24]
        0x00001aa0:    6901        .i      LDR      r1,[r0,#0x10]
        0x00001aa2:    680a        .h      LDR      r2,[r1,#0]
        0x00001aa4:    6940        @i      LDR      r0,[r0,#0x14]
        0x00001aa6:    ea220000    "...    BIC      r0,r2,r0
        0x00001aaa:    6008        .`      STR      r0,[r1,#0]
        0x00001aac:    2000        .       MOVS     r0,#0
        0x00001aae:    bd38        8.      POP      {r3-r5,pc}
    $d
        0x00001ab0:    00cdcdcd    ....    DCD    13487565
    $t
    i.am_hal_delay_us
    am_hal_delay_us
        0x00001ab4:    0140        @.      LSLS     r0,r0,#5
        0x00001ab6:    280b        .(      CMP      r0,#0xb
        0x00001ab8:    bf98        ..      IT       LS
        0x00001aba:    4770        pG      BXLS     lr
        0x00001abc:    4901        .I      LDR      r1,[pc,#4] ; [0x1ac4] = 0x5ae8
        0x00001abe:    380b        .8      SUBS     r0,r0,#0xb
        0x00001ac0:    6a49        Ij      LDR      r1,[r1,#0x24]
        0x00001ac2:    4708        .G      BX       r1
    $d
        0x00001ac4:    00005ae8    .Z..    DCD    23272
    $t
    i.am_hal_delay_us_status_check
    am_hal_delay_us_status_check
        0x00001ac8:    e92d47f0    -..G    PUSH     {r4-r10,lr}
        0x00001acc:    f8df903c    ..<.    LDR      r9,[pc,#60] ; [0x1b0c] = 0x5ae8
        0x00001ad0:    f8dd8020    .. .    LDR      r8,[sp,#0x20]
        0x00001ad4:    461c        .F      MOV      r4,r3
        0x00001ad6:    4615        .F      MOV      r5,r2
        0x00001ad8:    460e        .F      MOV      r6,r1
        0x00001ada:    4607        .F      MOV      r7,r0
        0x00001adc:    6830        0h      LDR      r0,[r6,#0]
        0x00001ade:    f1b80f00    ....    CMP      r8,#0
        0x00001ae2:    ea000005    ....    AND      r0,r0,r5
        0x00001ae6:    d002        ..      BEQ      0x1aee ; am_hal_delay_us_status_check + 38
        0x00001ae8:    42a0        .B      CMP      r0,r4
        0x00001aea:    d002        ..      BEQ      0x1af2 ; am_hal_delay_us_status_check + 42
        0x00001aec:    e004        ..      B        0x1af8 ; am_hal_delay_us_status_check + 48
        0x00001aee:    42a0        .B      CMP      r0,r4
        0x00001af0:    d002        ..      BEQ      0x1af8 ; am_hal_delay_us_status_check + 48
        0x00001af2:    2000        .       MOVS     r0,#0
        0x00001af4:    e8bd87f0    ....    POP      {r4-r10,pc}
        0x00001af8:    1e7f        ..      SUBS     r7,r7,#1
        0x00001afa:    d304        ..      BCC      0x1b06 ; am_hal_delay_us_status_check + 62
        0x00001afc:    f8d91024    ..$.    LDR      r1,[r9,#0x24]
        0x00001b00:    2015        .       MOVS     r0,#0x15
        0x00001b02:    4788        .G      BLX      r1
        0x00001b04:    e7ea        ..      B        0x1adc ; am_hal_delay_us_status_check + 20
        0x00001b06:    2004        .       MOVS     r0,#4
        0x00001b08:    e8bd87f0    ....    POP      {r4-r10,pc}
    $d
        0x00001b0c:    00005ae8    .Z..    DCD    23272
    $t
    i.am_hal_fault_capture_enable
    am_hal_fault_capture_enable
        0x00001b10:    f04f4090    O..@    MOV      r0,#0x48000000
        0x00001b14:    f8501f90    P...    LDR      r1,[r0,#0x90]!
        0x00001b18:    f0410101    A...    ORR      r1,r1,#1
        0x00001b1c:    6001        .`      STR      r1,[r0,#0]
        0x00001b1e:    2000        .       MOVS     r0,#0
        0x00001b20:    4770        pG      BX       lr
    i.am_hal_fault_status_get
    am_hal_fault_status_get
        0x00001b22:    2800        .(      CMP      r0,#0
        0x00001b24:    bf04        ..      ITT      EQ
        0x00001b26:    2006        .       MOVEQ    r0,#6
        0x00001b28:    4770        pG      BXEQ     lr
        0x00001b2a:    f04f4190    O..A    MOV      r1,#0x48000000
        0x00001b2e:    f8d1208c    ...     LDR      r2,[r1,#0x8c]
        0x00001b32:    f0020301    ....    AND      r3,r2,#1
        0x00001b36:    7003        .p      STRB     r3,[r0,#0]
        0x00001b38:    f3c20340    ..@.    UBFX     r3,r2,#1,#1
        0x00001b3c:    7203        .r      STRB     r3,[r0,#8]
        0x00001b3e:    f3c20280    ....    UBFX     r2,r2,#2,#1
        0x00001b42:    7402        .t      STRB     r2,[r0,#0x10]
        0x00001b44:    f8d12084    ...     LDR      r2,[r1,#0x84]
        0x00001b48:    60c2        .`      STR      r2,[r0,#0xc]
        0x00001b4a:    6842        Bh      LDR      r2,[r0,#4]
        0x00001b4c:    f8513f80    Q..?    LDR      r3,[r1,#0x80]!
        0x00001b50:    431a        .C      ORRS     r2,r2,r3
        0x00001b52:    6042        B`      STR      r2,[r0,#4]
        0x00001b54:    6942        Bi      LDR      r2,[r0,#0x14]
        0x00001b56:    6889        .h      LDR      r1,[r1,#8]
        0x00001b58:    4311        .C      ORRS     r1,r1,r2
        0x00001b5a:    6141        Aa      STR      r1,[r0,#0x14]
        0x00001b5c:    2000        .       MOVS     r0,#0
        0x00001b5e:    4770        pG      BX       lr
    i.am_hal_gpio_pinconfig
    am_hal_gpio_pinconfig
        0x00001b60:    b403        ..      PUSH     {r0,r1}
        0x00001b62:    4908        .I      LDR      r1,[pc,#32] ; [0x1b84] = 0x40010000
        0x00001b64:    2880        .(      CMP      r0,#0x80
        0x00001b66:    bf82        ..      ITTT     HI
        0x00001b68:    2006        .       MOVHI    r0,#6
        0x00001b6a:    b002        ..      ADDHI    sp,sp,#8
        0x00001b6c:    4770        pG      BXHI     lr
        0x00001b6e:    2273        s"      MOVS     r2,#0x73
        0x00001b70:    f8c12200    ..."    STR      r2,[r1,#0x200]
        0x00001b74:    9a01        ..      LDR      r2,[sp,#4]
        0x00001b76:    f8412020    A.      STR      r2,[r1,r0,LSL #2]
        0x00001b7a:    2000        .       MOVS     r0,#0
        0x00001b7c:    f8c10200    ....    STR      r0,[r1,#0x200]
        0x00001b80:    b002        ..      ADD      sp,sp,#8
        0x00001b82:    4770        pG      BX       lr
    $d
        0x00001b84:    40010000    ...@    DCD    1073807360
    $t
    i.am_hal_itm_enable
    am_hal_itm_enable
        0x00001b88:    480a        .H      LDR      r0,[pc,#40] ; [0x1bb4] = 0xe000edfc
        0x00001b8a:    6801        .h      LDR      r1,[r0,#0]
        0x00001b8c:    f0417180    A..q    ORR      r1,r1,#0x1000000
        0x00001b90:    6001        .`      STR      r1,[r0,#0]
        0x00001b92:    6801        .h      LDR      r1,[r0,#0]
        0x00001b94:    f0117f80    ....    TST      r1,#0x1000000
        0x00001b98:    d0fb        ..      BEQ      0x1b92 ; am_hal_itm_enable + 10
        0x00001b9a:    4908        .I      LDR      r1,[pc,#32] ; [0x1bbc] = 0xe0000fb0
        0x00001b9c:    4806        .H      LDR      r0,[pc,#24] ; [0x1bb8] = 0xc5acce55
        0x00001b9e:    6008        .`      STR      r0,[r1,#0]
        0x00001ba0:    4907        .I      LDR      r1,[pc,#28] ; [0x1bc0] = 0xe0000e40
        0x00001ba2:    200f        .       MOVS     r0,#0xf
        0x00001ba4:    6008        .`      STR      r0,[r1,#0]
        0x00001ba6:    1748        H.      ASRS     r0,r1,#29
        0x00001ba8:    4906        .I      LDR      r1,[pc,#24] ; [0x1bc4] = 0xe0000e00
        0x00001baa:    6008        .`      STR      r0,[r1,#0]
        0x00001bac:    4907        .I      LDR      r1,[pc,#28] ; [0x1bcc] = 0xe0000e80
        0x00001bae:    4806        .H      LDR      r0,[pc,#24] ; [0x1bc8] = 0x150511
        0x00001bb0:    6008        .`      STR      r0,[r1,#0]
        0x00001bb2:    4770        pG      BX       lr
    $d
        0x00001bb4:    e000edfc    ....    DCD    3758157308
        0x00001bb8:    c5acce55    U...    DCD    3316436565
        0x00001bbc:    e0000fb0    ....    DCD    3758100400
        0x00001bc0:    e0000e40    @...    DCD    3758100032
        0x00001bc4:    e0000e00    ....    DCD    3758099968
        0x00001bc8:    00150511    ....    DCD    1377553
        0x00001bcc:    e0000e80    ....    DCD    3758100096
    $t
    i.am_hal_itm_print
    am_hal_itm_print
        0x00001bd0:    7802        .x      LDRB     r2,[r0,#0]
        0x00001bd2:    2100        .!      MOVS     r1,#0
        0x00001bd4:    2a00        .*      CMP      r2,#0
        0x00001bd6:    bf08        ..      IT       EQ
        0x00001bd8:    4770        pG      BXEQ     lr
        0x00001bda:    1c49        I.      ADDS     r1,r1,#1
        0x00001bdc:    5c42        B\      LDRB     r2,[r0,r1]
        0x00001bde:    2a00        .*      CMP      r2,#0
        0x00001be0:    d1fb        ..      BNE      0x1bda ; am_hal_itm_print + 10
        0x00001be2:    2900        .)      CMP      r1,#0
        0x00001be4:    bf08        ..      IT       EQ
        0x00001be6:    4770        pG      BXEQ     lr
        0x00001be8:    f810cb01    ....    LDRB     r12,[r0],#1
        0x00001bec:    f04f4260    O.`B    MOV      r2,#0xe0000000
        0x00001bf0:    6813        .h      LDR      r3,[r2,#0]
        0x00001bf2:    2b00        .+      CMP      r3,#0
        0x00001bf4:    d0fc        ..      BEQ      0x1bf0 ; am_hal_itm_print + 32
        0x00001bf6:    f882c000    ....    STRB     r12,[r2,#0]
        0x00001bfa:    1e49        I.      SUBS     r1,r1,#1
        0x00001bfc:    d1f4        ..      BNE      0x1be8 ; am_hal_itm_print + 24
        0x00001bfe:    4770        pG      BX       lr
    i.am_hal_mcuctrl_info_get
    am_hal_mcuctrl_info_get
        0x00001c00:    b470        p.      PUSH     {r4-r6}
        0x00001c02:    b119        ..      CBZ      r1,0x1c0c ; am_hal_mcuctrl_info_get + 12
        0x00001c04:    4a60        `J      LDR      r2,[pc,#384] ; [0x1d88] = 0x40020000
        0x00001c06:    b120         .      CBZ      r0,0x1c12 ; am_hal_mcuctrl_info_get + 18
        0x00001c08:    2801        .(      CMP      r0,#1
        0x00001c0a:    d021        !.      BEQ      0x1c50 ; am_hal_mcuctrl_info_get + 80
        0x00001c0c:    bc70        p.      POP      {r4-r6}
        0x00001c0e:    2006        .       MOVS     r0,#6
        0x00001c10:    4770        pG      BX       lr
        0x00001c12:    2000        .       MOVS     r0,#0
        0x00001c14:    7008        .p      STRB     r0,[r1,#0]
        0x00001c16:    6950        Pi      LDR      r0,[r2,#0x14]
        0x00001c18:    f3c00081    ....    UBFX     r0,r0,#2,#2
        0x00001c1c:    7048        Hp      STRB     r0,[r1,#1]
        0x00001c1e:    6950        Pi      LDR      r0,[r2,#0x14]
        0x00001c20:    f0000003    ....    AND      r0,r0,#3
        0x00001c24:    7088        .p      STRB     r0,[r1,#2]
        0x00001c26:    6950        Pi      LDR      r0,[r2,#0x14]
        0x00001c28:    f3c01080    ....    UBFX     r0,r0,#6,#1
        0x00001c2c:    70c8        .p      STRB     r0,[r1,#3]
        0x00001c2e:    6950        Pi      LDR      r0,[r2,#0x14]
        0x00001c30:    f3c010c0    ....    UBFX     r0,r0,#7,#1
        0x00001c34:    7108        .q      STRB     r0,[r1,#4]
        0x00001c36:    6950        Pi      LDR      r0,[r2,#0x14]
        0x00001c38:    f3c02000    ...     UBFX     r0,r0,#8,#1
        0x00001c3c:    7148        Hq      STRB     r0,[r1,#5]
        0x00001c3e:    6950        Pi      LDR      r0,[r2,#0x14]
        0x00001c40:    f3c02040    ..@     UBFX     r0,r0,#9,#1
        0x00001c44:    7188        .q      STRB     r0,[r1,#6]
        0x00001c46:    6950        Pi      LDR      r0,[r2,#0x14]
        0x00001c48:    f3c02080    ...     UBFX     r0,r0,#10,#1
        0x00001c4c:    71c8        .q      STRB     r0,[r1,#7]
        0x00001c4e:    e098        ..      B        0x1d82 ; am_hal_mcuctrl_info_get + 386
        0x00001c50:    f8d2c000    ....    LDR      r12,[r2,#0]
        0x00001c54:    f8c1c000    ....    STR      r12,[r1,#0]
        0x00001c58:    6850        Ph      LDR      r0,[r2,#4]
        0x00001c5a:    6048        H`      STR      r0,[r1,#4]
        0x00001c5c:    6890        .h      LDR      r0,[r2,#8]
        0x00001c5e:    6088        .`      STR      r0,[r1,#8]
        0x00001c60:    68d0        .h      LDR      r0,[r2,#0xc]
        0x00001c62:    60c8        .`      STR      r0,[r1,#0xc]
        0x00001c64:    b2c3        ..      UXTB     r3,r0
        0x00001c66:    2b11        .+      CMP      r3,#0x11
        0x00001c68:    d122        ".      BNE      0x1cb0 ; am_hal_mcuctrl_info_get + 176
        0x00001c6a:    f02004ff     ...    BIC      r4,r0,#0xff
        0x00001c6e:    60cc        .`      STR      r4,[r1,#0xc]
        0x00001c70:    68d0        .h      LDR      r0,[r2,#0xc]
        0x00001c72:    b2c3        ..      UXTB     r3,r0
        0x00001c74:    2b11        .+      CMP      r3,#0x11
        0x00001c76:    d118        ..      BNE      0x1caa ; am_hal_mcuctrl_info_get + 170
        0x00001c78:    6850        Ph      LDR      r0,[r2,#4]
        0x00001c7a:    6893        .h      LDR      r3,[r2,#8]
        0x00001c7c:    4e43        CN      LDR      r6,[pc,#268] ; [0x1d8c] = 0xfe00000a
        0x00001c7e:    2511        .%      MOVS     r5,#0x11
        0x00001c80:    42b3        .B      CMP      r3,r6
        0x00001c82:    d011        ..      BEQ      0x1ca8 ; am_hal_mcuctrl_info_get + 168
        0x00001c84:    f3c01303    ....    UBFX     r3,r0,#4,#4
        0x00001c88:    f0530310    S...    ORRS     r3,r3,#0x10
        0x00001c8c:    d10d        ..      BNE      0x1caa ; am_hal_mcuctrl_info_get + 170
        0x00001c8e:    f36f0012    o...    BFC      r0,#0,#19
        0x00001c92:    f1a05340    ..@S    SUB      r3,r0,#0x30000000
        0x00001c96:    f1b363c5    ...c    SUBS     r3,r3,#0x6280000
        0x00001c9a:    bf1a        ..      ITTE     NE
        0x00001c9c:    f1a05340    ..@S    SUBNE    r3,r0,#0x30000000
        0x00001ca0:    f1b363c6    ...c    SUBSNE   r3,r3,#0x6300000
        0x00001ca4:    2312        .#      MOVEQ    r3,#0x12
        0x00001ca6:    d000        ..      BEQ      0x1caa ; am_hal_mcuctrl_info_get + 170
        0x00001ca8:    462b        +F      MOV      r3,r5
        0x00001caa:    ea430004    C...    ORR      r0,r3,r4
        0x00001cae:    60c8        .`      STR      r0,[r1,#0xc]
        0x00001cb0:    6910        .i      LDR      r0,[r2,#0x10]
        0x00001cb2:    6108        .a      STR      r0,[r1,#0x10]
        0x00001cb4:    6950        Pi      LDR      r0,[r2,#0x14]
        0x00001cb6:    6148        Ha      STR      r0,[r1,#0x14]
        0x00001cb8:    f00c0001    ....    AND      r0,r12,#1
        0x00001cbc:    6188        .a      STR      r0,[r1,#0x18]
        0x00001cbe:    f44f20c0    O..     MOV      r0,#0x60000
        0x00001cc2:    6208        .b      STR      r0,[r1,#0x20]
        0x00001cc4:    6950        Pi      LDR      r0,[r2,#0x14]
        0x00001cc6:    f0000003    ....    AND      r0,r0,#3
        0x00001cca:    2802        .(      CMP      r0,#2
        0x00001ccc:    d807        ..      BHI      0x1cde ; am_hal_mcuctrl_info_get + 222
        0x00001cce:    6950        Pi      LDR      r0,[r2,#0x14]
        0x00001cd0:    4b2f        /K      LDR      r3,[pc,#188] ; [0x1d90] = 0x5f38
        0x00001cd2:    f0000003    ....    AND      r0,r0,#3
        0x00001cd6:    f8530020    S. .    LDR      r0,[r3,r0,LSL #2]
        0x00001cda:    6248        Hb      STR      r0,[r1,#0x24]
        0x00001cdc:    e007        ..      B        0x1cee ; am_hal_mcuctrl_info_get + 238
        0x00001cde:    f44f10bc    O...    MOV      r0,#0x178000
        0x00001ce2:    6248        Hb      STR      r0,[r1,#0x24]
        0x00001ce4:    6950        Pi      LDR      r0,[r2,#0x14]
        0x00001ce6:    f0200003     ...    BIC      r0,r0,#3
        0x00001cea:    1c80        ..      ADDS     r0,r0,#2
        0x00001cec:    6150        Pa      STR      r0,[r2,#0x14]
        0x00001cee:    6950        Pi      LDR      r0,[r2,#0x14]
        0x00001cf0:    f3c00081    ....    UBFX     r0,r0,#2,#2
        0x00001cf4:    2803        .(      CMP      r0,#3
        0x00001cf6:    d807        ..      BHI      0x1d08 ; am_hal_mcuctrl_info_get + 264
        0x00001cf8:    6950        Pi      LDR      r0,[r2,#0x14]
        0x00001cfa:    4a26        &J      LDR      r2,[pc,#152] ; [0x1d94] = 0x5f44
        0x00001cfc:    f3c00081    ....    UBFX     r0,r0,#2,#2
        0x00001d00:    f8520020    R. .    LDR      r0,[r2,r0,LSL #2]
        0x00001d04:    6288        .b      STR      r0,[r1,#0x28]
        0x00001d06:    e006        ..      B        0x1d16 ; am_hal_mcuctrl_info_get + 278
        0x00001d08:    f44f1000    O...    MOV      r0,#0x200000
        0x00001d0c:    6288        .b      STR      r0,[r1,#0x28]
        0x00001d0e:    6950        Pi      LDR      r0,[r2,#0x14]
        0x00001d10:    f040000c    @...    ORR      r0,r0,#0xc
        0x00001d14:    6150        Pa      STR      r0,[r2,#0x14]
        0x00001d16:    4820         H      LDR      r0,[pc,#128] ; [0x1d98] = 0xf0000fe0
        0x00001d18:    6800        .h      LDR      r0,[r0,#0]
        0x00001d1a:    4a20         J      LDR      r2,[pc,#128] ; [0x1d9c] = 0xf0000fe4
        0x00001d1c:    b2c0        ..      UXTB     r0,r0
        0x00001d1e:    62c8        .b      STR      r0,[r1,#0x2c]
        0x00001d20:    6813        .h      LDR      r3,[r2,#0]
        0x00001d22:    f003030f    ....    AND      r3,r3,#0xf
        0x00001d26:    ea402003    @..     ORR      r0,r0,r3,LSL #8
        0x00001d2a:    62c8        .b      STR      r0,[r1,#0x2c]
        0x00001d2c:    6810        .h      LDR      r0,[r2,#0]
        0x00001d2e:    1d12        ..      ADDS     r2,r2,#4
        0x00001d30:    f3c01003    ....    UBFX     r0,r0,#4,#4
        0x00001d34:    6308        .c      STR      r0,[r1,#0x30]
        0x00001d36:    6813        .h      LDR      r3,[r2,#0]
        0x00001d38:    f003030f    ....    AND      r3,r3,#0xf
        0x00001d3c:    ea401003    @...    ORR      r0,r0,r3,LSL #4
        0x00001d40:    6308        .c      STR      r0,[r1,#0x30]
        0x00001d42:    6810        .h      LDR      r0,[r2,#0]
        0x00001d44:    f3c01003    ....    UBFX     r0,r0,#4,#4
        0x00001d48:    0100        ..      LSLS     r0,r0,#4
        0x00001d4a:    1d12        ..      ADDS     r2,r2,#4
        0x00001d4c:    6348        Hc      STR      r0,[r1,#0x34]
        0x00001d4e:    6812        .h      LDR      r2,[r2,#0]
        0x00001d50:    f3c21203    ....    UBFX     r2,r2,#4,#4
        0x00001d54:    4310        .C      ORRS     r0,r0,r2
        0x00001d56:    6348        Hc      STR      r0,[r1,#0x34]
        0x00001d58:    4811        .H      LDR      r0,[pc,#68] ; [0x1da0] = 0xf0000ffc
        0x00001d5a:    6800        .h      LDR      r0,[r0,#0]
        0x00001d5c:    4a11        .J      LDR      r2,[pc,#68] ; [0x1da4] = 0xf0000ff8
        0x00001d5e:    0600        ..      LSLS     r0,r0,#24
        0x00001d60:    6388        .c      STR      r0,[r1,#0x38]
        0x00001d62:    6812        .h      LDR      r2,[r2,#0]
        0x00001d64:    b2d2        ..      UXTB     r2,r2
        0x00001d66:    ea404002    @..@    ORR      r0,r0,r2,LSL #16
        0x00001d6a:    4a0f        .J      LDR      r2,[pc,#60] ; [0x1da8] = 0xf0000ff4
        0x00001d6c:    6388        .c      STR      r0,[r1,#0x38]
        0x00001d6e:    6812        .h      LDR      r2,[r2,#0]
        0x00001d70:    b2d2        ..      UXTB     r2,r2
        0x00001d72:    ea402002    @..     ORR      r0,r0,r2,LSL #8
        0x00001d76:    4a0d        .J      LDR      r2,[pc,#52] ; [0x1dac] = 0xf0000ff0
        0x00001d78:    6388        .c      STR      r0,[r1,#0x38]
        0x00001d7a:    6812        .h      LDR      r2,[r2,#0]
        0x00001d7c:    b2d2        ..      UXTB     r2,r2
        0x00001d7e:    4310        .C      ORRS     r0,r0,r2
        0x00001d80:    6388        .c      STR      r0,[r1,#0x38]
        0x00001d82:    bc70        p.      POP      {r4-r6}
        0x00001d84:    2000        .       MOVS     r0,#0
        0x00001d86:    4770        pG      BX       lr
    $d
        0x00001d88:    40020000    ...@    DCD    1073872896
        0x00001d8c:    fe00000a    ....    DCD    4261412874
        0x00001d90:    00005f38    8_..    DCD    24376
        0x00001d94:    00005f44    D_..    DCD    24388
        0x00001d98:    f0000fe0    ....    DCD    4026535904
        0x00001d9c:    f0000fe4    ....    DCD    4026535908
        0x00001da0:    f0000ffc    ....    DCD    4026535932
        0x00001da4:    f0000ff8    ....    DCD    4026535928
        0x00001da8:    f0000ff4    ....    DCD    4026535924
        0x00001dac:    f0000ff0    ....    DCD    4026535920
    $t
    i.am_hal_mspi_blocking_transfer
    am_hal_mspi_blocking_transfer
        0x00001db0:    e92d4ff7    -..O    PUSH     {r0-r2,r4-r11,lr}
        0x00001db4:    b084        ..      SUB      sp,sp,#0x10
        0x00001db6:    1e02        ..      SUBS     r2,r0,#0
        0x00001db8:    f04f0300    O...    MOV      r3,#0
        0x00001dbc:    bf1c        ..      ITT      NE
        0x00001dbe:    6810        .h      LDRNE    r0,[r2,#0]
        0x00001dc0:    f0107f80    ....    TSTNE    r0,#0x1000000
        0x00001dc4:    d005        ..      BEQ      0x1dd2 ; am_hal_mspi_blocking_transfer + 34
        0x00001dc6:    f8dfc210    ....    LDR      r12,[pc,#528] ; [0x1fd8] = 0xbebebe
        0x00001dca:    f020407f     ..@    BIC      r0,r0,#0xff000000
        0x00001dce:    4560        `E      CMP      r0,r12
        0x00001dd0:    d003        ..      BEQ      0x1dda ; am_hal_mspi_blocking_transfer + 42
        0x00001dd2:    b007        ..      ADD      sp,sp,#0x1c
        0x00001dd4:    2002        .       MOVS     r0,#2
        0x00001dd6:    e8bd8ff0    ....    POP      {r4-r11,pc}
        0x00001dda:    6a10        .j      LDR      r0,[r2,#0x20]
        0x00001ddc:    6855        Uh      LDR      r5,[r2,#4]
        0x00001dde:    2800        .(      CMP      r0,#0
        0x00001de0:    bf04        ..      ITT      EQ
        0x00001de2:    f8d20840    ..@.    LDREQ    r0,[r2,#0x840]
        0x00001de6:    2800        .(      CMPEQ    r0,#0
        0x00001de8:    d15f        _.      BNE      0x1eaa ; am_hal_mspi_blocking_transfer + 250
        0x00001dea:    f892082c    ..,.    LDRB     r0,[r2,#0x82c]
        0x00001dee:    2802        .(      CMP      r0,#2
        0x00001df0:    d05b        [.      BEQ      0x1eaa ; am_hal_mspi_blocking_transfer + 250
        0x00001df2:    8888        ..      LDRH     r0,[r1,#4]
        0x00001df4:    f44f7c00    O..|    MOV      r12,#0x200
        0x00001df8:    ea434000    C..@    ORR      r0,r3,r0,LSL #16
        0x00001dfc:    7a0b        .z      LDRB     r3,[r1,#8]
        0x00001dfe:    ea0c2343    ..C#    AND      r3,r12,r3,LSL #9
        0x00001e02:    4318        .C      ORRS     r0,r0,r3
        0x00001e04:    7a8b        .z      LDRB     r3,[r1,#0xa]
        0x00001e06:    f04f0c80    O...    MOV      r12,#0x80
        0x00001e0a:    ea0c13c3    ....    AND      r3,r12,r3,LSL #7
        0x00001e0e:    4318        .C      ORRS     r0,r0,r3
        0x00001e10:    7c0b        .|      LDRB     r3,[r1,#0x10]
        0x00001e12:    b153        S.      CBZ      r3,0x1e2a ; am_hal_mspi_blocking_transfer + 122
        0x00001e14:    ea4f3c05    O..<    LSL      r12,r5,#12
        0x00001e18:    f10c4c80    ...L    ADD      r12,r12,#0x40000000
        0x00001e1c:    f50c2cc0    ...,    ADD      r12,r12,#0x60000
        0x00001e20:    8a4b        K.      LDRH     r3,[r1,#0x12]
        0x00001e22:    f0400040    @.@.    ORR      r0,r0,#0x40
        0x00001e26:    f8cc300c    ...0    STR      r3,[r12,#0xc]
        0x00001e2a:    7acb        .z      LDRB     r3,[r1,#0xb]
        0x00001e2c:    b153        S.      CBZ      r3,0x1e44 ; am_hal_mspi_blocking_transfer + 148
        0x00001e2e:    ea4f3c05    O..<    LSL      r12,r5,#12
        0x00001e32:    f10c4c80    ...L    ADD      r12,r12,#0x40000000
        0x00001e36:    f50c2cc0    ...,    ADD      r12,r12,#0x60000
        0x00001e3a:    68cb        .h      LDR      r3,[r1,#0xc]
        0x00001e3c:    f0400020    @. .    ORR      r0,r0,#0x20
        0x00001e40:    f8cc3008    ...0    STR      r3,[r12,#8]
        0x00001e44:    7d0b        .}      LDRB     r3,[r1,#0x14]
        0x00001e46:    2b00        .+      CMP      r3,#0
        0x00001e48:    bf18        ..      IT       NE
        0x00001e4a:    f4406080    @..`    ORRNE    r0,r0,#0x400
        0x00001e4e:    7b93        .{      LDRB     r3,[r2,#0xe]
        0x00001e50:    f44f7c80    O..|    MOV      r12,#0x100
        0x00001e54:    ea0c2303    ...#    AND      r3,r12,r3,LSL #8
        0x00001e58:    4318        .C      ORRS     r0,r0,r3
        0x00001e5a:    780b        .x      LDRB     r3,[r1,#0]
        0x00001e5c:    f04f0c10    O...    MOV      r12,#0x10
        0x00001e60:    ea0c1303    ....    AND      r3,r12,r3,LSL #4
        0x00001e64:    4318        .C      ORRS     r0,r0,r3
        0x00001e66:    7d4b        K}      LDRB     r3,[r1,#0x15]
        0x00001e68:    f44f5c80    O..\    MOV      r12,#0x1000
        0x00001e6c:    ea0c3303    ...3    AND      r3,r12,r3,LSL #12
        0x00001e70:    4318        .C      ORRS     r0,r0,r3
        0x00001e72:    7a4b        Kz      LDRB     r3,[r1,#9]
        0x00001e74:    2b00        .+      CMP      r3,#0
        0x00001e76:    bf18        ..      IT       NE
        0x00001e78:    f4406000    @..`    ORRNE    r0,r0,#0x800
        0x00001e7c:    f0400001    @...    ORR      r0,r0,#1
        0x00001e80:    032b        +.      LSLS     r3,r5,#12
        0x00001e82:    f1034680    ...F    ADD      r6,r3,#0x40000000
        0x00001e86:    f50626c0    ...&    ADD      r6,r6,#0x60000
        0x00001e8a:    f8d63200    ...2    LDR      r3,[r6,#0x200]
        0x00001e8e:    9301        ..      STR      r3,[sp,#4]
        0x00001e90:    2300        .#      MOVS     r3,#0
        0x00001e92:    f8c63200    ...2    STR      r3,[r6,#0x200]
        0x00001e96:    1e5b        [.      SUBS     r3,r3,#1
        0x00001e98:    f8c63208    ...2    STR      r3,[r6,#0x208]
        0x00001e9c:    6030        0`      STR      r0,[r6,#0]
        0x00001e9e:    7a8b        .z      LDRB     r3,[r1,#0xa]
        0x00001ea0:    2005        .       MOVS     r0,#5
        0x00001ea2:    b133        3.      CBZ      r3,0x1eb2 ; am_hal_mspi_blocking_transfer + 258
        0x00001ea4:    2b01        .+      CMP      r3,#1
        0x00001ea6:    d05a        Z.      BEQ      0x1f5e ; am_hal_mspi_blocking_transfer + 430
        0x00001ea8:    e08b        ..      B        0x1fc2 ; am_hal_mspi_blocking_transfer + 530
        0x00001eaa:    b007        ..      ADD      sp,sp,#0x1c
        0x00001eac:    2007        .       MOVS     r0,#7
        0x00001eae:    e8bd8ff0    ....    POP      {r4-r11,pc}
        0x00001eb2:    f8d1a018    ....    LDR      r10,[r1,#0x18]
        0x00001eb6:    6849        Ih      LDR      r1,[r1,#4]
        0x00001eb8:    6912        .i      LDR      r2,[r2,#0x10]
        0x00001eba:    9202        ..      STR      r2,[sp,#8]
        0x00001ebc:    2d03        .-      CMP      r5,#3
        0x00001ebe:    d276        v.      BCS      0x1fae ; am_hal_mspi_blocking_transfer + 510
        0x00001ec0:    ea5f0891    _...    LSRS     r8,r1,#2
        0x00001ec4:    f1c80000    ....    RSB      r0,r8,#0
        0x00001ec8:    eb010980    ....    ADD      r9,r1,r0,LSL #2
        0x00001ecc:    f04f0400    O...    MOV      r4,#0
        0x00001ed0:    d018        ..      BEQ      0x1f04 ; am_hal_mspi_blocking_transfer + 340
        0x00001ed2:    4842        BH      LDR      r0,[pc,#264] ; [0x1fdc] = 0x4006001c
        0x00001ed4:    eb003705    ...7    ADD      r7,r0,r5,LSL #12
        0x00001ed8:    0328        (.      LSLS     r0,r5,#12
        0x00001eda:    f1004b80    ...K    ADD      r11,r0,#0x40000000
        0x00001ede:    f50b2bc0    ...+    ADD      r11,r11,#0x60000
        0x00001ee2:    2000        .       MOVS     r0,#0
        0x00001ee4:    4603        .F      MOV      r3,r0
        0x00001ee6:    9000        ..      STR      r0,[sp,#0]
        0x00001ee8:    4639        9F      MOV      r1,r7
        0x00001eea:    223f        ?"      MOVS     r2,#0x3f
        0x00001eec:    9802        ..      LDR      r0,[sp,#8]
        0x00001eee:    f7fffdeb    ....    BL       am_hal_delay_us_status_check ; 0x1ac8
        0x00001ef2:    2800        .(      CMP      r0,#0
        0x00001ef4:    d15b        [.      BNE      0x1fae ; am_hal_mspi_blocking_transfer + 510
        0x00001ef6:    f8db0014    ....    LDR      r0,[r11,#0x14]
        0x00001efa:    f84a0024    J.$.    STR      r0,[r10,r4,LSL #2]
        0x00001efe:    1c64        d.      ADDS     r4,r4,#1
        0x00001f00:    4544        DE      CMP      r4,r8
        0x00001f02:    d3ee        ..      BCC      0x1ee2 ; am_hal_mspi_blocking_transfer + 306
        0x00001f04:    f1b90f00    ....    CMP      r9,#0
        0x00001f08:    d05b        [.      BEQ      0x1fc2 ; am_hal_mspi_blocking_transfer + 530
        0x00001f0a:    2000        .       MOVS     r0,#0
        0x00001f0c:    9000        ..      STR      r0,[sp,#0]
        0x00001f0e:    4833        3H      LDR      r0,[pc,#204] ; [0x1fdc] = 0x4006001c
        0x00001f10:    2300        .#      MOVS     r3,#0
        0x00001f12:    eb003105    ...1    ADD      r1,r0,r5,LSL #12
        0x00001f16:    223f        ?"      MOVS     r2,#0x3f
        0x00001f18:    9802        ..      LDR      r0,[sp,#8]
        0x00001f1a:    f7fffdd5    ....    BL       am_hal_delay_us_status_check ; 0x1ac8
        0x00001f1e:    bbe8        ..      CBNZ     r0,0x1f9c ; am_hal_mspi_blocking_transfer + 492
        0x00001f20:    0328        (.      LSLS     r0,r5,#12
        0x00001f22:    f1004080    ...@    ADD      r0,r0,#0x40000000
        0x00001f26:    f50020c0    ...     ADD      r0,r0,#0x60000
        0x00001f2a:    6940        @i      LDR      r0,[r0,#0x14]
        0x00001f2c:    9003        ..      STR      r0,[sp,#0xc]
        0x00001f2e:    eb0a0084    ....    ADD      r0,r10,r4,LSL #2
        0x00001f32:    1e41        A.      SUBS     r1,r0,#1
        0x00001f34:    f10d000b    ....    ADD      r0,sp,#0xb
        0x00001f38:    f0190f01    ....    TST      r9,#1
        0x00001f3c:    d003        ..      BEQ      0x1f46 ; am_hal_mspi_blocking_transfer + 406
        0x00001f3e:    f8102f01    .../    LDRB     r2,[r0,#1]!
        0x00001f42:    f8012f01    .../    STRB     r2,[r1,#1]!
        0x00001f46:    ea5f0259    _.Y.    LSRS     r2,r9,#1
        0x00001f4a:    d03a        :.      BEQ      0x1fc2 ; am_hal_mspi_blocking_transfer + 530
        0x00001f4c:    7843        Cx      LDRB     r3,[r0,#1]
        0x00001f4e:    704b        Kp      STRB     r3,[r1,#1]
        0x00001f50:    f8103f02    ...?    LDRB     r3,[r0,#2]!
        0x00001f54:    f8013f02    ...?    STRB     r3,[r1,#2]!
        0x00001f58:    1e52        R.      SUBS     r2,r2,#1
        0x00001f5a:    d1f7        ..      BNE      0x1f4c ; am_hal_mspi_blocking_transfer + 412
        0x00001f5c:    e031        1.      B        0x1fc2 ; am_hal_mspi_blocking_transfer + 530
        0x00001f5e:    f8d1a018    ....    LDR      r10,[r1,#0x18]
        0x00001f62:    f8d18004    ....    LDR      r8,[r1,#4]
        0x00001f66:    6911        .i      LDR      r1,[r2,#0x10]
        0x00001f68:    9102        ..      STR      r1,[sp,#8]
        0x00001f6a:    2d03        .-      CMP      r5,#3
        0x00001f6c:    d21f        ..      BCS      0x1fae ; am_hal_mspi_blocking_transfer + 510
        0x00001f6e:    2400        .$      MOVS     r4,#0
        0x00001f70:    f1b80f00    ....    CMP      r8,#0
        0x00001f74:    d925        %.      BLS      0x1fc2 ; am_hal_mspi_blocking_transfer + 530
        0x00001f76:    0328        (.      LSLS     r0,r5,#12
        0x00001f78:    4919        .I      LDR      r1,[pc,#100] ; [0x1fe0] = 0x40060018
        0x00001f7a:    f1004980    ...I    ADD      r9,r0,#0x40000000
        0x00001f7e:    46a3        .F      MOV      r11,r4
        0x00001f80:    f50929c0    ...)    ADD      r9,r9,#0x60000
        0x00001f84:    eb013705    ...7    ADD      r7,r1,r5,LSL #12
        0x00001f88:    f85a0024    Z.$.    LDR      r0,[r10,r4,LSL #2]
        0x00001f8c:    f8c90010    ....    STR      r0,[r9,#0x10]
        0x00001f90:    2310        .#      MOVS     r3,#0x10
        0x00001f92:    223f        ?"      MOVS     r2,#0x3f
        0x00001f94:    4639        9F      MOV      r1,r7
        0x00001f96:    f8cdb000    ....    STR      r11,[sp,#0]
        0x00001f9a:    e000        ..      B        0x1f9e ; am_hal_mspi_blocking_transfer + 494
        0x00001f9c:    e007        ..      B        0x1fae ; am_hal_mspi_blocking_transfer + 510
        0x00001f9e:    9802        ..      LDR      r0,[sp,#8]
        0x00001fa0:    f7fffd92    ....    BL       am_hal_delay_us_status_check ; 0x1ac8
        0x00001fa4:    1c64        d.      ADDS     r4,r4,#1
        0x00001fa6:    ebb80f84    ....    CMP      r8,r4,LSL #2
        0x00001faa:    d8ed        ..      BHI      0x1f88 ; am_hal_mspi_blocking_transfer + 472
        0x00001fac:    b148        H.      CBZ      r0,0x1fc2 ; am_hal_mspi_blocking_transfer + 530
        0x00001fae:    f04f31ff    O..1    MOV      r1,#0xffffffff
        0x00001fb2:    f8c61208    ....    STR      r1,[r6,#0x208]
        0x00001fb6:    9901        ..      LDR      r1,[sp,#4]
        0x00001fb8:    f8c61200    ....    STR      r1,[r6,#0x200]
        0x00001fbc:    b007        ..      ADD      sp,sp,#0x1c
        0x00001fbe:    e8bd8ff0    ....    POP      {r4-r11,pc}
        0x00001fc2:    2001        .       MOVS     r0,#1
        0x00001fc4:    9000        ..      STR      r0,[sp,#0]
        0x00001fc6:    4807        .H      LDR      r0,[pc,#28] ; [0x1fe4] = 0x40060000
        0x00001fc8:    2302        .#      MOVS     r3,#2
        0x00001fca:    eb003105    ...1    ADD      r1,r0,r5,LSL #12
        0x00001fce:    461a        .F      MOV      r2,r3
        0x00001fd0:    9806        ..      LDR      r0,[sp,#0x18]
        0x00001fd2:    f7fffd79    ..y.    BL       am_hal_delay_us_status_check ; 0x1ac8
        0x00001fd6:    e7ea        ..      B        0x1fae ; am_hal_mspi_blocking_transfer + 510
    $d
        0x00001fd8:    00bebebe    ....    DCD    12500670
        0x00001fdc:    4006001c    ...@    DCD    1074135068
        0x00001fe0:    40060018    ...@    DCD    1074135064
        0x00001fe4:    40060000    ...@    DCD    1074135040
    $t
    i.am_hal_mspi_configure
    am_hal_mspi_configure
        0x00001fe8:    6843        Ch      LDR      r3,[r0,#4]
        0x00001fea:    2800        .(      CMP      r0,#0
        0x00001fec:    bf1c        ..      ITT      NE
        0x00001fee:    6800        .h      LDRNE    r0,[r0,#0]
        0x00001ff0:    f0107f80    ....    TSTNE    r0,#0x1000000
        0x00001ff4:    d005        ..      BEQ      0x2002 ; am_hal_mspi_configure + 26
        0x00001ff6:    f8dfc074    ..t.    LDR      r12,[pc,#116] ; [0x206c] = 0xbebebe
        0x00001ffa:    f020427f     ..B    BIC      r2,r0,#0xff000000
        0x00001ffe:    4562        bE      CMP      r2,r12
        0x00002000:    d001        ..      BEQ      0x2006 ; am_hal_mspi_configure + 30
        0x00002002:    2002        .       MOVS     r0,#2
        0x00002004:    4770        pG      BX       lr
        0x00002006:    f0107f00    ....    TST      r0,#0x2000000
        0x0000200a:    bf1c        ..      ITT      NE
        0x0000200c:    2007        .       MOVNE    r0,#7
        0x0000200e:    4770        pG      BXNE     lr
        0x00002010:    0318        ..      LSLS     r0,r3,#12
        0x00002012:    f1004080    ...@    ADD      r0,r0,#0x40000000
        0x00002016:    f50020c0    ...     ADD      r0,r0,#0x60000
        0x0000201a:    f8d02090    ...     LDR      r2,[r0,#0x90]
        0x0000201e:    f0220201    "...    BIC      r2,r2,#1
        0x00002022:    f8c02090    ...     STR      r2,[r0,#0x90]
        0x00002026:    f8d020d0    ...     LDR      r2,[r0,#0xd0]
        0x0000202a:    f0220201    "...    BIC      r2,r2,#1
        0x0000202e:    f8c020d0    ...     STR      r2,[r0,#0xd0]
        0x00002032:    2200        ."      MOVS     r2,#0
        0x00002034:    f8c0209c    ...     STR      r2,[r0,#0x9c]
        0x00002038:    f8c02080    ...     STR      r2,[r0,#0x80]
        0x0000203c:    f8c020dc    ...     STR      r2,[r0,#0xdc]
        0x00002040:    f8c020c0    ...     STR      r2,[r0,#0xc0]
        0x00002044:    f2401019    @...    MOV      r0,#0x119
        0x00002048:    4343        CC      MULS     r3,r0,r3
        0x0000204a:    4809        .H      LDR      r0,[pc,#36] ; [0x2070] = 0x100056cc
        0x0000204c:    684a        Jh      LDR      r2,[r1,#4]
        0x0000204e:    eb0000c3    ....    ADD      r0,r0,r3,LSL #3
        0x00002052:    6182        .a      STR      r2,[r0,#0x18]
        0x00002054:    680a        .h      LDR      r2,[r1,#0]
        0x00002056:    6142        Ba      STR      r2,[r0,#0x14]
        0x00002058:    7a09        .z      LDRB     r1,[r1,#8]
        0x0000205a:    7241        Ar      STRB     r1,[r0,#9]
        0x0000205c:    2101        .!      MOVS     r1,#1
        0x0000205e:    7201        .r      STRB     r1,[r0,#8]
        0x00002060:    2112        .!      MOVS     r1,#0x12
        0x00002062:    7281        .r      STRB     r1,[r0,#0xa]
        0x00002064:    72c1        .r      STRB     r1,[r0,#0xb]
        0x00002066:    2000        .       MOVS     r0,#0
        0x00002068:    4770        pG      BX       lr
    $d
        0x0000206a:    0000        ..      DCW    0
        0x0000206c:    00bebebe    ....    DCD    12500670
        0x00002070:    100056cc    .V..    DCD    268457676
    $t
    i.am_hal_mspi_control
    am_hal_mspi_control
        0x00002074:    e92d43f0    -..C    PUSH     {r4-r9,lr}
        0x00002078:    b083        ..      SUB      sp,sp,#0xc
        0x0000207a:    0004        ..      MOVS     r4,r0
        0x0000207c:    f04f0600    O...    MOV      r6,#0
        0x00002080:    bf1c        ..      ITT      NE
        0x00002082:    6820         h      LDRNE    r0,[r4,#0]
        0x00002084:    f0107f80    ....    TSTNE    r0,#0x1000000
        0x00002088:    d004        ..      BEQ      0x2094 ; am_hal_mspi_control + 32
        0x0000208a:    f020437f     ..C    BIC      r3,r0,#0xff000000
        0x0000208e:    48fb        .H      LDR      r0,[pc,#1004] ; [0x247c] = 0xbebebe
        0x00002090:    4283        .B      CMP      r3,r0
        0x00002092:    d003        ..      BEQ      0x209c ; am_hal_mspi_control + 40
        0x00002094:    b003        ..      ADD      sp,sp,#0xc
        0x00002096:    2002        .       MOVS     r0,#2
        0x00002098:    e8bd83f0    ....    POP      {r4-r9,pc}
        0x0000209c:    2918        .)      CMP      r1,#0x18
        0x0000209e:    f20084a6    ....    BHI.W    0x29ee ; am_hal_mspi_control + 2426
        0x000020a2:    7a20         z      LDRB     r0,[r4,#8]
        0x000020a4:    2800        .(      CMP      r0,#0
        0x000020a6:    f00083d0    ....    BEQ.W    0x284a ; am_hal_mspi_control + 2006
        0x000020aa:    6865        eh      LDR      r5,[r4,#4]
        0x000020ac:    2918        .)      CMP      r1,#0x18
        0x000020ae:    f080849e    ....    BCS.W    0x29ee ; am_hal_mspi_control + 2426
        0x000020b2:    e8dff001    ....    TBB      [pc,r1]
    $d
        0x000020b6:    1b0c        ..      DCW    6924
        0x000020b8:    72523d2c    ,=Rr    DCD    1917992236
        0x000020bc:    f8c6a68c    ....    DCD    4173768332
        0x000020c0:    f5f9f7f8    ....    DCD    4126799864
        0x000020c4:    f1f2f3f4    ....    DCD    4059231220
        0x000020c8:    edeeeff0    ....    DCD    3991859184
        0x000020cc:    ebec        ..      DCW    60396
    $t
        0x000020ce:    2a00        .*      CMP      r2,#0
        0x000020d0:    f000848d    ....    BEQ.W    0x29ee ; am_hal_mspi_control + 2426
        0x000020d4:    0328        (.      LSLS     r0,r5,#12
        0x000020d6:    f1004080    ...@    ADD      r0,r0,#0x40000000
        0x000020da:    f50020c0    ...     ADD      r0,r0,#0x60000
        0x000020de:    7812        .x      LDRB     r2,[r2,#0]
        0x000020e0:    6b01        .k      LDR      r1,[r0,#0x30]
        0x000020e2:    f3620100    b...    BFI      r1,r2,#0,#1
        0x000020e6:    6301        .c      STR      r1,[r0,#0x30]
        0x000020e8:    f000bc7f    ....    B.W      0x29ea ; am_hal_mspi_control + 2422
        0x000020ec:    2a00        .*      CMP      r2,#0
        0x000020ee:    f000847e    ..~.    BEQ.W    0x29ee ; am_hal_mspi_control + 2426
        0x000020f2:    49e3        .I      LDR      r1,[pc,#908] ; [0x2480] = 0xe0e0e0
        0x000020f4:    6810        .h      LDR      r0,[r2,#0]
        0x000020f6:    4208        .B      TST      r0,r1
        0x000020f8:    f0408479    @.y.    BNE.W    0x29ee ; am_hal_mspi_control + 2426
        0x000020fc:    0329        ).      LSLS     r1,r5,#12
        0x000020fe:    f1014180    ...A    ADD      r1,r1,#0x40000000
        0x00002102:    f50121c0    ...!    ADD      r1,r1,#0x60000
        0x00002106:    f8c102b4    ....    STR      r0,[r1,#0x2b4]
        0x0000210a:    f000bc6e    ..n.    B.W      0x29ea ; am_hal_mspi_control + 2422
        0x0000210e:    2a00        .*      CMP      r2,#0
        0x00002110:    bf1c        ..      ITT      NE
        0x00002112:    6810        .h      LDRNE    r0,[r2,#0]
        0x00002114:    2808        .(      CMPNE    r0,#8
        0x00002116:    f080846a    ..j.    BCS.W    0x29ee ; am_hal_mspi_control + 2426
        0x0000211a:    0329        ).      LSLS     r1,r5,#12
        0x0000211c:    f1014180    ...A    ADD      r1,r1,#0x40000000
        0x00002120:    f50121c0    ...!    ADD      r1,r1,#0x60000
        0x00002124:    6b0a        .k      LDR      r2,[r1,#0x30]
        0x00002126:    f3601207    `...    BFI      r2,r0,#4,#4
        0x0000212a:    630a        .c      STR      r2,[r1,#0x30]
        0x0000212c:    f000bc5d    ..].    B.W      0x29ea ; am_hal_mspi_control + 2422
        0x00002130:    2a00        .*      CMP      r2,#0
        0x00002132:    f000845c    ..\.    BEQ.W    0x29ee ; am_hal_mspi_control + 2426
        0x00002136:    6810        .h      LDR      r0,[r2,#0]
        0x00002138:    2803        .(      CMP      r0,#3
        0x0000213a:    d302        ..      BCC      0x2142 ; am_hal_mspi_control + 206
        0x0000213c:    2807        .(      CMP      r0,#7
        0x0000213e:    f0408456    @.V.    BNE.W    0x29ee ; am_hal_mspi_control + 2426
        0x00002142:    0329        ).      LSLS     r1,r5,#12
        0x00002144:    f1014180    ...A    ADD      r1,r1,#0x40000000
        0x00002148:    f50121c0    ...!    ADD      r1,r1,#0x60000
        0x0000214c:    6b0a        .k      LDR      r2,[r1,#0x30]
        0x0000214e:    3008        .0      ADDS     r0,r0,#8
        0x00002150:    f3601207    `...    BFI      r2,r0,#4,#4
        0x00002154:    630a        .c      STR      r2,[r1,#0x30]
        0x00002156:    f000bc48    ..H.    B.W      0x29ea ; am_hal_mspi_control + 2422
        0x0000215a:    7810        .x      LDRB     r0,[r2,#0]
        0x0000215c:    b118        ..      CBZ      r0,0x2166 ; am_hal_mspi_control + 242
        0x0000215e:    2801        .(      CMP      r0,#1
        0x00002160:    d00e        ..      BEQ      0x2180 ; am_hal_mspi_control + 268
        0x00002162:    f000bb70    ..p.    B.W      0x2846 ; am_hal_mspi_control + 2002
        0x00002166:    0328        (.      LSLS     r0,r5,#12
        0x00002168:    f1004080    ...@    ADD      r0,r0,#0x40000000
        0x0000216c:    f50020c0    ...     ADD      r0,r0,#0x60000
        0x00002170:    f8d01090    ....    LDR      r1,[r0,#0x90]
        0x00002174:    f4216100    !..a    BIC      r1,r1,#0x800
        0x00002178:    f8c01090    ....    STR      r1,[r0,#0x90]
        0x0000217c:    f000bc35    ..5.    B.W      0x29ea ; am_hal_mspi_control + 2422
        0x00002180:    0328        (.      LSLS     r0,r5,#12
        0x00002182:    f1004080    ...@    ADD      r0,r0,#0x40000000
        0x00002186:    f50020c0    ...     ADD      r0,r0,#0x60000
        0x0000218a:    f8d010d0    ....    LDR      r1,[r0,#0xd0]
        0x0000218e:    f4216100    !..a    BIC      r1,r1,#0x800
        0x00002192:    f8c010d0    ....    STR      r1,[r0,#0xd0]
        0x00002196:    f000bc28    ..(.    B.W      0x29ea ; am_hal_mspi_control + 2422
        0x0000219a:    7810        .x      LDRB     r0,[r2,#0]
        0x0000219c:    b118        ..      CBZ      r0,0x21a6 ; am_hal_mspi_control + 306
        0x0000219e:    2801        .(      CMP      r0,#1
        0x000021a0:    d00b        ..      BEQ      0x21ba ; am_hal_mspi_control + 326
        0x000021a2:    f000bb50    ..P.    B.W      0x2846 ; am_hal_mspi_control + 2002
        0x000021a6:    0328        (.      LSLS     r0,r5,#12
        0x000021a8:    f1004080    ...@    ADD      r0,r0,#0x40000000
        0x000021ac:    f50020c0    ...     ADD      r0,r0,#0x60000
        0x000021b0:    f8d01090    ....    LDR      r1,[r0,#0x90]
        0x000021b4:    f4416100    A..a    ORR      r1,r1,#0x800
        0x000021b8:    e056        V.      B        0x2268 ; am_hal_mspi_control + 500
        0x000021ba:    0328        (.      LSLS     r0,r5,#12
        0x000021bc:    f1004080    ...@    ADD      r0,r0,#0x40000000
        0x000021c0:    f50020c0    ...     ADD      r0,r0,#0x60000
        0x000021c4:    f8d010d0    ....    LDR      r1,[r0,#0xd0]
        0x000021c8:    f4416100    A..a    ORR      r1,r1,#0x800
        0x000021cc:    e05a        Z.      B        0x2284 ; am_hal_mspi_control + 528
        0x000021ce:    7810        .x      LDRB     r0,[r2,#0]
        0x000021d0:    b118        ..      CBZ      r0,0x21da ; am_hal_mspi_control + 358
        0x000021d2:    2801        .(      CMP      r0,#1
        0x000021d4:    d00b        ..      BEQ      0x21ee ; am_hal_mspi_control + 378
        0x000021d6:    f000bb36    ..6.    B.W      0x2846 ; am_hal_mspi_control + 2002
        0x000021da:    0328        (.      LSLS     r0,r5,#12
        0x000021dc:    f1004080    ...@    ADD      r0,r0,#0x40000000
        0x000021e0:    f50020c0    ...     ADD      r0,r0,#0x60000
        0x000021e4:    f8d0109c    ....    LDR      r1,[r0,#0x9c]
        0x000021e8:    f0214100    !..A    BIC      r1,r1,#0x80000000
        0x000021ec:    e018        ..      B        0x2220 ; am_hal_mspi_control + 428
        0x000021ee:    0328        (.      LSLS     r0,r5,#12
        0x000021f0:    f1004080    ...@    ADD      r0,r0,#0x40000000
        0x000021f4:    f50020c0    ...     ADD      r0,r0,#0x60000
        0x000021f8:    f8d010dc    ....    LDR      r1,[r0,#0xdc]
        0x000021fc:    f0214100    !..A    BIC      r1,r1,#0x80000000
        0x00002200:    e01b        ..      B        0x223a ; am_hal_mspi_control + 454
        0x00002202:    7810        .x      LDRB     r0,[r2,#0]
        0x00002204:    b118        ..      CBZ      r0,0x220e ; am_hal_mspi_control + 410
        0x00002206:    2801        .(      CMP      r0,#1
        0x00002208:    d00e        ..      BEQ      0x2228 ; am_hal_mspi_control + 436
        0x0000220a:    f000bb1c    ....    B.W      0x2846 ; am_hal_mspi_control + 2002
        0x0000220e:    0328        (.      LSLS     r0,r5,#12
        0x00002210:    f1004080    ...@    ADD      r0,r0,#0x40000000
        0x00002214:    f50020c0    ...     ADD      r0,r0,#0x60000
        0x00002218:    f8d0109c    ....    LDR      r1,[r0,#0x9c]
        0x0000221c:    f0414100    A..A    ORR      r1,r1,#0x80000000
        0x00002220:    f8c0109c    ....    STR      r1,[r0,#0x9c]
        0x00002224:    f000bbe1    ....    B.W      0x29ea ; am_hal_mspi_control + 2422
        0x00002228:    0328        (.      LSLS     r0,r5,#12
        0x0000222a:    f1004080    ...@    ADD      r0,r0,#0x40000000
        0x0000222e:    f50020c0    ...     ADD      r0,r0,#0x60000
        0x00002232:    f8d010dc    ....    LDR      r1,[r0,#0xdc]
        0x00002236:    f0414100    A..A    ORR      r1,r1,#0x80000000
        0x0000223a:    f8c010dc    ....    STR      r1,[r0,#0xdc]
        0x0000223e:    f000bbd4    ....    B.W      0x29ea ; am_hal_mspi_control + 2422
        0x00002242:    2a00        .*      CMP      r2,#0
        0x00002244:    f00083d3    ....    BEQ.W    0x29ee ; am_hal_mspi_control + 2426
        0x00002248:    7810        .x      LDRB     r0,[r2,#0]
        0x0000224a:    b118        ..      CBZ      r0,0x2254 ; am_hal_mspi_control + 480
        0x0000224c:    2801        .(      CMP      r0,#1
        0x0000224e:    d00f        ..      BEQ      0x2270 ; am_hal_mspi_control + 508
        0x00002250:    f000baf9    ....    B.W      0x2846 ; am_hal_mspi_control + 2002
        0x00002254:    0328        (.      LSLS     r0,r5,#12
        0x00002256:    f1004080    ...@    ADD      r0,r0,#0x40000000
        0x0000225a:    f50020c0    ...     ADD      r0,r0,#0x60000
        0x0000225e:    7852        Rx      LDRB     r2,[r2,#1]
        0x00002260:    f8d01090    ....    LDR      r1,[r0,#0x90]
        0x00002264:    f3620183    b...    BFI      r1,r2,#2,#2
        0x00002268:    f8c01090    ....    STR      r1,[r0,#0x90]
        0x0000226c:    f000bbbd    ....    B.W      0x29ea ; am_hal_mspi_control + 2422
        0x00002270:    0328        (.      LSLS     r0,r5,#12
        0x00002272:    f1004080    ...@    ADD      r0,r0,#0x40000000
        0x00002276:    f50020c0    ...     ADD      r0,r0,#0x60000
        0x0000227a:    7852        Rx      LDRB     r2,[r2,#1]
        0x0000227c:    f8d010d0    ....    LDR      r1,[r0,#0xd0]
        0x00002280:    f3620183    b...    BFI      r1,r2,#2,#2
        0x00002284:    f8c010d0    ....    STR      r1,[r0,#0xd0]
        0x00002288:    f000bbaf    ....    B.W      0x29ea ; am_hal_mspi_control + 2422
        0x0000228c:    e2c8        ..      B        0x2820 ; am_hal_mspi_control + 1964
        0x0000228e:    e2b0        ..      B        0x27f2 ; am_hal_mspi_control + 1918
        0x00002290:    e29f        ..      B        0x27d2 ; am_hal_mspi_control + 1886
        0x00002292:    e286        ..      B        0x27a2 ; am_hal_mspi_control + 1838
        0x00002294:    e1ba        ..      B        0x260c ; am_hal_mspi_control + 1432
        0x00002296:    e140        @.      B        0x251a ; am_hal_mspi_control + 1190
        0x00002298:    e13d        =.      B        0x2516 ; am_hal_mspi_control + 1186
        0x0000229a:    e0f5        ..      B        0x2488 ; am_hal_mspi_control + 1044
        0x0000229c:    e099        ..      B        0x23d2 ; am_hal_mspi_control + 862
        0x0000229e:    e089        ..      B        0x23b4 ; am_hal_mspi_control + 832
        0x000022a0:    e06e        n.      B        0x2380 ; am_hal_mspi_control + 780
        0x000022a2:    e001        ..      B        0x22a8 ; am_hal_mspi_control + 564
        0x000022a4:    e01a        ..      B        0x22dc ; am_hal_mspi_control + 616
        0x000022a6:    e2f9        ..      B        0x289c ; am_hal_mspi_control + 2088
        0x000022a8:    7810        .x      LDRB     r0,[r2,#0]
        0x000022aa:    b118        ..      CBZ      r0,0x22b4 ; am_hal_mspi_control + 576
        0x000022ac:    2801        .(      CMP      r0,#1
        0x000022ae:    d00b        ..      BEQ      0x22c8 ; am_hal_mspi_control + 596
        0x000022b0:    f000bac9    ....    B.W      0x2846 ; am_hal_mspi_control + 2002
        0x000022b4:    0328        (.      LSLS     r0,r5,#12
        0x000022b6:    f1004080    ...@    ADD      r0,r0,#0x40000000
        0x000022ba:    f50020c0    ...     ADD      r0,r0,#0x60000
        0x000022be:    f8d01090    ....    LDR      r1,[r0,#0x90]
        0x000022c2:    f0210101    !...    BIC      r1,r1,#1
        0x000022c6:    e7cf        ..      B        0x2268 ; am_hal_mspi_control + 500
        0x000022c8:    0328        (.      LSLS     r0,r5,#12
        0x000022ca:    f1004080    ...@    ADD      r0,r0,#0x40000000
        0x000022ce:    f50020c0    ...     ADD      r0,r0,#0x60000
        0x000022d2:    f8d010d0    ....    LDR      r1,[r0,#0xd0]
        0x000022d6:    f0210101    !...    BIC      r1,r1,#1
        0x000022da:    e7d3        ..      B        0x2284 ; am_hal_mspi_control + 528
        0x000022dc:    b125        %.      CBZ      r5,0x22e8 ; am_hal_mspi_control + 628
        0x000022de:    2d01        .-      CMP      r5,#1
        0x000022e0:    d00a        ..      BEQ      0x22f8 ; am_hal_mspi_control + 644
        0x000022e2:    2d02        .-      CMP      r5,#2
        0x000022e4:    d010        ..      BEQ      0x2308 ; am_hal_mspi_control + 660
        0x000022e6:    e016        ..      B        0x2316 ; am_hal_mspi_control + 674
        0x000022e8:    68d0        .h      LDR      r0,[r2,#0xc]
        0x000022ea:    f1a050a0    ...P    SUB      r0,r0,#0x14000000
        0x000022ee:    f1b06f80    ...o    CMP      r0,#0x4000000
        0x000022f2:    f08082a8    ....    BCS.W    0x2846 ; am_hal_mspi_control + 2002
        0x000022f6:    e00e        ..      B        0x2316 ; am_hal_mspi_control + 674
        0x000022f8:    68d0        .h      LDR      r0,[r2,#0xc]
        0x000022fa:    f1a050c0    ...P    SUB      r0,r0,#0x18000000
        0x000022fe:    f1b06f80    ...o    CMP      r0,#0x4000000
        0x00002302:    f08082a0    ....    BCS.W    0x2846 ; am_hal_mspi_control + 2002
        0x00002306:    e006        ..      B        0x2316 ; am_hal_mspi_control + 674
        0x00002308:    68d0        .h      LDR      r0,[r2,#0xc]
        0x0000230a:    f1a050e0    ...P    SUB      r0,r0,#0x1c000000
        0x0000230e:    f1b06f80    ...o    CMP      r0,#0x4000000
        0x00002312:    f0808298    ....    BCS.W    0x2846 ; am_hal_mspi_control + 2002
        0x00002316:    495b        [I      LDR      r1,[pc,#364] ; [0x2484] = 0x3ff0000
        0x00002318:    68d0        .h      LDR      r0,[r2,#0xc]
        0x0000231a:    7c13        .|      LDRB     r3,[r2,#0x10]
        0x0000231c:    f04f0c10    O...    MOV      r12,#0x10
        0x00002320:    4008        .@      ANDS     r0,r0,r1
        0x00002322:    ea0c1303    ....    AND      r3,r12,r3,LSL #4
        0x00002326:    4318        .C      ORRS     r0,r0,r3
        0x00002328:    7c53        S|      LDRB     r3,[r2,#0x11]
        0x0000232a:    f003030f    ....    AND      r3,r3,#0xf
        0x0000232e:    4303        .C      ORRS     r3,r3,r0
        0x00002330:    7810        .x      LDRB     r0,[r2,#0]
        0x00002332:    b118        ..      CBZ      r0,0x233c ; am_hal_mspi_control + 712
        0x00002334:    2801        .(      CMP      r0,#1
        0x00002336:    d012        ..      BEQ      0x235e ; am_hal_mspi_control + 746
        0x00002338:    f000ba85    ....    B.W      0x2846 ; am_hal_mspi_control + 2002
        0x0000233c:    6850        Ph      LDR      r0,[r2,#4]
        0x0000233e:    6892        .h      LDR      r2,[r2,#8]
        0x00002340:    f3c04009    ...@    UBFX     r0,r0,#16,#10
        0x00002344:    4011        .@      ANDS     r1,r1,r2
        0x00002346:    4301        .C      ORRS     r1,r1,r0
        0x00002348:    0328        (.      LSLS     r0,r5,#12
        0x0000234a:    f1004080    ...@    ADD      r0,r0,#0x40000000
        0x0000234e:    f50020c0    ...     ADD      r0,r0,#0x60000
        0x00002352:    f8c0109c    ....    STR      r1,[r0,#0x9c]
        0x00002356:    f8c03080    ...0    STR      r3,[r0,#0x80]
        0x0000235a:    f000bb46    ..F.    B.W      0x29ea ; am_hal_mspi_control + 2422
        0x0000235e:    6850        Ph      LDR      r0,[r2,#4]
        0x00002360:    6892        .h      LDR      r2,[r2,#8]
        0x00002362:    f3c04009    ...@    UBFX     r0,r0,#16,#10
        0x00002366:    4011        .@      ANDS     r1,r1,r2
        0x00002368:    4301        .C      ORRS     r1,r1,r0
        0x0000236a:    0328        (.      LSLS     r0,r5,#12
        0x0000236c:    f1004080    ...@    ADD      r0,r0,#0x40000000
        0x00002370:    f50020c0    ...     ADD      r0,r0,#0x60000
        0x00002374:    f8c010dc    ....    STR      r1,[r0,#0xdc]
        0x00002378:    f8c030c0    ...0    STR      r3,[r0,#0xc0]
        0x0000237c:    f000bb35    ..5.    B.W      0x29ea ; am_hal_mspi_control + 2422
        0x00002380:    7810        .x      LDRB     r0,[r2,#0]
        0x00002382:    b118        ..      CBZ      r0,0x238c ; am_hal_mspi_control + 792
        0x00002384:    2801        .(      CMP      r0,#1
        0x00002386:    d00b        ..      BEQ      0x23a0 ; am_hal_mspi_control + 812
        0x00002388:    f000ba5d    ..].    B.W      0x2846 ; am_hal_mspi_control + 2002
        0x0000238c:    0328        (.      LSLS     r0,r5,#12
        0x0000238e:    f1004080    ...@    ADD      r0,r0,#0x40000000
        0x00002392:    f50020c0    ...     ADD      r0,r0,#0x60000
        0x00002396:    f8d01090    ....    LDR      r1,[r0,#0x90]
        0x0000239a:    f0410101    A...    ORR      r1,r1,#1
        0x0000239e:    e763        c.      B        0x2268 ; am_hal_mspi_control + 500
        0x000023a0:    0328        (.      LSLS     r0,r5,#12
        0x000023a2:    f1004080    ...@    ADD      r0,r0,#0x40000000
        0x000023a6:    f50020c0    ...     ADD      r0,r0,#0x60000
        0x000023aa:    f8d010d0    ....    LDR      r1,[r0,#0xd0]
        0x000023ae:    f0410101    A...    ORR      r1,r1,#1
        0x000023b2:    e767        g.      B        0x2284 ; am_hal_mspi_control + 528
        0x000023b4:    2a00        .*      CMP      r2,#0
        0x000023b6:    f000831a    ....    BEQ.W    0x29ee ; am_hal_mspi_control + 2426
        0x000023ba:    7850        Px      LDRB     r0,[r2,#1]
        0x000023bc:    7811        .x      LDRB     r1,[r2,#0]
        0x000023be:    f104020a    ....    ADD      r2,r4,#0xa
        0x000023c2:    5488        .T      STRB     r0,[r1,r2]
        0x000023c4:    4620         F      MOV      r0,r4
        0x000023c6:    f002fc75    ..u.    BL       mspi_device_configure ; 0x4cb4
        0x000023ca:    b003        ..      ADD      sp,sp,#0xc
        0x000023cc:    2000        .       MOVS     r0,#0
        0x000023ce:    e8bd83f0    ....    POP      {r4-r9,pc}
        0x000023d2:    0328        (.      LSLS     r0,r5,#12
        0x000023d4:    f1004080    ...@    ADD      r0,r0,#0x40000000
        0x000023d8:    f50020c0    ...     ADD      r0,r0,#0x60000
        0x000023dc:    7811        .x      LDRB     r1,[r2,#0]
        0x000023de:    f8d02084    ...     LDR      r2,[r0,#0x84]
        0x000023e2:    f3614215    a..B    BFI      r2,r1,#16,#6
        0x000023e6:    f8c02084    ...     STR      r2,[r0,#0x84]
        0x000023ea:    f8d02084    ...     LDR      r2,[r0,#0x84]
        0x000023ee:    2902        .)      CMP      r1,#2
        0x000023f0:    d01f        ..      BEQ      0x2432 ; am_hal_mspi_control + 958
        0x000023f2:    f0227280    "..r    BIC      r2,r2,#0x1000000
        0x000023f6:    f8c02084    ...     STR      r2,[r0,#0x84]
        0x000023fa:    f8d02084    ...     LDR      r2,[r0,#0x84]
        0x000023fe:    f4220200    "...    BIC      r2,r2,#0x800000
        0x00002402:    f8c02084    ...     STR      r2,[r0,#0x84]
        0x00002406:    f8d02084    ...     LDR      r2,[r0,#0x84]
        0x0000240a:    f4220280    "...    BIC      r2,r2,#0x400000
        0x0000240e:    f8c02084    ...     STR      r2,[r0,#0x84]
        0x00002412:    69a2        .i      LDR      r2,[r4,#0x18]
        0x00002414:    b372        r.      CBZ      r2,0x2474 ; am_hal_mspi_control + 1024
        0x00002416:    f8d02118    ...!    LDR      r2,[r0,#0x118]
        0x0000241a:    f022021f    "...    BIC      r2,r2,#0x1f
        0x0000241e:    3208        .2      ADDS     r2,r2,#8
        0x00002420:    f8c02118    ...!    STR      r2,[r0,#0x118]
        0x00002424:    f8d02118    ...!    LDR      r2,[r0,#0x118]
        0x00002428:    f42252f8    "..R    BIC      r2,r2,#0x1f00
        0x0000242c:    f5026200    ...b    ADD      r2,r2,#0x800
        0x00002430:    e01e        ..      B        0x2470 ; am_hal_mspi_control + 1020
        0x00002432:    f0427280    B..r    ORR      r2,r2,#0x1000000
        0x00002436:    f8c02084    ...     STR      r2,[r0,#0x84]
        0x0000243a:    f8d02084    ...     LDR      r2,[r0,#0x84]
        0x0000243e:    f4220200    "...    BIC      r2,r2,#0x800000
        0x00002442:    f8c02084    ...     STR      r2,[r0,#0x84]
        0x00002446:    f8d02084    ...     LDR      r2,[r0,#0x84]
        0x0000244a:    f4220280    "...    BIC      r2,r2,#0x400000
        0x0000244e:    f8c02084    ...     STR      r2,[r0,#0x84]
        0x00002452:    69a2        .i      LDR      r2,[r4,#0x18]
        0x00002454:    b172        r.      CBZ      r2,0x2474 ; am_hal_mspi_control + 1024
        0x00002456:    f8d02118    ...!    LDR      r2,[r0,#0x118]
        0x0000245a:    f022021f    "...    BIC      r2,r2,#0x1f
        0x0000245e:    320c        .2      ADDS     r2,r2,#0xc
        0x00002460:    f8c02118    ...!    STR      r2,[r0,#0x118]
        0x00002464:    f8d02118    ...!    LDR      r2,[r0,#0x118]
        0x00002468:    f42252f8    "..R    BIC      r2,r2,#0x1f00
        0x0000246c:    f5026280    ...b    ADD      r2,r2,#0x400
        0x00002470:    f8c02118    ...!    STR      r2,[r0,#0x118]
        0x00002474:    7321        !s      STRB     r1,[r4,#0xc]
        0x00002476:    f000bab8    ....    B.W      0x29ea ; am_hal_mspi_control + 2422
    $d
        0x0000247a:    0000        ..      DCW    0
        0x0000247c:    00bebebe    ....    DCD    12500670
        0x00002480:    00e0e0e0    ....    DCD    14737632
        0x00002484:    03ff0000    ....    DCD    67043328
    $t
        0x00002488:    6860        `h      LDR      r0,[r4,#4]
        0x0000248a:    4efd        .N      LDR      r6,[pc,#1012] ; [0x2880] = 0x186a0
        0x0000248c:    0300        ..      LSLS     r0,r0,#12
        0x0000248e:    f1004080    ...@    ADD      r0,r0,#0x40000000
        0x00002492:    f50020c0    ...     ADD      r0,r0,#0x60000
        0x00002496:    f44f0100    O...    MOV      r1,#0x800000
        0x0000249a:    4635        5F      MOV      r5,r6
        0x0000249c:    f8c012b4    ....    STR      r1,[r0,#0x2b4]
        0x000024a0:    6860        `h      LDR      r0,[r4,#4]
        0x000024a2:    0300        ..      LSLS     r0,r0,#12
        0x000024a4:    f1004080    ...@    ADD      r0,r0,#0x40000000
        0x000024a8:    f50020c0    ...     ADD      r0,r0,#0x60000
        0x000024ac:    f8d002a0    ....    LDR      r0,[r0,#0x2a0]
        0x000024b0:    f0100f01    ....    TST      r0,#1
        0x000024b4:    d01f        ..      BEQ      0x24f6 ; am_hal_mspi_control + 1154
        0x000024b6:    6860        `h      LDR      r0,[r4,#4]
        0x000024b8:    0300        ..      LSLS     r0,r0,#12
        0x000024ba:    f1004080    ...@    ADD      r0,r0,#0x40000000
        0x000024be:    f50020c0    ...     ADD      r0,r0,#0x60000
        0x000024c2:    f8d012ac    ....    LDR      r1,[r0,#0x2ac]
        0x000024c6:    f0110f08    ....    TST      r1,#8
        0x000024ca:    bf1c        ..      ITT      NE
        0x000024cc:    f8d002b8    ....    LDRNE    r0,[r0,#0x2b8]
        0x000024d0:    f0100f80    ....    TSTNE    r0,#0x80
        0x000024d4:    d10f        ..      BNE      0x24f6 ; am_hal_mspi_control + 1154
        0x000024d6:    1e6d        m.      SUBS     r5,r5,#1
        0x000024d8:    d31b        ..      BCC      0x2512 ; am_hal_mspi_control + 1182
        0x000024da:    2001        .       MOVS     r0,#1
        0x000024dc:    f7fffaea    ....    BL       am_hal_delay_us ; 0x1ab4
        0x000024e0:    6860        `h      LDR      r0,[r4,#4]
        0x000024e2:    0300        ..      LSLS     r0,r0,#12
        0x000024e4:    f1004080    ...@    ADD      r0,r0,#0x40000000
        0x000024e8:    f50020c0    ...     ADD      r0,r0,#0x60000
        0x000024ec:    f8d002a0    ....    LDR      r0,[r0,#0x2a0]
        0x000024f0:    f0100f01    ....    TST      r0,#1
        0x000024f4:    d1df        ..      BNE      0x24b6 ; am_hal_mspi_control + 1090
        0x000024f6:    2001        .       MOVS     r0,#1
        0x000024f8:    9000        ..      STR      r0,[sp,#0]
        0x000024fa:    49e2        .I      LDR      r1,[pc,#904] ; [0x2884] = 0x40060104
        0x000024fc:    6860        `h      LDR      r0,[r4,#4]
        0x000024fe:    2300        .#      MOVS     r3,#0
        0x00002500:    eb013100    ...1    ADD      r1,r1,r0,LSL #12
        0x00002504:    2201        ."      MOVS     r2,#1
        0x00002506:    4630        0F      MOV      r0,r6
        0x00002508:    f7fffade    ....    BL       am_hal_delay_us_status_check ; 0x1ac8
        0x0000250c:    4606        .F      MOV      r6,r0
        0x0000250e:    f000ba6c    ..l.    B.W      0x29ea ; am_hal_mspi_control + 2422
        0x00002512:    2004        .       MOVS     r0,#4
        0x00002514:    e7fa        ..      B        0x250c ; am_hal_mspi_control + 1176
        0x00002516:    2080        .       MOVS     r0,#0x80
        0x00002518:    e5f0        ..      B        0x20fc ; am_hal_mspi_control + 136
        0x0000251a:    2a00        .*      CMP      r2,#0
        0x0000251c:    f0008267    ..g.    BEQ.W    0x29ee ; am_hal_mspi_control + 2426
        0x00002520:    69a0        .i      LDR      r0,[r4,#0x18]
        0x00002522:    2800        .(      CMP      r0,#0
        0x00002524:    f0008191    ....    BEQ.W    0x284a ; am_hal_mspi_control + 2006
        0x00002528:    7810        .x      LDRB     r0,[r2,#0]
        0x0000252a:    1c07        ..      ADDS     r7,r0,#0
        0x0000252c:    bf18        ..      IT       NE
        0x0000252e:    2701        .'      MOVNE    r7,#1
        0x00002530:    f894082c    ..,.    LDRB     r0,[r4,#0x82c]
        0x00002534:    42b8        .B      CMP      r0,r7
        0x00002536:    bf02        ..      ITTT     EQ
        0x00002538:    2000        .       MOVEQ    r0,#0
        0x0000253a:    b003        ..      ADDEQ    sp,sp,#0xc
        0x0000253c:    e8bd83f0    ....    POPEQ    {r4-r9,pc}
        0x00002540:    b3f0        ..      CBZ      r0,0x25c0 ; am_hal_mspi_control + 1356
        0x00002542:    2802        .(      CMP      r0,#2
        0x00002544:    d150        P.      BNE      0x25e8 ; am_hal_mspi_control + 1396
        0x00002546:    6860        `h      LDR      r0,[r4,#4]
        0x00002548:    4ecd        .N      LDR      r6,[pc,#820] ; [0x2880] = 0x186a0
        0x0000254a:    ea4f3000    O..0    LSL      r0,r0,#12
        0x0000254e:    f1004080    ...@    ADD      r0,r0,#0x40000000
        0x00002552:    f50020c0    ...     ADD      r0,r0,#0x60000
        0x00002556:    f44f0100    O...    MOV      r1,#0x800000
        0x0000255a:    4635        5F      MOV      r5,r6
        0x0000255c:    f8c012b4    ....    STR      r1,[r0,#0x2b4]
        0x00002560:    6860        `h      LDR      r0,[r4,#4]
        0x00002562:    ea4f3000    O..0    LSL      r0,r0,#12
        0x00002566:    f1004080    ...@    ADD      r0,r0,#0x40000000
        0x0000256a:    f50020c0    ...     ADD      r0,r0,#0x60000
        0x0000256e:    f8d002a0    ....    LDR      r0,[r0,#0x2a0]
        0x00002572:    f0100f01    ....    TST      r0,#1
        0x00002576:    d020         .      BEQ      0x25ba ; am_hal_mspi_control + 1350
        0x00002578:    6860        `h      LDR      r0,[r4,#4]
        0x0000257a:    ea4f3000    O..0    LSL      r0,r0,#12
        0x0000257e:    f1004080    ...@    ADD      r0,r0,#0x40000000
        0x00002582:    f50020c0    ...     ADD      r0,r0,#0x60000
        0x00002586:    f8d012ac    ....    LDR      r1,[r0,#0x2ac]
        0x0000258a:    f0110f08    ....    TST      r1,#8
        0x0000258e:    bf1c        ..      ITT      NE
        0x00002590:    f8d002b8    ....    LDRNE    r0,[r0,#0x2b8]
        0x00002594:    f0100f80    ....    TSTNE    r0,#0x80
        0x00002598:    d10f        ..      BNE      0x25ba ; am_hal_mspi_control + 1350
        0x0000259a:    1e6d        m.      SUBS     r5,r5,#1
        0x0000259c:    d31e        ..      BCC      0x25dc ; am_hal_mspi_control + 1384
        0x0000259e:    2001        .       MOVS     r0,#1
        0x000025a0:    f7fffa88    ....    BL       am_hal_delay_us ; 0x1ab4
        0x000025a4:    6860        `h      LDR      r0,[r4,#4]
        0x000025a6:    0300        ..      LSLS     r0,r0,#12
        0x000025a8:    f1004080    ...@    ADD      r0,r0,#0x40000000
        0x000025ac:    f50020c0    ...     ADD      r0,r0,#0x60000
        0x000025b0:    f8d002a0    ....    LDR      r0,[r0,#0x2a0]
        0x000025b4:    f0100f01    ....    TST      r0,#1
        0x000025b8:    d1de        ..      BNE      0x2578 ; am_hal_mspi_control + 1284
        0x000025ba:    2001        .       MOVS     r0,#1
        0x000025bc:    9000        ..      STR      r0,[sp,#0]
        0x000025be:    e000        ..      B        0x25c2 ; am_hal_mspi_control + 1358
        0x000025c0:    e00f        ..      B        0x25e2 ; am_hal_mspi_control + 1390
        0x000025c2:    49b0        .I      LDR      r1,[pc,#704] ; [0x2884] = 0x40060104
        0x000025c4:    6860        `h      LDR      r0,[r4,#4]
        0x000025c6:    2300        .#      MOVS     r3,#0
        0x000025c8:    eb013100    ...1    ADD      r1,r1,r0,LSL #12
        0x000025cc:    2201        ."      MOVS     r2,#1
        0x000025ce:    4630        0F      MOV      r0,r6
        0x000025d0:    f7fffa7a    ..z.    BL       am_hal_delay_us_status_check ; 0x1ac8
        0x000025d4:    0006        ..      MOVS     r6,r0
        0x000025d6:    f0408208    @...    BNE.W    0x29ea ; am_hal_mspi_control + 2422
        0x000025da:    e005        ..      B        0x25e8 ; am_hal_mspi_control + 1396
        0x000025dc:    2604        .&      MOVS     r6,#4
        0x000025de:    f000ba04    ....    B.W      0x29ea ; am_hal_mspi_control + 2422
        0x000025e2:    6a20         j      LDR      r0,[r4,#0x20]
        0x000025e4:    2800        .(      CMP      r0,#0
        0x000025e6:    d16d        m.      BNE      0x26c4 ; am_hal_mspi_control + 1616
        0x000025e8:    f8d40828    ..(.    LDR      r0,[r4,#0x828]
        0x000025ec:    f7fff9ec    ....    BL       am_hal_cmdq_reset ; 0x19c8
        0x000025f0:    2000        .       MOVS     r0,#0
        0x000025f2:    61e0        .a      STR      r0,[r4,#0x1c]
        0x000025f4:    f8c40830    ..0.    STR      r0,[r4,#0x830]
        0x000025f8:    6220         b      STR      r0,[r4,#0x20]
        0x000025fa:    f884782c    ..,x    STRB     r7,[r4,#0x82c]
        0x000025fe:    2101        .!      MOVS     r1,#1
        0x00002600:    f884182d    ..-.    STRB     r1,[r4,#0x82d]
        0x00002604:    f8c4085c    ..\.    STR      r0,[r4,#0x85c]
        0x00002608:    f000b9ef    ....    B.W      0x29ea ; am_hal_mspi_control + 2422
        0x0000260c:    f04f0800    O...    MOV      r8,#0
        0x00002610:    0016        ..      MOVS     r6,r2
        0x00002612:    4647        GF      MOV      r7,r8
        0x00002614:    f00081eb    ....    BEQ.W    0x29ee ; am_hal_mspi_control + 2426
        0x00002618:    7930        0y      LDRB     r0,[r6,#4]
        0x0000261a:    f0100fe0    ....    TST      r0,#0xe0
        0x0000261e:    f04081e6    @...    BNE.W    0x29ee ; am_hal_mspi_control + 2426
        0x00002622:    4999        .I      LDR      r1,[pc,#612] ; [0x2888] = 0xe0e0e0
        0x00002624:    68b0        .h      LDR      r0,[r6,#8]
        0x00002626:    4208        .B      TST      r0,r1
        0x00002628:    f04081e1    @...    BNE.W    0x29ee ; am_hal_mspi_control + 2426
        0x0000262c:    f894082c    ..,.    LDRB     r0,[r4,#0x82c]
        0x00002630:    2801        .(      CMP      r0,#1
        0x00002632:    d147        G.      BNE      0x26c4 ; am_hal_mspi_control + 1616
        0x00002634:    f8d40838    ..8.    LDR      r0,[r4,#0x838]
        0x00002638:    b150        P.      CBZ      r0,0x2650 ; am_hal_mspi_control + 1500
        0x0000263a:    2100        .!      MOVS     r1,#0
        0x0000263c:    f8c41838    ..8.    STR      r1,[r4,#0x838]
        0x00002640:    2120         !      MOVS     r1,#0x20
        0x00002642:    0328        (.      LSLS     r0,r5,#12
        0x00002644:    f1004080    ...@    ADD      r0,r0,#0x40000000
        0x00002648:    f50020c0    ...     ADD      r0,r0,#0x60000
        0x0000264c:    f8c012b4    ....    STR      r1,[r0,#0x2b4]
        0x00002650:    7830        0x      LDRB     r0,[r6,#0]
        0x00002652:    b3b0        ..      CBZ      r0,0x26c2 ; am_hal_mspi_control + 1614
        0x00002654:    f894082d    ..-.    LDRB     r0,[r4,#0x82d]
        0x00002658:    bb98        ..      CBNZ     r0,0x26c2 ; am_hal_mspi_control + 1614
        0x0000265a:    ab01        ..      ADD      r3,sp,#4
        0x0000265c:    466a        jF      MOV      r2,sp
        0x0000265e:    2101        .!      MOVS     r1,#1
        0x00002660:    f8d40828    ..(.    LDR      r0,[r4,#0x828]
        0x00002664:    f7feff96    ....    BL       am_hal_cmdq_alloc_block ; 0x1594
        0x00002668:    2800        .(      CMP      r0,#0
        0x0000266a:    bf1c        ..      ITT      NE
        0x0000266c:    b003        ..      ADDNE    sp,sp,#0xc
        0x0000266e:    e8bd83f0    ....    POPNE    {r4-r9,pc}
        0x00002672:    4a86        .J      LDR      r2,[pc,#536] ; [0x288c] = 0x561d
        0x00002674:    9801        ..      LDR      r0,[sp,#4]
        0x00002676:    b2c0        ..      UXTB     r0,r0
        0x00002678:    eb040080    ....    ADD      r0,r4,r0,LSL #2
        0x0000267c:    6282        .b      STR      r2,[r0,#0x28]
        0x0000267e:    9901        ..      LDR      r1,[sp,#4]
        0x00002680:    4883        .H      LDR      r0,[pc,#524] ; [0x2890] = 0x400602b4
        0x00002682:    b2c9        ..      UXTB     r1,r1
        0x00002684:    eb040181    ....    ADD      r1,r4,r1,LSL #2
        0x00002688:    eb003005    ...0    ADD      r0,r0,r5,LSL #12
        0x0000268c:    f8c14428    ..(D    STR      r4,[r1,#0x428]
        0x00002690:    9900        ..      LDR      r1,[sp,#0]
        0x00002692:    6008        .`      STR      r0,[r1,#0]
        0x00002694:    2000        .       MOVS     r0,#0
        0x00002696:    6048        H`      STR      r0,[r1,#4]
        0x00002698:    f7fdfe84    ....    BL       am_hal_interrupt_master_disable ; 0x3a4
        0x0000269c:    4680        .F      MOV      r8,r0
        0x0000269e:    2101        .!      MOVS     r1,#1
        0x000026a0:    f8d40828    ..(.    LDR      r0,[r4,#0x828]
        0x000026a4:    f7fff920    .. .    BL       am_hal_cmdq_post_block ; 0x18e8
        0x000026a8:    0007        ..      MOVS     r7,r0
        0x000026aa:    d00c        ..      BEQ      0x26c6 ; am_hal_mspi_control + 1618
        0x000026ac:    4640        @F      MOV      r0,r8
        0x000026ae:    f7fdfe7d    ..}.    BL       am_hal_interrupt_master_set ; 0x3ac
        0x000026b2:    f8d40828    ..(.    LDR      r0,[r4,#0x828]
        0x000026b6:    f7fff96b    ..k.    BL       am_hal_cmdq_release_block ; 0x1990
        0x000026ba:    4638        8F      MOV      r0,r7
        0x000026bc:    b003        ..      ADD      sp,sp,#0xc
        0x000026be:    e8bd83f0    ....    POP      {r4-r9,pc}
        0x000026c2:    e011        ..      B        0x26e8 ; am_hal_mspi_control + 1652
        0x000026c4:    e0ab        ..      B        0x281e ; am_hal_mspi_control + 1962
        0x000026c6:    6a27        'j      LDR      r7,[r4,#0x20]
        0x000026c8:    4640        @F      MOV      r0,r8
        0x000026ca:    1c79        y.      ADDS     r1,r7,#1
        0x000026cc:    6221        !b      STR      r1,[r4,#0x20]
        0x000026ce:    f7fdfe6d    ..m.    BL       am_hal_interrupt_master_set ; 0x3ac
        0x000026d2:    b92f        /.      CBNZ     r7,0x26e0 ; am_hal_mspi_control + 1644
        0x000026d4:    f8d40828    ..(.    LDR      r0,[r4,#0x828]
        0x000026d8:    f7feffe2    ....    BL       am_hal_cmdq_enable ; 0x16a0
        0x000026dc:    2800        .(      CMP      r0,#0
        0x000026de:    d1ed        ..      BNE      0x26bc ; am_hal_mspi_control + 1608
        0x000026e0:    f04f0840    O.@.    MOV      r8,#0x40
        0x000026e4:    f44f0780    O...    MOV      r7,#0x400000
        0x000026e8:    ab01        ..      ADD      r3,sp,#4
        0x000026ea:    466a        jF      MOV      r2,sp
        0x000026ec:    2103        .!      MOVS     r1,#3
        0x000026ee:    f8d40828    ..(.    LDR      r0,[r4,#0x828]
        0x000026f2:    f7feff4f    ..O.    BL       am_hal_cmdq_alloc_block ; 0x1594
        0x000026f6:    2800        .(      CMP      r0,#0
        0x000026f8:    d1e0        ..      BNE      0x26bc ; am_hal_mspi_control + 1608
        0x000026fa:    4966        fI      LDR      r1,[pc,#408] ; [0x2894] = 0x400602b8
        0x000026fc:    9800        ..      LDR      r0,[sp,#0]
        0x000026fe:    eb013105    ...1    ADD      r1,r1,r5,LSL #12
        0x00002702:    6081        .`      STR      r1,[r0,#8]
        0x00002704:    6001        .`      STR      r1,[r0,#0]
        0x00002706:    4962        bI      LDR      r1,[pc,#392] ; [0x2890] = 0x400602b4
        0x00002708:    eb013105    ...1    ADD      r1,r1,r5,LSL #12
        0x0000270c:    6101        .a      STR      r1,[r0,#0x10]
        0x0000270e:    6871        qh      LDR      r1,[r6,#4]
        0x00002710:    f8d42838    ..8(    LDR      r2,[r4,#0x838]
        0x00002714:    ea410108    A...    ORR      r1,r1,r8
        0x00002718:    2a01        .*      CMP      r2,#1
        0x0000271a:    d019        ..      BEQ      0x2750 ; am_hal_mspi_control + 1756
        0x0000271c:    2a02        .*      CMP      r2,#2
        0x0000271e:    bf0c        ..      ITE      EQ
        0x00002720:    f44f4180    O..A    MOVEQ    r1,#0x4000
        0x00002724:    f4414181    A..A    ORRNE    r1,r1,#0x4080
        0x00002728:    6041        A`      STR      r1,[r0,#4]
        0x0000272a:    f44f4180    O..A    MOV      r1,#0x4000
        0x0000272e:    60c1        .`      STR      r1,[r0,#0xc]
        0x00002730:    68b1        .h      LDR      r1,[r6,#8]
        0x00002732:    4339        9C      ORRS     r1,r1,r7
        0x00002734:    6141        Aa      STR      r1,[r0,#0x14]
        0x00002736:    f7fdfe35    ..5.    BL       am_hal_interrupt_master_disable ; 0x3a4
        0x0000273a:    4680        .F      MOV      r8,r0
        0x0000273c:    7830        0x      LDRB     r0,[r6,#0]
        0x0000273e:    f04f0100    O...    MOV      r1,#0
        0x00002742:    2800        .(      CMP      r0,#0
        0x00002744:    f8d40828    ..(.    LDR      r0,[r4,#0x828]
        0x00002748:    d009        ..      BEQ      0x275e ; am_hal_mspi_control + 1770
        0x0000274a:    f7fff8f3    ....    BL       am_hal_cmdq_post_loop_block ; 0x1934
        0x0000274e:    e008        ..      B        0x2762 ; am_hal_mspi_control + 1774
        0x00002750:    f24402a0    D...    MOV      r2,#0x40a0
        0x00002754:    4311        .C      ORRS     r1,r1,r2
        0x00002756:    2302        .#      MOVS     r3,#2
        0x00002758:    f8c43838    ..88    STR      r3,[r4,#0x838]
        0x0000275c:    e7e4        ..      B        0x2728 ; am_hal_mspi_control + 1716
        0x0000275e:    f7fff8c3    ....    BL       am_hal_cmdq_post_block ; 0x18e8
        0x00002762:    0005        ..      MOVS     r5,r0
        0x00002764:    d007        ..      BEQ      0x2776 ; am_hal_mspi_control + 1794
        0x00002766:    4640        @F      MOV      r0,r8
        0x00002768:    f7fdfe20    .. .    BL       am_hal_interrupt_master_set ; 0x3ac
        0x0000276c:    f8d40828    ..(.    LDR      r0,[r4,#0x828]
        0x00002770:    f7fff90e    ....    BL       am_hal_cmdq_release_block ; 0x1990
        0x00002774:    e013        ..      B        0x279e ; am_hal_mspi_control + 1834
        0x00002776:    6a27        'j      LDR      r7,[r4,#0x20]
        0x00002778:    1c79        y.      ADDS     r1,r7,#1
        0x0000277a:    6221        !b      STR      r1,[r4,#0x20]
        0x0000277c:    7830        0x      LDRB     r0,[r6,#0]
        0x0000277e:    2800        .(      CMP      r0,#0
        0x00002780:    bf14        ..      ITE      NE
        0x00002782:    2102        .!      MOVNE    r1,#2
        0x00002784:    2100        .!      MOVEQ    r1,#0
        0x00002786:    f884182c    ..,.    STRB     r1,[r4,#0x82c]
        0x0000278a:    4640        @F      MOV      r0,r8
        0x0000278c:    f7fdfe0e    ....    BL       am_hal_interrupt_master_set ; 0x3ac
        0x00002790:    b92f        /.      CBNZ     r7,0x279e ; am_hal_mspi_control + 1834
        0x00002792:    f8d40828    ..(.    LDR      r0,[r4,#0x828]
        0x00002796:    f7feff83    ....    BL       am_hal_cmdq_enable ; 0x16a0
        0x0000279a:    0005        ..      MOVS     r5,r0
        0x0000279c:    d18e        ..      BNE      0x26bc ; am_hal_mspi_control + 1608
        0x0000279e:    4628        (F      MOV      r0,r5
        0x000027a0:    e78c        ..      B        0x26bc ; am_hal_mspi_control + 1608
        0x000027a2:    2a00        .*      CMP      r2,#0
        0x000027a4:    d07a        z.      BEQ      0x289c ; am_hal_mspi_control + 2088
        0x000027a6:    f8d40854    ..T.    LDR      r0,[r4,#0x854]
        0x000027aa:    bbc0        ..      CBNZ     r0,0x281e ; am_hal_mspi_control + 1962
        0x000027ac:    2000        .       MOVS     r0,#0
        0x000027ae:    f8c40850    ..P.    STR      r0,[r4,#0x850]
        0x000027b2:    f8c40840    ..@.    STR      r0,[r4,#0x840]
        0x000027b6:    2001        .       MOVS     r0,#1
        0x000027b8:    f8c4084c    ..L.    STR      r0,[r4,#0x84c]
        0x000027bc:    6810        .h      LDR      r0,[r2,#0]
        0x000027be:    f8c40854    ..T.    STR      r0,[r4,#0x854]
        0x000027c2:    4935        5I      LDR      r1,[pc,#212] ; [0x2898] = 0xaaaaaaab
        0x000027c4:    6850        Ph      LDR      r0,[r2,#4]
        0x000027c6:    fba11000    ....    UMULL    r1,r0,r1,r0
        0x000027ca:    0900        ..      LSRS     r0,r0,#4
        0x000027cc:    f8c40848    ..H.    STR      r0,[r4,#0x848]
        0x000027d0:    e10b        ..      B        0x29ea ; am_hal_mspi_control + 2422
        0x000027d2:    0329        ).      LSLS     r1,r5,#12
        0x000027d4:    f1014180    ...A    ADD      r1,r1,#0x40000000
        0x000027d8:    f50121c0    ...!    ADD      r1,r1,#0x60000
        0x000027dc:    f44f1000    O...    MOV      r0,#0x200000
        0x000027e0:    f8c102b4    ....    STR      r0,[r1,#0x2b4]
        0x000027e4:    2001        .       MOVS     r0,#1
        0x000027e6:    f8c40838    ..8.    STR      r0,[r4,#0x838]
        0x000027ea:    2000        .       MOVS     r0,#0
        0x000027ec:    f8c40844    ..D.    STR      r0,[r4,#0x844]
        0x000027f0:    e0fb        ..      B        0x29ea ; am_hal_mspi_control + 2422
        0x000027f2:    2020                MOVS     r0,#0x20
        0x000027f4:    0329        ).      LSLS     r1,r5,#12
        0x000027f6:    f1014180    ...A    ADD      r1,r1,#0x40000000
        0x000027fa:    f50121c0    ...!    ADD      r1,r1,#0x60000
        0x000027fe:    f8c102b4    ....    STR      r0,[r1,#0x2b4]
        0x00002802:    2500        .%      MOVS     r5,#0
        0x00002804:    f8c45838    ..8X    STR      r5,[r4,#0x838]
        0x00002808:    f8d41844    ..D.    LDR      r1,[r4,#0x844]
        0x0000280c:    bbb9        ..      CBNZ     r1,0x287e ; am_hal_mspi_control + 2058
        0x0000280e:    4620         F      MOV      r0,r4
        0x00002810:    f002ff74    ..t.    BL       sched_hiprio ; 0x56fc
        0x00002814:    0006        ..      MOVS     r6,r0
        0x00002816:    bf08        ..      IT       EQ
        0x00002818:    f8c45844    ..DX    STREQ    r5,[r4,#0x844]
        0x0000281c:    e0e5        ..      B        0x29ea ; am_hal_mspi_control + 2422
        0x0000281e:    e014        ..      B        0x284a ; am_hal_mspi_control + 2006
        0x00002820:    0017        ..      MOVS     r7,r2
        0x00002822:    d03b        ;.      BEQ      0x289c ; am_hal_mspi_control + 2088
        0x00002824:    f8d4c828    ..(.    LDR      r12,[r4,#0x828]
        0x00002828:    f1bc0f00    ....    CMP      r12,#0
        0x0000282c:    d00d        ..      BEQ      0x284a ; am_hal_mspi_control + 2006
        0x0000282e:    6a20         j      LDR      r0,[r4,#0x20]
        0x00002830:    f5b07f80    ....    CMP      r0,#0x100
        0x00002834:    d007        ..      BEQ      0x2846 ; am_hal_mspi_control + 2002
        0x00002836:    68f8        .h      LDR      r0,[r7,#0xc]
        0x00002838:    ab01        ..      ADD      r3,sp,#4
        0x0000283a:    1cc1        ..      ADDS     r1,r0,#3
        0x0000283c:    466a        jF      MOV      r2,sp
        0x0000283e:    4660        `F      MOV      r0,r12
        0x00002840:    f7fefea8    ....    BL       am_hal_cmdq_alloc_block ; 0x1594
        0x00002844:    b118        ..      CBZ      r0,0x284e ; am_hal_mspi_control + 2010
        0x00002846:    2005        .       MOVS     r0,#5
        0x00002848:    e738        8.      B        0x26bc ; am_hal_mspi_control + 1608
        0x0000284a:    2007        .       MOVS     r0,#7
        0x0000284c:    e736        6.      B        0x26bc ; am_hal_mspi_control + 1608
        0x0000284e:    4811        .H      LDR      r0,[pc,#68] ; [0x2894] = 0x400602b8
        0x00002850:    9900        ..      LDR      r1,[sp,#0]
        0x00002852:    eb003805    ...8    ADD      r8,r0,r5,LSL #12
        0x00002856:    f8c18000    ....    STR      r8,[r1,#0]
        0x0000285a:    f8d42838    ..8(    LDR      r2,[r4,#0x838]
        0x0000285e:    6838        8h      LDR      r0,[r7,#0]
        0x00002860:    2a01        .*      CMP      r2,#1
        0x00002862:    d068        h.      BEQ      0x2936 ; am_hal_mspi_control + 2242
        0x00002864:    2a02        .*      CMP      r2,#2
        0x00002866:    bf0c        ..      ITE      EQ
        0x00002868:    f44f4080    O..@    MOVEQ    r0,#0x4000
        0x0000286c:    f4404081    @..@    ORRNE    r0,r0,#0x4080
        0x00002870:    f1010608    ....    ADD      r6,r1,#8
        0x00002874:    6048        H`      STR      r0,[r1,#4]
        0x00002876:    9600        ..      STR      r6,[sp,#0]
        0x00002878:    f8d7c00c    ....    LDR      r12,[r7,#0xc]
        0x0000287c:    e00f        ..      B        0x289e ; am_hal_mspi_control + 2090
        0x0000287e:    e0b4        ..      B        0x29ea ; am_hal_mspi_control + 2422
    $d
        0x00002880:    000186a0    ....    DCD    100000
        0x00002884:    40060104    ...@    DCD    1074135300
        0x00002888:    00e0e0e0    ....    DCD    14737632
        0x0000288c:    0000561d    .V..    DCD    22045
        0x00002890:    400602b4    ...@    DCD    1074135732
        0x00002894:    400602b8    ...@    DCD    1074135736
        0x00002898:    aaaaaaab    ....    DCD    2863311531
    $t
        0x0000289c:    e0a7        ..      B        0x29ee ; am_hal_mspi_control + 2426
        0x0000289e:    f1bc0f00    ....    CMP      r12,#0
        0x000028a2:    d02c        ,.      BEQ      0x28fe ; am_hal_mspi_control + 2186
        0x000028a4:    68b8        .h      LDR      r0,[r7,#8]
        0x000028a6:    f1a60208    ....    SUB      r2,r6,#8
        0x000028aa:    f1a00308    ....    SUB      r3,r0,#8
        0x000028ae:    1f01        ..      SUBS     r1,r0,#4
        0x000028b0:    1f30        0.      SUBS     r0,r6,#4
        0x000028b2:    f01c0f01    ....    TST      r12,#1
        0x000028b6:    d007        ..      BEQ      0x28c8 ; am_hal_mspi_control + 2132
        0x000028b8:    f853cf08    S...    LDR      r12,[r3,#8]!
        0x000028bc:    f842cf08    B...    STR      r12,[r2,#8]!
        0x000028c0:    f851cf08    Q...    LDR      r12,[r1,#8]!
        0x000028c4:    f840cf08    @...    STR      r12,[r0,#8]!
        0x000028c8:    f8d7c00c    ....    LDR      r12,[r7,#0xc]
        0x000028cc:    ea5f0c5c    _.\.    LSRS     r12,r12,#1
        0x000028d0:    d010        ..      BEQ      0x28f4 ; am_hal_mspi_control + 2176
        0x000028d2:    688e        .h      LDR      r6,[r1,#8]
        0x000028d4:    f8d39008    ....    LDR      r9,[r3,#8]
        0x000028d8:    f8c29008    ....    STR      r9,[r2,#8]
        0x000028dc:    6086        .`      STR      r6,[r0,#8]
        0x000028de:    f8516f10    Q..o    LDR      r6,[r1,#0x10]!
        0x000028e2:    f8539f10    S...    LDR      r9,[r3,#0x10]!
        0x000028e6:    f8429f10    B...    STR      r9,[r2,#0x10]!
        0x000028ea:    f8406f10    @..o    STR      r6,[r0,#0x10]!
        0x000028ee:    f1bc0c01    ....    SUBS     r12,r12,#1
        0x000028f2:    d1ee        ..      BNE      0x28d2 ; am_hal_mspi_control + 2142
        0x000028f4:    68f8        .h      LDR      r0,[r7,#0xc]
        0x000028f6:    9900        ..      LDR      r1,[sp,#0]
        0x000028f8:    eb0100c0    ....    ADD      r0,r1,r0,LSL #3
        0x000028fc:    9000        ..      STR      r0,[sp,#0]
        0x000028fe:    69b8        .i      LDR      r0,[r7,#0x18]
        0x00002900:    2800        .(      CMP      r0,#0
        0x00002902:    bf1c        ..      ITT      NE
        0x00002904:    9900        ..      LDRNE    r1,[sp,#0]
        0x00002906:    6001        .`      STRNE    r1,[r0,#0]
        0x00002908:    f44f4180    O..A    MOV      r1,#0x4000
        0x0000290c:    9800        ..      LDR      r0,[sp,#0]
        0x0000290e:    e8e08102    ....    STRD     r8,r1,[r0],#8
        0x00002912:    4938        8I      LDR      r1,[pc,#224] ; [0x29f4] = 0x400602b4
        0x00002914:    9000        ..      STR      r0,[sp,#0]
        0x00002916:    eb013105    ...1    ADD      r1,r1,r5,LSL #12
        0x0000291a:    6001        .`      STR      r1,[r0,#0]
        0x0000291c:    6879        yh      LDR      r1,[r7,#4]
        0x0000291e:    6041        A`      STR      r1,[r0,#4]
        0x00002920:    693d        =i      LDR      r5,[r7,#0x10]
        0x00002922:    2d00        .-      CMP      r5,#0
        0x00002924:    bf01        ..      ITTTT    EQ
        0x00002926:    f8d40838    ..8.    LDREQ    r0,[r4,#0x838]
        0x0000292a:    2800        .(      CMPEQ    r0,#0
        0x0000292c:    f894082c    ..,.    LDRBEQ   r0,[r4,#0x82c]
        0x00002930:    2800        .(      CMPEQ    r0,#0
        0x00002932:    d111        ..      BNE      0x2958 ; am_hal_mspi_control + 2276
        0x00002934:    e008        ..      B        0x2948 ; am_hal_mspi_control + 2260
        0x00002936:    f24402a0    D...    MOV      r2,#0x40a0
        0x0000293a:    f04f0302    O...    MOV      r3,#2
        0x0000293e:    ea400002    @...    ORR      r0,r0,r2
        0x00002942:    f8c43838    ..88    STR      r3,[r4,#0x838]
        0x00002946:    e793        ..      B        0x2870 ; am_hal_mspi_control + 2044
        0x00002948:    f8d4185c    ..\.    LDR      r1,[r4,#0x85c]
        0x0000294c:    f8d40858    ..X.    LDR      r0,[r4,#0x858]
        0x00002950:    ebb10f50    ..P.    CMP      r1,r0,LSR #1
        0x00002954:    bf28        (.      IT       CS
        0x00002956:    4d28        (M      LDRCS    r5,[pc,#160] ; [0x29f8] = 0x561b
        0x00002958:    9801        ..      LDR      r0,[sp,#4]
        0x0000295a:    b2c1        ..      UXTB     r1,r0
        0x0000295c:    eb040081    ....    ADD      r0,r4,r1,LSL #2
        0x00002960:    6285        .b      STR      r5,[r0,#0x28]
        0x00002962:    9801        ..      LDR      r0,[sp,#4]
        0x00002964:    6979        yi      LDR      r1,[r7,#0x14]
        0x00002966:    b2c2        ..      UXTB     r2,r0
        0x00002968:    eb040082    ....    ADD      r0,r4,r2,LSL #2
        0x0000296c:    f8c01428    ..(.    STR      r1,[r0,#0x428]
        0x00002970:    f7fdfd18    ....    BL       am_hal_interrupt_master_disable ; 0x3a4
        0x00002974:    4681        .F      MOV      r9,r0
        0x00002976:    2d00        .-      CMP      r5,#0
        0x00002978:    bf14        ..      ITE      NE
        0x0000297a:    2101        .!      MOVNE    r1,#1
        0x0000297c:    2100        .!      MOVEQ    r1,#0
        0x0000297e:    f8d40828    ..(.    LDR      r0,[r4,#0x828]
        0x00002982:    f7feffb1    ....    BL       am_hal_cmdq_post_block ; 0x18e8
        0x00002986:    0006        ..      MOVS     r6,r0
        0x00002988:    d007        ..      BEQ      0x299a ; am_hal_mspi_control + 2342
        0x0000298a:    4648        HF      MOV      r0,r9
        0x0000298c:    f7fdfd0e    ....    BL       am_hal_interrupt_master_set ; 0x3ac
        0x00002990:    f8d40828    ..(.    LDR      r0,[r4,#0x828]
        0x00002994:    f7fefffc    ....    BL       am_hal_cmdq_release_block ; 0x1990
        0x00002998:    e027        '.      B        0x29ea ; am_hal_mspi_control + 2422
        0x0000299a:    f8d48020    .. .    LDR      r8,[r4,#0x20]
        0x0000299e:    f1080101    ....    ADD      r1,r8,#1
        0x000029a2:    6221        !b      STR      r1,[r4,#0x20]
        0x000029a4:    f8d40830    ..0.    LDR      r0,[r4,#0x830]
        0x000029a8:    1c41        A.      ADDS     r1,r0,#1
        0x000029aa:    f8c41830    ..0.    STR      r1,[r4,#0x830]
        0x000029ae:    6938        8i      LDR      r0,[r7,#0x10]
        0x000029b0:    b158        X.      CBZ      r0,0x29ca ; am_hal_mspi_control + 2390
        0x000029b2:    2000        .       MOVS     r0,#0
        0x000029b4:    f884082d    ..-.    STRB     r0,[r4,#0x82d]
        0x000029b8:    f8c4085c    ..\.    STR      r0,[r4,#0x85c]
        0x000029bc:    4648        HF      MOV      r0,r9
        0x000029be:    f7fdfcf5    ....    BL       am_hal_interrupt_master_set ; 0x3ac
        0x000029c2:    f1b80f00    ....    CMP      r8,#0
        0x000029c6:    d110        ..      BNE      0x29ea ; am_hal_mspi_control + 2422
        0x000029c8:    e008        ..      B        0x29dc ; am_hal_mspi_control + 2408
        0x000029ca:    2d00        .-      CMP      r5,#0
        0x000029cc:    bf12        ..      ITEE     NE
        0x000029ce:    2100        .!      MOVNE    r1,#0
        0x000029d0:    f8d4085c    ..\.    LDREQ    r0,[r4,#0x85c]
        0x000029d4:    1c41        A.      ADDEQ    r1,r0,#1
        0x000029d6:    f8c4185c    ..\.    STR      r1,[r4,#0x85c]
        0x000029da:    e7ef        ..      B        0x29bc ; am_hal_mspi_control + 2376
        0x000029dc:    f8d40828    ..(.    LDR      r0,[r4,#0x828]
        0x000029e0:    f7fefe5e    ..^.    BL       am_hal_cmdq_enable ; 0x16a0
        0x000029e4:    0006        ..      MOVS     r6,r0
        0x000029e6:    f47fae69    ..i.    BNE      0x26bc ; am_hal_mspi_control + 1608
        0x000029ea:    4630        0F      MOV      r0,r6
        0x000029ec:    e666        f.      B        0x26bc ; am_hal_mspi_control + 1608
        0x000029ee:    2006        .       MOVS     r0,#6
        0x000029f0:    e664        d.      B        0x26bc ; am_hal_mspi_control + 1608
    $d
        0x000029f2:    0000        ..      DCW    0
        0x000029f4:    400602b4    ...@    DCD    1074135732
        0x000029f8:    0000561b    .V..    DCD    22043
    $t
    i.am_hal_mspi_deinitialize
    am_hal_mspi_deinitialize
        0x000029fc:    e92d41f0    -..A    PUSH     {r4-r8,lr}
        0x00002a00:    1e05        ..      SUBS     r5,r0,#0
        0x00002a02:    bf1c        ..      ITT      NE
        0x00002a04:    6801        .h      LDRNE    r1,[r0,#0]
        0x00002a06:    f0117f80    ....    TSTNE    r1,#0x1000000
        0x00002a0a:    d004        ..      BEQ      0x2a16 ; am_hal_mspi_deinitialize + 26
        0x00002a0c:    4b19        .K      LDR      r3,[pc,#100] ; [0x2a74] = 0xbebebe
        0x00002a0e:    f021427f    !..B    BIC      r2,r1,#0xff000000
        0x00002a12:    429a        .B      CMP      r2,r3
        0x00002a14:    d002        ..      BEQ      0x2a1c ; am_hal_mspi_deinitialize + 32
        0x00002a16:    2002        .       MOVS     r0,#2
        0x00002a18:    e8bd81f0    ....    POP      {r4-r8,pc}
        0x00002a1c:    f0117f00    ....    TST      r1,#0x2000000
        0x00002a20:    f04f0600    O...    MOV      r6,#0
        0x00002a24:    d01e        ..      BEQ      0x2a64 ; am_hal_mspi_deinitialize + 104
        0x00002a26:    69a8        .i      LDR      r0,[r5,#0x18]
        0x00002a28:    462c        ,F      MOV      r4,r5
        0x00002a2a:    b1b8        ..      CBZ      r0,0x2a5c ; am_hal_mspi_deinitialize + 96
        0x00002a2c:    f8d40828    ..(.    LDR      r0,[r4,#0x828]
        0x00002a30:    f7fefe16    ....    BL       am_hal_cmdq_disable ; 0x1660
        0x00002a34:    b9b0        ..      CBNZ     r0,0x2a64 ; am_hal_mspi_deinitialize + 104
        0x00002a36:    6860        `h      LDR      r0,[r4,#4]
        0x00002a38:    f2401119    @...    MOV      r1,#0x119
        0x00002a3c:    f8df8038    ..8.    LDR      r8,[pc,#56] ; [0x2a78] = 0x100056cc
        0x00002a40:    fb00f701    ....    MUL      r7,r0,r1
        0x00002a44:    eb0800c7    ....    ADD      r0,r8,r7,LSL #3
        0x00002a48:    f8d00828    ..(.    LDR      r0,[r0,#0x828]
        0x00002a4c:    b130        0.      CBZ      r0,0x2a5c ; am_hal_mspi_deinitialize + 96
        0x00002a4e:    2101        .!      MOVS     r1,#1
        0x00002a50:    f7feffec    ....    BL       am_hal_cmdq_term ; 0x1a2c
        0x00002a54:    eb0800c7    ....    ADD      r0,r8,r7,LSL #3
        0x00002a58:    f8c06828    ..(h    STR      r6,[r0,#0x828]
        0x00002a5c:    6820         h      LDR      r0,[r4,#0]
        0x00002a5e:    f0207000     ..p    BIC      r0,r0,#0x2000000
        0x00002a62:    6020         `      STR      r0,[r4,#0]
        0x00002a64:    6828        (h      LDR      r0,[r5,#0]
        0x00002a66:    f0207080     ..p    BIC      r0,r0,#0x1000000
        0x00002a6a:    e9c50600    ....    STRD     r0,r6,[r5,#0]
        0x00002a6e:    2000        .       MOVS     r0,#0
        0x00002a70:    e8bd81f0    ....    POP      {r4-r8,pc}
    $d
        0x00002a74:    00bebebe    ....    DCD    12500670
        0x00002a78:    100056cc    .V..    DCD    268457676
    $t
    i.am_hal_mspi_device_configure
    am_hal_mspi_device_configure
        0x00002a7c:    b570        p.      PUSH     {r4-r6,lr}
        0x00002a7e:    6842        Bh      LDR      r2,[r0,#4]
        0x00002a80:    460c        .F      MOV      r4,r1
        0x00002a82:    1e05        ..      SUBS     r5,r0,#0
        0x00002a84:    bf1c        ..      ITT      NE
        0x00002a86:    6828        (h      LDRNE    r0,[r5,#0]
        0x00002a88:    f0107f80    ....    TSTNE    r0,#0x1000000
        0x00002a8c:    d004        ..      BEQ      0x2a98 ; am_hal_mspi_device_configure + 28
        0x00002a8e:    4990        .I      LDR      r1,[pc,#576] ; [0x2cd0] = 0xbebebe
        0x00002a90:    f020407f     ..@    BIC      r0,r0,#0xff000000
        0x00002a94:    4288        .B      CMP      r0,r1
        0x00002a96:    d001        ..      BEQ      0x2a9c ; am_hal_mspi_device_configure + 32
        0x00002a98:    2002        .       MOVS     r0,#2
        0x00002a9a:    bd70        p.      POP      {r4-r6,pc}
        0x00002a9c:    7823        #x      LDRB     r3,[r4,#0]
        0x00002a9e:    2b02        .+      CMP      r3,#2
        0x00002aa0:    d20e        ..      BCS      0x2ac0 ; am_hal_mspi_device_configure + 68
        0x00002aa2:    7a28        (z      LDRB     r0,[r5,#8]
        0x00002aa4:    2800        .(      CMP      r0,#0
        0x00002aa6:    bf04        ..      ITT      EQ
        0x00002aa8:    2007        .       MOVEQ    r0,#7
        0x00002aaa:    bd70        p.      POPEQ    {r4-r6,pc}
        0x00002aac:    b113        ..      CBZ      r3,0x2ab4 ; am_hal_mspi_device_configure + 56
        0x00002aae:    2b01        .+      CMP      r3,#1
        0x00002ab0:    d009        ..      BEQ      0x2ac6 ; am_hal_mspi_device_configure + 74
        0x00002ab2:    e00e        ..      B        0x2ad2 ; am_hal_mspi_device_configure + 86
        0x00002ab4:    7b68        h{      LDRB     r0,[r5,#0xd]
        0x00002ab6:    2800        .(      CMP      r0,#0
        0x00002ab8:    bf1c        ..      ITT      NE
        0x00002aba:    7a61        az      LDRBNE   r1,[r4,#9]
        0x00002abc:    4281        .B      CMPNE    r1,r0
        0x00002abe:    d008        ..      BEQ      0x2ad2 ; am_hal_mspi_device_configure + 86
        0x00002ac0:    f04f0005    O...    MOV      r0,#5
        0x00002ac4:    bd70        p.      POP      {r4-r6,pc}
        0x00002ac6:    7b28        ({      LDRB     r0,[r5,#0xc]
        0x00002ac8:    2800        .(      CMP      r0,#0
        0x00002aca:    bf1c        ..      ITT      NE
        0x00002acc:    7a61        az      LDRBNE   r1,[r4,#9]
        0x00002ace:    4281        .B      CMPNE    r1,r0
        0x00002ad0:    d1f6        ..      BNE      0x2ac0 ; am_hal_mspi_device_configure + 68
        0x00002ad2:    78a0        .x      LDRB     r0,[r4,#2]
        0x00002ad4:    f04f0130    O.0.    MOV      r1,#0x30
        0x00002ad8:    ea011000    ....    AND      r0,r1,r0,LSL #4
        0x00002adc:    78e1        .x      LDRB     r1,[r4,#3]
        0x00002ade:    f04f0c40    O.@.    MOV      r12,#0x40
        0x00002ae2:    ea0c1181    ....    AND      r1,r12,r1,LSL #6
        0x00002ae6:    ea410000    A...    ORR      r0,r1,r0
        0x00002aea:    7861        ax      LDRB     r1,[r4,#1]
        0x00002aec:    f44f5c7c    O.|\    MOV      r12,#0x3f00
        0x00002af0:    ea0c2101    ...!    AND      r1,r12,r1,LSL #8
        0x00002af4:    ea410000    A...    ORR      r0,r1,r0
        0x00002af8:    7a21        !z      LDRB     r1,[r4,#8]
        0x00002afa:    b169        i.      CBZ      r1,0x2b18 ; am_hal_mspi_device_configure + 156
        0x00002afc:    2901        .)      CMP      r1,#1
        0x00002afe:    bf08        ..      IT       EQ
        0x00002b00:    f4404000    @..@    ORREQ    r0,r0,#0x8000
        0x00002b04:    d008        ..      BEQ      0x2b18 ; am_hal_mspi_device_configure + 156
        0x00002b06:    2902        .)      CMP      r1,#2
        0x00002b08:    bf08        ..      IT       EQ
        0x00002b0a:    f4404080    @..@    ORREQ    r0,r0,#0x4000
        0x00002b0e:    d003        ..      BEQ      0x2b18 ; am_hal_mspi_device_configure + 156
        0x00002b10:    2903        .)      CMP      r1,#3
        0x00002b12:    bf08        ..      IT       EQ
        0x00002b14:    f4404040    @.@@    ORREQ    r0,r0,#0xc000
        0x00002b18:    7a61        az      LDRB     r1,[r4,#9]
        0x00002b1a:    f44f1c7c    O.|.    MOV      r12,#0x3f0000
        0x00002b1e:    ea0c4c01    ...L    AND      r12,r12,r1,LSL #16
        0x00002b22:    ea4c0000    L...    ORR      r0,r12,r0
        0x00002b26:    2901        .)      CMP      r1,#1
        0x00002b28:    bf14        ..      ITE      NE
        0x00002b2a:    2902        .)      CMPNE    r1,#2
        0x00002b2c:    f04070a0    @..p    ORREQ    r0,r0,#0x1400000
        0x00002b30:    79e1        .y      LDRB     r1,[r4,#7]
        0x00002b32:    ea406081    @..`    ORR      r0,r0,r1,LSL #26
        0x00002b36:    b113        ..      CBZ      r3,0x2b3e ; am_hal_mspi_device_configure + 194
        0x00002b38:    2b01        .+      CMP      r3,#1
        0x00002b3a:    d008        ..      BEQ      0x2b4e ; am_hal_mspi_device_configure + 210
        0x00002b3c:    e00e        ..      B        0x2b5c ; am_hal_mspi_device_configure + 224
        0x00002b3e:    0311        ..      LSLS     r1,r2,#12
        0x00002b40:    f1014180    ...A    ADD      r1,r1,#0x40000000
        0x00002b44:    f50121c0    ...!    ADD      r1,r1,#0x60000
        0x00002b48:    f8c10084    ....    STR      r0,[r1,#0x84]
        0x00002b4c:    e006        ..      B        0x2b5c ; am_hal_mspi_device_configure + 224
        0x00002b4e:    0311        ..      LSLS     r1,r2,#12
        0x00002b50:    f1014180    ...A    ADD      r1,r1,#0x40000000
        0x00002b54:    f50121c0    ...!    ADD      r1,r1,#0x60000
        0x00002b58:    f8c100c4    ....    STR      r0,[r1,#0xc4]
        0x00002b5c:    0311        ..      LSLS     r1,r2,#12
        0x00002b5e:    f1014180    ...A    ADD      r1,r1,#0x40000000
        0x00002b62:    f50121c0    ...!    ADD      r1,r1,#0x60000
        0x00002b66:    6b0b        .k      LDR      r3,[r1,#0x30]
        0x00002b68:    f0230301    #...    BIC      r3,r3,#1
        0x00002b6c:    630b        .c      STR      r3,[r1,#0x30]
        0x00002b6e:    7823        #x      LDRB     r3,[r4,#0]
        0x00002b70:    2b00        .+      CMP      r3,#0
        0x00002b72:    bf08        ..      IT       EQ
        0x00002b74:    f8d10090    ....    LDREQ    r0,[r1,#0x90]
        0x00002b78:    d004        ..      BEQ      0x2b84 ; am_hal_mspi_device_configure + 264
        0x00002b7a:    2b01        .+      CMP      r3,#1
        0x00002b7c:    bf08        ..      IT       EQ
        0x00002b7e:    f8d100d0    ....    LDREQ    r0,[r1,#0xd0]
        0x00002b82:    d103        ..      BNE      0x2b8c ; am_hal_mspi_device_configure + 272
        0x00002b84:    f02000fc     ...    BIC      r0,r0,#0xfc
        0x00002b88:    f4205080     ..P    BIC      r0,r0,#0x1000
        0x00002b8c:    f895c00e    ....    LDRB     r12,[r5,#0xe]
        0x00002b90:    2610        .&      MOVS     r6,#0x10
        0x00002b92:    f040000c    @...    ORR      r0,r0,#0xc
        0x00002b96:    ea061c0c    ....    AND      r12,r6,r12,LSL #4
        0x00002b9a:    ea4c0000    L...    ORR      r0,r12,r0
        0x00002b9e:    f894c00d    ....    LDRB     r12,[r4,#0xd]
        0x00002ba2:    f1bc0f00    ....    CMP      r12,#0
        0x00002ba6:    bf18        ..      IT       NE
        0x00002ba8:    f0400020    @. .    ORRNE    r0,r0,#0x20
        0x00002bac:    f894c00b    ....    LDRB     r12,[r4,#0xb]
        0x00002bb0:    f1bc0f00    ....    CMP      r12,#0
        0x00002bb4:    bf18        ..      IT       NE
        0x00002bb6:    f0400040    @.@.    ORRNE    r0,r0,#0x40
        0x00002bba:    f894c00c    ....    LDRB     r12,[r4,#0xc]
        0x00002bbe:    f1bc0f00    ....    CMP      r12,#0
        0x00002bc2:    bf18        ..      IT       NE
        0x00002bc4:    f0400080    @...    ORRNE    r0,r0,#0x80
        0x00002bc8:    f894c00a    ....    LDRB     r12,[r4,#0xa]
        0x00002bcc:    f44f5680    O..V    MOV      r6,#0x1000
        0x00002bd0:    ea063c0c    ...<    AND      r12,r6,r12,LSL #12
        0x00002bd4:    ea4c0000    L...    ORR      r0,r12,r0
        0x00002bd8:    2b00        .+      CMP      r3,#0
        0x00002bda:    bf08        ..      IT       EQ
        0x00002bdc:    f8c10090    ....    STREQ    r0,[r1,#0x90]
        0x00002be0:    d003        ..      BEQ      0x2bea ; am_hal_mspi_device_configure + 366
        0x00002be2:    2b01        .+      CMP      r3,#1
        0x00002be4:    bf08        ..      IT       EQ
        0x00002be6:    f8c100d0    ....    STREQ    r0,[r1,#0xd0]
        0x00002bea:    7960        `y      LDRB     r0,[r4,#5]
        0x00002bec:    7923        #y      LDRB     r3,[r4,#4]
        0x00002bee:    ea404003    @..@    ORR      r0,r0,r3,LSL #16
        0x00002bf2:    7823        #x      LDRB     r3,[r4,#0]
        0x00002bf4:    2b00        .+      CMP      r3,#0
        0x00002bf6:    bf08        ..      IT       EQ
        0x00002bf8:    f8c10094    ....    STREQ    r0,[r1,#0x94]
        0x00002bfc:    d003        ..      BEQ      0x2c06 ; am_hal_mspi_device_configure + 394
        0x00002bfe:    2b01        .+      CMP      r3,#1
        0x00002c00:    bf08        ..      IT       EQ
        0x00002c02:    f8c100d4    ....    STREQ    r0,[r1,#0xd4]
        0x00002c06:    8a20         .      LDRH     r0,[r4,#0x10]
        0x00002c08:    7ca3        .|      LDRB     r3,[r4,#0x12]
        0x00002c0a:    f44f4c70    O.pL    MOV      r12,#0xf000
        0x00002c0e:    f3c0000b    ....    UBFX     r0,r0,#0,#12
        0x00002c12:    ea0c3303    ...3    AND      r3,r12,r3,LSL #12
        0x00002c16:    4318        .C      ORRS     r0,r0,r3
        0x00002c18:    7823        #x      LDRB     r3,[r4,#0]
        0x00002c1a:    2b00        .+      CMP      r3,#0
        0x00002c1c:    bf08        ..      IT       EQ
        0x00002c1e:    f8c10098    ....    STREQ    r0,[r1,#0x98]
        0x00002c22:    d003        ..      BEQ      0x2c2c ; am_hal_mspi_device_configure + 432
        0x00002c24:    2b01        .+      CMP      r3,#1
        0x00002c26:    bf08        ..      IT       EQ
        0x00002c28:    f8c100d8    ....    STREQ    r0,[r1,#0xd8]
        0x00002c2c:    6b08        .k      LDR      r0,[r1,#0x30]
        0x00002c2e:    f02000f0     ...    BIC      r0,r0,#0xf0
        0x00002c32:    3070        p0      ADDS     r0,r0,#0x70
        0x00002c34:    6308        .c      STR      r0,[r1,#0x30]
        0x00002c36:    2600        .&      MOVS     r6,#0
        0x00002c38:    73ae        .s      STRB     r6,[r5,#0xe]
        0x00002c3a:    69a8        .i      LDR      r0,[r5,#0x18]
        0x00002c3c:    b350        P.      CBZ      r0,0x2c94 ; am_hal_mspi_device_configure + 536
        0x00002c3e:    2020                MOVS     r0,#0x20
        0x00002c40:    f8c10114    ....    STR      r0,[r1,#0x114]
        0x00002c44:    7a60        `z      LDRB     r0,[r4,#9]
        0x00002c46:    2802        .(      CMP      r0,#2
        0x00002c48:    f8d10118    ....    LDR      r0,[r1,#0x118]
        0x00002c4c:    f020001f     ...    BIC      r0,r0,#0x1f
        0x00002c50:    d033        3.      BEQ      0x2cba ; am_hal_mspi_device_configure + 574
        0x00002c52:    3008        .0      ADDS     r0,r0,#8
        0x00002c54:    f8c10118    ....    STR      r0,[r1,#0x118]
        0x00002c58:    f8d10118    ....    LDR      r0,[r1,#0x118]
        0x00002c5c:    f42050f8     ..P    BIC      r0,r0,#0x1f00
        0x00002c60:    f5006000    ...`    ADD      r0,r0,#0x800
        0x00002c64:    f8c10118    ....    STR      r0,[r1,#0x118]
        0x00002c68:    6968        hi      LDR      r0,[r5,#0x14]
        0x00002c6a:    491a        .I      LDR      r1,[pc,#104] ; [0x2cd4] = 0xba2e8ba3
        0x00002c6c:    0080        ..      LSLS     r0,r0,#2
        0x00002c6e:    3820         8      SUBS     r0,r0,#0x20
        0x00002c70:    fba11000    ....    UMULL    r1,r0,r1,r0
        0x00002c74:    f2401119    @...    MOV      r1,#0x119
        0x00002c78:    434a        JC      MULS     r2,r1,r2
        0x00002c7a:    4917        .I      LDR      r1,[pc,#92] ; [0x2cd8] = 0x100056cc
        0x00002c7c:    0980        ..      LSRS     r0,r0,#6
        0x00002c7e:    eb0101c2    ....    ADD      r1,r1,r2,LSL #3
        0x00002c82:    f5b07f80    ....    CMP      r0,#0x100
        0x00002c86:    f8c10858    ..X.    STR      r0,[r1,#0x858]
        0x00002c8a:    bf88        ..      IT       HI
        0x00002c8c:    f44f7080    O..p    MOVHI    r0,#0x100
        0x00002c90:    f8c10858    ..X.    STR      r0,[r1,#0x858]
        0x00002c94:    7821        !x      LDRB     r1,[r4,#0]
        0x00002c96:    f105020a    ....    ADD      r2,r5,#0xa
        0x00002c9a:    79a0        .y      LDRB     r0,[r4,#6]
        0x00002c9c:    5488        .T      STRB     r0,[r1,r2]
        0x00002c9e:    4628        (F      MOV      r0,r5
        0x00002ca0:    f002f808    ....    BL       mspi_device_configure ; 0x4cb4
        0x00002ca4:    73ae        .s      STRB     r6,[r5,#0xe]
        0x00002ca6:    7821        !x      LDRB     r1,[r4,#0]
        0x00002ca8:    f105020c    ....    ADD      r2,r5,#0xc
        0x00002cac:    7a60        `z      LDRB     r0,[r4,#9]
        0x00002cae:    5488        .T      STRB     r0,[r1,r2]
        0x00002cb0:    f2427010    B..p    MOV      r0,#0x2710
        0x00002cb4:    6128        (a      STR      r0,[r5,#0x10]
        0x00002cb6:    2000        .       MOVS     r0,#0
        0x00002cb8:    bd70        p.      POP      {r4-r6,pc}
        0x00002cba:    300c        .0      ADDS     r0,r0,#0xc
        0x00002cbc:    f8c10118    ....    STR      r0,[r1,#0x118]
        0x00002cc0:    f8d10118    ....    LDR      r0,[r1,#0x118]
        0x00002cc4:    f42050f8     ..P    BIC      r0,r0,#0x1f00
        0x00002cc8:    f5006080    ...`    ADD      r0,r0,#0x400
        0x00002ccc:    e7ca        ..      B        0x2c64 ; am_hal_mspi_device_configure + 488
    $d
        0x00002cce:    0000        ..      DCW    0
        0x00002cd0:    00bebebe    ....    DCD    12500670
        0x00002cd4:    ba2e8ba3    ....    DCD    3123612579
        0x00002cd8:    100056cc    .V..    DCD    268457676
    $t
    i.am_hal_mspi_disable
    am_hal_mspi_disable
        0x00002cdc:    b570        p.      PUSH     {r4-r6,lr}
        0x00002cde:    0004        ..      MOVS     r4,r0
        0x00002ce0:    bf1c        ..      ITT      NE
        0x00002ce2:    6820         h      LDRNE    r0,[r4,#0]
        0x00002ce4:    f0107f80    ....    TSTNE    r0,#0x1000000
        0x00002ce8:    d004        ..      BEQ      0x2cf4 ; am_hal_mspi_disable + 24
        0x00002cea:    4a15        .J      LDR      r2,[pc,#84] ; [0x2d40] = 0xbebebe
        0x00002cec:    f020417f     ..A    BIC      r1,r0,#0xff000000
        0x00002cf0:    4291        .B      CMP      r1,r2
        0x00002cf2:    d001        ..      BEQ      0x2cf8 ; am_hal_mspi_disable + 28
        0x00002cf4:    2002        .       MOVS     r0,#2
        0x00002cf6:    bd70        p.      POP      {r4-r6,pc}
        0x00002cf8:    f0107000    ...p    ANDS     r0,r0,#0x2000000
        0x00002cfc:    bf08        ..      IT       EQ
        0x00002cfe:    bd70        p.      POPEQ    {r4-r6,pc}
        0x00002d00:    69a0        .i      LDR      r0,[r4,#0x18]
        0x00002d02:    b1b0        ..      CBZ      r0,0x2d32 ; am_hal_mspi_disable + 86
        0x00002d04:    f8d40828    ..(.    LDR      r0,[r4,#0x828]
        0x00002d08:    f7fefcaa    ....    BL       am_hal_cmdq_disable ; 0x1660
        0x00002d0c:    2800        .(      CMP      r0,#0
        0x00002d0e:    bf18        ..      IT       NE
        0x00002d10:    bd70        p.      POPNE    {r4-r6,pc}
        0x00002d12:    f2401119    @...    MOV      r1,#0x119
        0x00002d16:    6860        `h      LDR      r0,[r4,#4]
        0x00002d18:    4341        AC      MULS     r1,r0,r1
        0x00002d1a:    480a        .H      LDR      r0,[pc,#40] ; [0x2d44] = 0x100056cc
        0x00002d1c:    eb0005c1    ....    ADD      r5,r0,r1,LSL #3
        0x00002d20:    f8d50828    ..(.    LDR      r0,[r5,#0x828]
        0x00002d24:    b128        (.      CBZ      r0,0x2d32 ; am_hal_mspi_disable + 86
        0x00002d26:    2101        .!      MOVS     r1,#1
        0x00002d28:    f7fefe80    ....    BL       am_hal_cmdq_term ; 0x1a2c
        0x00002d2c:    2000        .       MOVS     r0,#0
        0x00002d2e:    f8c50828    ..(.    STR      r0,[r5,#0x828]
        0x00002d32:    6820         h      LDR      r0,[r4,#0]
        0x00002d34:    f0207000     ..p    BIC      r0,r0,#0x2000000
        0x00002d38:    6020         `      STR      r0,[r4,#0]
        0x00002d3a:    2000        .       MOVS     r0,#0
        0x00002d3c:    bd70        p.      POP      {r4-r6,pc}
    $d
        0x00002d3e:    0000        ..      DCW    0
        0x00002d40:    00bebebe    ....    DCD    12500670
        0x00002d44:    100056cc    .V..    DCD    268457676
    $t
    i.am_hal_mspi_enable
    am_hal_mspi_enable
        0x00002d48:    b570        p.      PUSH     {r4-r6,lr}
        0x00002d4a:    b084        ..      SUB      sp,sp,#0x10
        0x00002d4c:    1e04        ..      SUBS     r4,r0,#0
        0x00002d4e:    bf1c        ..      ITT      NE
        0x00002d50:    6820         h      LDRNE    r0,[r4,#0]
        0x00002d52:    f0107f80    ....    TSTNE    r0,#0x1000000
        0x00002d56:    d004        ..      BEQ      0x2d62 ; am_hal_mspi_enable + 26
        0x00002d58:    4925        %I      LDR      r1,[pc,#148] ; [0x2df0] = 0xbebebe
        0x00002d5a:    f020407f     ..@    BIC      r0,r0,#0xff000000
        0x00002d5e:    4288        .B      CMP      r0,r1
        0x00002d60:    d002        ..      BEQ      0x2d68 ; am_hal_mspi_enable + 32
        0x00002d62:    b004        ..      ADD      sp,sp,#0x10
        0x00002d64:    2002        .       MOVS     r0,#2
        0x00002d66:    bd70        p.      POP      {r4-r6,pc}
        0x00002d68:    7a20         z      LDRB     r0,[r4,#8]
        0x00002d6a:    2800        .(      CMP      r0,#0
        0x00002d6c:    bf02        ..      ITTT     EQ
        0x00002d6e:    2007        .       MOVEQ    r0,#7
        0x00002d70:    b004        ..      ADDEQ    sp,sp,#0x10
        0x00002d72:    bd70        p.      POPEQ    {r4-r6,pc}
        0x00002d74:    69a0        .i      LDR      r0,[r4,#0x18]
        0x00002d76:    b398        ..      CBZ      r0,0x2de0 ; am_hal_mspi_enable + 152
        0x00002d78:    2500        .%      MOVS     r5,#0
        0x00002d7a:    61e5        .a      STR      r5,[r4,#0x1c]
        0x00002d7c:    6225        %b      STR      r5,[r4,#0x20]
        0x00002d7e:    e9d41205    ....    LDRD     r1,r2,[r4,#0x14]
        0x00002d82:    6860        `h      LDR      r0,[r4,#4]
        0x00002d84:    0849        I.      LSRS     r1,r1,#1
        0x00002d86:    e9cd1200    ....    STRD     r1,r2,[sp,#0]
        0x00002d8a:    f2401119    @...    MOV      r1,#0x119
        0x00002d8e:    4341        AC      MULS     r1,r0,r1
        0x00002d90:    4a18        .J      LDR      r2,[pc,#96] ; [0x2df4] = 0x100056cc
        0x00002d92:    2601        .&      MOVS     r6,#1
        0x00002d94:    eb0201c1    ....    ADD      r1,r2,r1,LSL #3
        0x00002d98:    f6010228    ..(.    ADD      r2,r1,#0x828
        0x00002d9c:    3008        .0      ADDS     r0,r0,#8
        0x00002d9e:    f88d6008    ...`    STRB     r6,[sp,#8]
        0x00002da2:    b2c0        ..      UXTB     r0,r0
        0x00002da4:    4669        iF      MOV      r1,sp
        0x00002da6:    f7fefd27    ..'.    BL       am_hal_cmdq_init ; 0x17f8
        0x00002daa:    6861        ah      LDR      r1,[r4,#4]
        0x00002dac:    4812        .H      LDR      r0,[pc,#72] ; [0x2df8] = 0x400080
        0x00002dae:    0309        ..      LSLS     r1,r1,#12
        0x00002db0:    f1014180    ...A    ADD      r1,r1,#0x40000000
        0x00002db4:    f50121c0    ...!    ADD      r1,r1,#0x60000
        0x00002db8:    f8c102b4    ....    STR      r0,[r1,#0x2b4]
        0x00002dbc:    f8c45854    ..TX    STR      r5,[r4,#0x854]
        0x00002dc0:    f884583c    ..<X    STRB     r5,[r4,#0x83c]
        0x00002dc4:    f8c45844    ..DX    STR      r5,[r4,#0x844]
        0x00002dc8:    f8c45838    ..8X    STR      r5,[r4,#0x838]
        0x00002dcc:    f8c45840    ..@X    STR      r5,[r4,#0x840]
        0x00002dd0:    f884582c    ..,X    STRB     r5,[r4,#0x82c]
        0x00002dd4:    f8c45830    ..0X    STR      r5,[r4,#0x830]
        0x00002dd8:    f884682d    ..-h    STRB     r6,[r4,#0x82d]
        0x00002ddc:    f8c4585c    ..\X    STR      r5,[r4,#0x85c]
        0x00002de0:    6820         h      LDR      r0,[r4,#0]
        0x00002de2:    f0407000    @..p    ORR      r0,r0,#0x2000000
        0x00002de6:    6020         `      STR      r0,[r4,#0]
        0x00002de8:    b004        ..      ADD      sp,sp,#0x10
        0x00002dea:    2000        .       MOVS     r0,#0
        0x00002dec:    bd70        p.      POP      {r4-r6,pc}
    $d
        0x00002dee:    0000        ..      DCW    0
        0x00002df0:    00bebebe    ....    DCD    12500670
        0x00002df4:    100056cc    .V..    DCD    268457676
        0x00002df8:    00400080    ..@.    DCD    4194432
    $t
    i.am_hal_mspi_initialize
    am_hal_mspi_initialize
        0x00002dfc:    2803        .(      CMP      r0,#3
        0x00002dfe:    bf24        $.      ITT      CS
        0x00002e00:    2005        .       MOVCS    r0,#5
        0x00002e02:    4770        pG      BXCS     lr
        0x00002e04:    2900        .)      CMP      r1,#0
        0x00002e06:    bf04        ..      ITT      EQ
        0x00002e08:    2006        .       MOVEQ    r0,#6
        0x00002e0a:    4770        pG      BXEQ     lr
        0x00002e0c:    b410        ..      PUSH     {r4}
        0x00002e0e:    f2401219    @...    MOV      r2,#0x119
        0x00002e12:    fb00f302    ....    MUL      r3,r0,r2
        0x00002e16:    4a0d        .J      LDR      r2,[pc,#52] ; [0x2e4c] = 0x100056cc
        0x00002e18:    f852c033    R.3.    LDR      r12,[r2,r3,LSL #3]
        0x00002e1c:    f01c7f80    ....    TST      r12,#0x1000000
        0x00002e20:    bf1e        ..      ITTT     NE
        0x00002e22:    2007        .       MOVNE    r0,#7
        0x00002e24:    bc10        ..      POPNE    {r4}
        0x00002e26:    4770        pG      BXNE     lr
        0x00002e28:    f04c7c80    L..|    ORR      r12,r12,#0x1000000
        0x00002e2c:    4c08        .L      LDR      r4,[pc,#32] ; [0x2e50] = 0xbebebe
        0x00002e2e:    f3640c17    d...    BFI      r12,r4,#0,#24
        0x00002e32:    f842c033    B.3.    STR      r12,[r2,r3,LSL #3]
        0x00002e36:    eb0202c3    ....    ADD      r2,r2,r3,LSL #3
        0x00002e3a:    6050        P`      STR      r0,[r2,#4]
        0x00002e3c:    2000        .       MOVS     r0,#0
        0x00002e3e:    7310        .s      STRB     r0,[r2,#0xc]
        0x00002e40:    7350        Ps      STRB     r0,[r2,#0xd]
        0x00002e42:    6190        .a      STR      r0,[r2,#0x18]
        0x00002e44:    600a        .`      STR      r2,[r1,#0]
        0x00002e46:    bc10        ..      POP      {r4}
        0x00002e48:    4770        pG      BX       lr
    $d
        0x00002e4a:    0000        ..      DCW    0
        0x00002e4c:    100056cc    .V..    DCD    268457676
        0x00002e50:    00bebebe    ....    DCD    12500670
    $t
    i.am_hal_mspi_interrupt_clear
    am_hal_mspi_interrupt_clear
        0x00002e54:    2800        .(      CMP      r0,#0
        0x00002e56:    bf1c        ..      ITT      NE
        0x00002e58:    6802        .h      LDRNE    r2,[r0,#0]
        0x00002e5a:    f0127f80    ....    TSTNE    r2,#0x1000000
        0x00002e5e:    d004        ..      BEQ      0x2e6a ; am_hal_mspi_interrupt_clear + 22
        0x00002e60:    4b08        .K      LDR      r3,[pc,#32] ; [0x2e84] = 0xbebebe
        0x00002e62:    f022427f    "..B    BIC      r2,r2,#0xff000000
        0x00002e66:    429a        .B      CMP      r2,r3
        0x00002e68:    d001        ..      BEQ      0x2e6e ; am_hal_mspi_interrupt_clear + 26
        0x00002e6a:    2002        .       MOVS     r0,#2
        0x00002e6c:    4770        pG      BX       lr
        0x00002e6e:    6840        @h      LDR      r0,[r0,#4]
        0x00002e70:    0300        ..      LSLS     r0,r0,#12
        0x00002e72:    f1004080    ...@    ADD      r0,r0,#0x40000000
        0x00002e76:    f50020c0    ...     ADD      r0,r0,#0x60000
        0x00002e7a:    f8c01208    ....    STR      r1,[r0,#0x208]
        0x00002e7e:    2000        .       MOVS     r0,#0
        0x00002e80:    4770        pG      BX       lr
    $d
        0x00002e82:    0000        ..      DCW    0
        0x00002e84:    00bebebe    ....    DCD    12500670
    $t
    i.am_hal_mspi_interrupt_disable
    am_hal_mspi_interrupt_disable
        0x00002e88:    2800        .(      CMP      r0,#0
        0x00002e8a:    bf1c        ..      ITT      NE
        0x00002e8c:    6802        .h      LDRNE    r2,[r0,#0]
        0x00002e8e:    f0127f80    ....    TSTNE    r2,#0x1000000
        0x00002e92:    d004        ..      BEQ      0x2e9e ; am_hal_mspi_interrupt_disable + 22
        0x00002e94:    4b0a        .K      LDR      r3,[pc,#40] ; [0x2ec0] = 0xbebebe
        0x00002e96:    f022427f    "..B    BIC      r2,r2,#0xff000000
        0x00002e9a:    429a        .B      CMP      r2,r3
        0x00002e9c:    d001        ..      BEQ      0x2ea2 ; am_hal_mspi_interrupt_disable + 26
        0x00002e9e:    2002        .       MOVS     r0,#2
        0x00002ea0:    4770        pG      BX       lr
        0x00002ea2:    6840        @h      LDR      r0,[r0,#4]
        0x00002ea4:    0300        ..      LSLS     r0,r0,#12
        0x00002ea6:    f1004080    ...@    ADD      r0,r0,#0x40000000
        0x00002eaa:    f50020c0    ...     ADD      r0,r0,#0x60000
        0x00002eae:    f8d02200    ..."    LDR      r2,[r0,#0x200]
        0x00002eb2:    ea220101    "...    BIC      r1,r2,r1
        0x00002eb6:    f8c01200    ....    STR      r1,[r0,#0x200]
        0x00002eba:    2000        .       MOVS     r0,#0
        0x00002ebc:    4770        pG      BX       lr
    $d
        0x00002ebe:    0000        ..      DCW    0
        0x00002ec0:    00bebebe    ....    DCD    12500670
    $t
    i.am_hal_mspi_interrupt_enable
    am_hal_mspi_interrupt_enable
        0x00002ec4:    2800        .(      CMP      r0,#0
        0x00002ec6:    bf1c        ..      ITT      NE
        0x00002ec8:    6802        .h      LDRNE    r2,[r0,#0]
        0x00002eca:    f0127f80    ....    TSTNE    r2,#0x1000000
        0x00002ece:    d004        ..      BEQ      0x2eda ; am_hal_mspi_interrupt_enable + 22
        0x00002ed0:    4b09        .K      LDR      r3,[pc,#36] ; [0x2ef8] = 0xbebebe
        0x00002ed2:    f022427f    "..B    BIC      r2,r2,#0xff000000
        0x00002ed6:    429a        .B      CMP      r2,r3
        0x00002ed8:    d001        ..      BEQ      0x2ede ; am_hal_mspi_interrupt_enable + 26
        0x00002eda:    2002        .       MOVS     r0,#2
        0x00002edc:    4770        pG      BX       lr
        0x00002ede:    6840        @h      LDR      r0,[r0,#4]
        0x00002ee0:    0300        ..      LSLS     r0,r0,#12
        0x00002ee2:    f1004080    ...@    ADD      r0,r0,#0x40000000
        0x00002ee6:    f50020c0    ...     ADD      r0,r0,#0x60000
        0x00002eea:    f8d02200    ..."    LDR      r2,[r0,#0x200]
        0x00002eee:    4311        .C      ORRS     r1,r1,r2
        0x00002ef0:    f8c01200    ....    STR      r1,[r0,#0x200]
        0x00002ef4:    2000        .       MOVS     r0,#0
        0x00002ef6:    4770        pG      BX       lr
    $d
        0x00002ef8:    00bebebe    ....    DCD    12500670
    $t
    i.am_hal_mspi_interrupt_service
    am_hal_mspi_interrupt_service
        0x00002efc:    e92d43f0    -..C    PUSH     {r4-r9,lr}
        0x00002f00:    b085        ..      SUB      sp,sp,#0x14
        0x00002f02:    4689        .F      MOV      r9,r1
        0x00002f04:    1e04        ..      SUBS     r4,r0,#0
        0x00002f06:    bf1c        ..      ITT      NE
        0x00002f08:    6820         h      LDRNE    r0,[r4,#0]
        0x00002f0a:    f0107f80    ....    TSTNE    r0,#0x1000000
        0x00002f0e:    d004        ..      BEQ      0x2f1a ; am_hal_mspi_interrupt_service + 30
        0x00002f10:    499b        .I      LDR      r1,[pc,#620] ; [0x3180] = 0xbebebe
        0x00002f12:    f020407f     ..@    BIC      r0,r0,#0xff000000
        0x00002f16:    4288        .B      CMP      r0,r1
        0x00002f18:    d003        ..      BEQ      0x2f22 ; am_hal_mspi_interrupt_service + 38
        0x00002f1a:    b005        ..      ADD      sp,sp,#0x14
        0x00002f1c:    2002        .       MOVS     r0,#2
        0x00002f1e:    e8bd83f0    ....    POP      {r4-r9,pc}
        0x00002f22:    f894083c    ..<.    LDRB     r0,[r4,#0x83c]
        0x00002f26:    6865        eh      LDR      r5,[r4,#4]
        0x00002f28:    2600        .&      MOVS     r6,#0
        0x00002f2a:    2800        .(      CMP      r0,#0
        0x00002f2c:    d074        t.      BEQ      0x3018 ; am_hal_mspi_interrupt_service + 284
        0x00002f2e:    6a60        `j      LDR      r0,[r4,#0x24]
        0x00002f30:    ea400009    @...    ORR      r0,r0,r9
        0x00002f34:    f4105fc6    ..._    TST      r0,#0x18c0
        0x00002f38:    6260        `b      STR      r0,[r4,#0x24]
        0x00002f3a:    f000811c    ....    BEQ.W    0x3176 ; am_hal_mspi_interrupt_service + 634
        0x00002f3e:    0329        ).      LSLS     r1,r5,#12
        0x00002f40:    f1014180    ...A    ADD      r1,r1,#0x40000000
        0x00002f44:    f50121c0    ...!    ADD      r1,r1,#0x60000
        0x00002f48:    f8d12104    ...!    LDR      r2,[r1,#0x104]
        0x00002f4c:    f0120f01    ....    TST      r2,#1
        0x00002f50:    d1fa        ..      BNE      0x2f48 ; am_hal_mspi_interrupt_service + 76
        0x00002f52:    0329        ).      LSLS     r1,r5,#12
        0x00002f54:    f1014580    ...E    ADD      r5,r1,#0x40000000
        0x00002f58:    f50525c0    ...%    ADD      r5,r5,#0x60000
        0x00002f5c:    f8d51204    ....    LDR      r1,[r5,#0x204]
        0x00002f60:    4308        .C      ORRS     r0,r0,r1
        0x00002f62:    6260        `b      STR      r0,[r4,#0x24]
        0x00002f64:    f04f30ff    O..0    MOV      r0,#0xffffffff
        0x00002f68:    f8c50208    ....    STR      r0,[r5,#0x208]
        0x00002f6c:    8ca0        ..      LDRH     r0,[r4,#0x24]
        0x00002f6e:    f4105fc4    ..._    TST      r0,#0x1880
        0x00002f72:    bf08        ..      IT       EQ
        0x00002f74:    2100        .!      MOVEQ    r1,#0
        0x00002f76:    d00e        ..      BEQ      0x2f96 ; am_hal_mspi_interrupt_service + 154
        0x00002f78:    f8d50100    ....    LDR      r0,[r5,#0x100]
        0x00002f7c:    2101        .!      MOVS     r1,#1
        0x00002f7e:    f0200003     ...    BIC      r0,r0,#3
        0x00002f82:    f8c50100    ....    STR      r0,[r5,#0x100]
        0x00002f86:    6b28        (k      LDR      r0,[r5,#0x30]
        0x00002f88:    f0204080     ..@    BIC      r0,r0,#0x40000000
        0x00002f8c:    6328        (c      STR      r0,[r5,#0x30]
        0x00002f8e:    6b28        (k      LDR      r0,[r5,#0x30]
        0x00002f90:    f0404080    @..@    ORR      r0,r0,#0x40000000
        0x00002f94:    6328        (c      STR      r0,[r5,#0x30]
        0x00002f96:    f8d40850    ..P.    LDR      r0,[r4,#0x850]
        0x00002f9a:    1c40        @.      ADDS     r0,r0,#1
        0x00002f9c:    f8c40850    ..P.    STR      r0,[r4,#0x850]
        0x00002fa0:    f8d42840    ..@(    LDR      r2,[r4,#0x840]
        0x00002fa4:    1e52        R.      SUBS     r2,r2,#1
        0x00002fa6:    f8c42840    ..@(    STR      r2,[r4,#0x840]
        0x00002faa:    f8d42848    ..H(    LDR      r2,[r4,#0x848]
        0x00002fae:    fbb0f3f2    ....    UDIV     r3,r0,r2
        0x00002fb2:    fb020013    ....    MLS      r0,r2,r3,r0
        0x00002fb6:    f8d42854    ..T(    LDR      r2,[r4,#0x854]
        0x00002fba:    eb000040    ..@.    ADD      r0,r0,r0,LSL #1
        0x00002fbe:    eb0207c0    ....    ADD      r7,r2,r0,LSL #3
        0x00002fc2:    693a        :i      LDR      r2,[r7,#0x10]
        0x00002fc4:    b112        ..      CBZ      r2,0x2fcc ; am_hal_mspi_interrupt_service + 208
        0x00002fc6:    6978        xi      LDR      r0,[r7,#0x14]
        0x00002fc8:    4790        .G      BLX      r2
        0x00002fca:    613e        >a      STR      r6,[r7,#0x10]
        0x00002fcc:    f8d40840    ..@.    LDR      r0,[r4,#0x840]
        0x00002fd0:    b318        ..      CBZ      r0,0x301a ; am_hal_mspi_interrupt_service + 286
        0x00002fd2:    6266        fb      STR      r6,[r4,#0x24]
        0x00002fd4:    f8d41850    ..P.    LDR      r1,[r4,#0x850]
        0x00002fd8:    f8d42848    ..H(    LDR      r2,[r4,#0x848]
        0x00002fdc:    1c49        I.      ADDS     r1,r1,#1
        0x00002fde:    fbb1f3f2    ....    UDIV     r3,r1,r2
        0x00002fe2:    6860        `h      LDR      r0,[r4,#4]
        0x00002fe4:    fb021113    ....    MLS      r1,r2,r3,r1
        0x00002fe8:    0300        ..      LSLS     r0,r0,#12
        0x00002fea:    f1004080    ...@    ADD      r0,r0,#0x40000000
        0x00002fee:    f8d42854    ..T(    LDR      r2,[r4,#0x854]
        0x00002ff2:    f50020c0    ...     ADD      r0,r0,#0x60000
        0x00002ff6:    eb010141    ..A.    ADD      r1,r1,r1,LSL #1
        0x00002ffa:    eb0201c1    ....    ADD      r1,r2,r1,LSL #3
        0x00002ffe:    f8c06100    ...a    STR      r6,[r0,#0x100]
        0x00003002:    680a        .h      LDR      r2,[r1,#0]
        0x00003004:    f8c02108    ...!    STR      r2,[r0,#0x108]
        0x00003008:    684a        Jh      LDR      r2,[r1,#4]
        0x0000300a:    f8c0210c    ...!    STR      r2,[r0,#0x10c]
        0x0000300e:    688a        .h      LDR      r2,[r1,#8]
        0x00003010:    f8c02110    ...!    STR      r2,[r0,#0x110]
        0x00003014:    68c9        .h      LDR      r1,[r1,#0xc]
        0x00003016:    e0ac        ..      B        0x3172 ; am_hal_mspi_interrupt_service + 630
        0x00003018:    e00d        ..      B        0x3036 ; am_hal_mspi_interrupt_service + 314
        0x0000301a:    f884683c    ..<h    STRB     r6,[r4,#0x83c]
        0x0000301e:    f8c56100    ...a    STR      r6,[r5,#0x100]
        0x00003022:    f8d50200    ....    LDR      r0,[r5,#0x200]
        0x00003026:    f0200040     .@.    BIC      r0,r0,#0x40
        0x0000302a:    f8c50200    ....    STR      r0,[r5,#0x200]
        0x0000302e:    2080        .       MOVS     r0,#0x80
        0x00003030:    f8c502b4    ....    STR      r0,[r5,#0x2b4]
        0x00003034:    e09f        ..      B        0x3176 ; am_hal_mspi_interrupt_service + 634
        0x00003036:    6a20         j      LDR      r0,[r4,#0x20]
        0x00003038:    2800        .(      CMP      r0,#0
        0x0000303a:    d07c        |.      BEQ      0x3136 ; am_hal_mspi_interrupt_service + 570
        0x0000303c:    f2401019    @...    MOV      r0,#0x119
        0x00003040:    4950        PI      LDR      r1,[pc,#320] ; [0x3184] = 0x100056cc
        0x00003042:    4368        hC      MULS     r0,r5,r0
        0x00003044:    eb0107c0    ....    ADD      r7,r1,r0,LSL #3
        0x00003048:    f8d70828    ..(.    LDR      r0,[r7,#0x828]
        0x0000304c:    f6070728    ..(.    ADD      r7,r7,#0x828
        0x00003050:    2800        .(      CMP      r0,#0
        0x00003052:    d070        p.      BEQ      0x3136 ; am_hal_mspi_interrupt_service + 570
        0x00003054:    4669        iF      MOV      r1,sp
        0x00003056:    f7fefb7d    ..}.    BL       am_hal_cmdq_get_status ; 0x1754
        0x0000305a:    2800        .(      CMP      r0,#0
        0x0000305c:    bf08        ..      IT       EQ
        0x0000305e:    f8846834    ..4h    STRBEQ   r6,[r4,#0x834]
        0x00003062:    d015        ..      BEQ      0x3090 ; am_hal_mspi_interrupt_service + 404
        0x00003064:    e07a        z.      B        0x315c ; am_hal_mspi_interrupt_service + 608
        0x00003066:    1c40        @.      ADDS     r0,r0,#1
        0x00003068:    61e0        .a      STR      r0,[r4,#0x1c]
        0x0000306a:    6a21        !j      LDR      r1,[r4,#0x20]
        0x0000306c:    b2c0        ..      UXTB     r0,r0
        0x0000306e:    1e49        I.      SUBS     r1,r1,#1
        0x00003070:    eb040880    ....    ADD      r8,r4,r0,LSL #2
        0x00003074:    6221        !b      STR      r1,[r4,#0x20]
        0x00003076:    f8d82028    ..(     LDR      r2,[r8,#0x28]
        0x0000307a:    b14a        J.      CBZ      r2,0x3090 ; am_hal_mspi_interrupt_service + 404
        0x0000307c:    2100        .!      MOVS     r1,#0
        0x0000307e:    f8d80428    ..(.    LDR      r0,[r8,#0x428]
        0x00003082:    4790        .G      BLX      r2
        0x00003084:    f894082c    ..,.    LDRB     r0,[r4,#0x82c]
        0x00003088:    2802        .(      CMP      r0,#2
        0x0000308a:    bf18        ..      IT       NE
        0x0000308c:    f8c86028    ..(`    STRNE    r6,[r8,#0x28]
        0x00003090:    f8940834    ..4.    LDRB     r0,[r4,#0x834]
        0x00003094:    b918        ..      CBNZ     r0,0x309e ; am_hal_mspi_interrupt_service + 418
        0x00003096:    69e0        .i      LDR      r0,[r4,#0x1c]
        0x00003098:    9900        ..      LDR      r1,[sp,#0]
        0x0000309a:    4288        .B      CMP      r0,r1
        0x0000309c:    d1e3        ..      BNE      0x3066 ; am_hal_mspi_interrupt_service + 362
        0x0000309e:    f8940834    ..4.    LDRB     r0,[r4,#0x834]
        0x000030a2:    2800        .(      CMP      r0,#0
        0x000030a4:    d15a        Z.      BNE      0x315c ; am_hal_mspi_interrupt_service + 608
        0x000030a6:    f4195fc4    ..._    TST      r9,#0x1880
        0x000030aa:    bf04        ..      ITT      EQ
        0x000030ac:    f89d000e    ....    LDRBEQ   r0,[sp,#0xe]
        0x000030b0:    2800        .(      CMPEQ    r0,#0
        0x000030b2:    d048        H.      BEQ      0x3146 ; am_hal_mspi_interrupt_service + 586
        0x000030b4:    69e0        .i      LDR      r0,[r4,#0x1c]
        0x000030b6:    f1000001    ....    ADD      r0,r0,#1
        0x000030ba:    61e0        .a      STR      r0,[r4,#0x1c]
        0x000030bc:    6a21        !j      LDR      r1,[r4,#0x20]
        0x000030be:    b2c0        ..      UXTB     r0,r0
        0x000030c0:    f1a10101    ....    SUB      r1,r1,#1
        0x000030c4:    eb040880    ....    ADD      r8,r4,r0,LSL #2
        0x000030c8:    6221        !b      STR      r1,[r4,#0x20]
        0x000030ca:    f8d82028    ..(     LDR      r2,[r8,#0x28]
        0x000030ce:    b152        R.      CBZ      r2,0x30e6 ; am_hal_mspi_interrupt_service + 490
        0x000030d0:    f04f0101    O...    MOV      r1,#1
        0x000030d4:    f8d80428    ..(.    LDR      r0,[r8,#0x428]
        0x000030d8:    4790        .G      BLX      r2
        0x000030da:    f894082c    ..,.    LDRB     r0,[r4,#0x82c]
        0x000030de:    2802        .(      CMP      r0,#2
        0x000030e0:    bf18        ..      IT       NE
        0x000030e2:    f8c86028    ..(`    STRNE    r6,[r8,#0x28]
        0x000030e6:    f8d40828    ..(.    LDR      r0,[r4,#0x828]
        0x000030ea:    f7fefab9    ....    BL       am_hal_cmdq_disable ; 0x1660
        0x000030ee:    2800        .(      CMP      r0,#0
        0x000030f0:    bf1c        ..      ITT      NE
        0x000030f2:    b005        ..      ADDNE    sp,sp,#0x14
        0x000030f4:    e8bd83f0    ....    POPNE    {r4-r9,pc}
        0x000030f8:    0328        (.      LSLS     r0,r5,#12
        0x000030fa:    f1004080    ...@    ADD      r0,r0,#0x40000000
        0x000030fe:    f50020c0    ...     ADD      r0,r0,#0x60000
        0x00003102:    f8d01100    ....    LDR      r1,[r0,#0x100]
        0x00003106:    f0210103    !...    BIC      r1,r1,#3
        0x0000310a:    f8c01100    ....    STR      r1,[r0,#0x100]
        0x0000310e:    6b01        .k      LDR      r1,[r0,#0x30]
        0x00003110:    f0214180    !..A    BIC      r1,r1,#0x40000000
        0x00003114:    6301        .c      STR      r1,[r0,#0x30]
        0x00003116:    6b01        .k      LDR      r1,[r0,#0x30]
        0x00003118:    f0414180    A..A    ORR      r1,r1,#0x40000000
        0x0000311c:    6301        .c      STR      r1,[r0,#0x30]
        0x0000311e:    f8d012ac    ....    LDR      r1,[r0,#0x2ac]
        0x00003122:    f8c012ac    ....    STR      r1,[r0,#0x2ac]
        0x00003126:    6838        8h      LDR      r0,[r7,#0]
        0x00003128:    f7fefada    ....    BL       am_hal_cmdq_error_resume ; 0x16e0
        0x0000312c:    6a20         j      LDR      r0,[r4,#0x20]
        0x0000312e:    b160        `.      CBZ      r0,0x314a ; am_hal_mspi_interrupt_service + 590
        0x00003130:    f8d40828    ..(.    LDR      r0,[r4,#0x828]
        0x00003134:    e000        ..      B        0x3138 ; am_hal_mspi_interrupt_service + 572
        0x00003136:    e01e        ..      B        0x3176 ; am_hal_mspi_interrupt_service + 634
        0x00003138:    f7fefab2    ....    BL       am_hal_cmdq_enable ; 0x16a0
        0x0000313c:    2800        .(      CMP      r0,#0
        0x0000313e:    bf1c        ..      ITT      NE
        0x00003140:    b005        ..      ADDNE    sp,sp,#0x14
        0x00003142:    e8bd83f0    ....    POPNE    {r4-r9,pc}
        0x00003146:    6a20         j      LDR      r0,[r4,#0x20]
        0x00003148:    b9a8        ..      CBNZ     r0,0x3176 ; am_hal_mspi_interrupt_service + 634
        0x0000314a:    f8d40828    ..(.    LDR      r0,[r4,#0x828]
        0x0000314e:    f7fefa87    ....    BL       am_hal_cmdq_disable ; 0x1660
        0x00003152:    2800        .(      CMP      r0,#0
        0x00003154:    bf1c        ..      ITT      NE
        0x00003156:    b005        ..      ADDNE    sp,sp,#0x14
        0x00003158:    e8bd83f0    ....    POPNE    {r4-r9,pc}
        0x0000315c:    6a20         j      LDR      r0,[r4,#0x20]
        0x0000315e:    b950        P.      CBNZ     r0,0x3176 ; am_hal_mspi_interrupt_service + 634
        0x00003160:    0328        (.      LSLS     r0,r5,#12
        0x00003162:    f1004080    ...@    ADD      r0,r0,#0x40000000
        0x00003166:    f50020c0    ...     ADD      r0,r0,#0x60000
        0x0000316a:    f8d01100    ....    LDR      r1,[r0,#0x100]
        0x0000316e:    f0210103    !...    BIC      r1,r1,#3
        0x00003172:    f8c01100    ....    STR      r1,[r0,#0x100]
        0x00003176:    b005        ..      ADD      sp,sp,#0x14
        0x00003178:    2000        .       MOVS     r0,#0
        0x0000317a:    e8bd83f0    ....    POP      {r4-r9,pc}
    $d
        0x0000317e:    0000        ..      DCW    0
        0x00003180:    00bebebe    ....    DCD    12500670
        0x00003184:    100056cc    .V..    DCD    268457676
    $t
    i.am_hal_mspi_interrupt_status_get
    am_hal_mspi_interrupt_status_get
        0x00003188:    2800        .(      CMP      r0,#0
        0x0000318a:    bf1c        ..      ITT      NE
        0x0000318c:    6803        .h      LDRNE    r3,[r0,#0]
        0x0000318e:    f0137f80    ....    TSTNE    r3,#0x1000000
        0x00003192:    d005        ..      BEQ      0x31a0 ; am_hal_mspi_interrupt_status_get + 24
        0x00003194:    f8dfc034    ..4.    LDR      r12,[pc,#52] ; [0x31cc] = 0xbebebe
        0x00003198:    f023437f    #..C    BIC      r3,r3,#0xff000000
        0x0000319c:    4563        cE      CMP      r3,r12
        0x0000319e:    d001        ..      BEQ      0x31a4 ; am_hal_mspi_interrupt_status_get + 28
        0x000031a0:    2002        .       MOVS     r0,#2
        0x000031a2:    4770        pG      BX       lr
        0x000031a4:    6840        @h      LDR      r0,[r0,#4]
        0x000031a6:    2a00        .*      CMP      r2,#0
        0x000031a8:    ea4f3000    O..0    LSL      r0,r0,#12
        0x000031ac:    f1004080    ...@    ADD      r0,r0,#0x40000000
        0x000031b0:    f50020c0    ...     ADD      r0,r0,#0x60000
        0x000031b4:    bf1d        ..      ITTTE    NE
        0x000031b6:    f8d02204    ..."    LDRNE    r2,[r0,#0x204]
        0x000031ba:    f8d00200    ....    LDRNE    r0,[r0,#0x200]
        0x000031be:    4010        .@      ANDNE    r0,r0,r2
        0x000031c0:    f8d00204    ....    LDREQ    r0,[r0,#0x204]
        0x000031c4:    6008        .`      STR      r0,[r1,#0]
        0x000031c6:    2000        .       MOVS     r0,#0
        0x000031c8:    4770        pG      BX       lr
    $d
        0x000031ca:    0000        ..      DCW    0
        0x000031cc:    00bebebe    ....    DCD    12500670
    $t
    i.am_hal_mspi_nonblocking_transfer
    am_hal_mspi_nonblocking_transfer
        0x000031d0:    e92d4ff0    -..O    PUSH     {r4-r11,lr}
        0x000031d4:    b083        ..      SUB      sp,sp,#0xc
        0x000031d6:    4698        .F      MOV      r8,r3
        0x000031d8:    f8ddb030    ..0.    LDR      r11,[sp,#0x30]
        0x000031dc:    0004        ..      MOVS     r4,r0
        0x000031de:    bf1c        ..      ITT      NE
        0x000031e0:    6820         h      LDRNE    r0,[r4,#0]
        0x000031e2:    f0107f80    ....    TSTNE    r0,#0x1000000
        0x000031e6:    d004        ..      BEQ      0x31f2 ; am_hal_mspi_nonblocking_transfer + 34
        0x000031e8:    4b51        QK      LDR      r3,[pc,#324] ; [0x3330] = 0xbebebe
        0x000031ea:    f020407f     ..@    BIC      r0,r0,#0xff000000
        0x000031ee:    4298        .B      CMP      r0,r3
        0x000031f0:    d003        ..      BEQ      0x31fa ; am_hal_mspi_nonblocking_transfer + 42
        0x000031f2:    b003        ..      ADD      sp,sp,#0xc
        0x000031f4:    2002        .       MOVS     r0,#2
        0x000031f6:    e8bd8ff0    ....    POP      {r4-r11,pc}
        0x000031fa:    69a0        .i      LDR      r0,[r4,#0x18]
        0x000031fc:    2800        .(      CMP      r0,#0
        0x000031fe:    bf19        ..      ITTEE    NE
        0x00003200:    f894082c    ..,.    LDRBNE   r0,[r4,#0x82c]
        0x00003204:    2802        .(      CMPNE    r0,#2
        0x00003206:    2007        .       MOVEQ    r0,#7
        0x00003208:    b003        ..      ADDEQ    sp,sp,#0xc
        0x0000320a:    bf08        ..      IT       EQ
        0x0000320c:    e8bd8ff0    ....    POPEQ    {r4-r11,pc}
        0x00003210:    ea5f0608    _...    MOVS     r6,r8
        0x00003214:    bf02        ..      ITTT     EQ
        0x00003216:    f8d43838    ..88    LDREQ    r3,[r4,#0x838]
        0x0000321a:    2b00        .+      CMPEQ    r3,#0
        0x0000321c:    2800        .(      CMPEQ    r0,#0
        0x0000321e:    d107        ..      BNE      0x3230 ; am_hal_mspi_nonblocking_transfer + 96
        0x00003220:    f8d4385c    ..\8    LDR      r3,[r4,#0x85c]
        0x00003224:    f8d40858    ..X.    LDR      r0,[r4,#0x858]
        0x00003228:    ebb30f50    ..P.    CMP      r3,r0,LSR #1
        0x0000322c:    bf28        (.      IT       CS
        0x0000322e:    4e41        AN      LDRCS    r6,[pc,#260] ; [0x3334] = 0x561b
        0x00003230:    4625        %F      MOV      r5,r4
        0x00003232:    460f        .F      MOV      r7,r1
        0x00003234:    ea5f0902    _...    MOVS     r9,r2
        0x00003238:    f04f0001    O...    MOV      r0,#1
        0x0000323c:    f6040a28    ..(.    ADD      r10,r4,#0x828
        0x00003240:    bf08        ..      IT       EQ
        0x00003242:    2018        .       MOVEQ    r0,#0x18
        0x00003244:    d003        ..      BEQ      0x324e ; am_hal_mspi_nonblocking_transfer + 126
        0x00003246:    f1b90f01    ....    CMP      r9,#1
        0x0000324a:    bf08        ..      IT       EQ
        0x0000324c:    2050        P       MOVEQ    r0,#0x50
        0x0000324e:    6a29        )j      LDR      r1,[r5,#0x20]
        0x00003250:    f5b17f80    ....    CMP      r1,#0x100
        0x00003254:    bf02        ..      ITTT     EQ
        0x00003256:    2005        .       MOVEQ    r0,#5
        0x00003258:    b003        ..      ADDEQ    sp,sp,#0xc
        0x0000325a:    e8bd8ff0    ....    POPEQ    {r4-r11,pc}
        0x0000325e:    08c1        ..      LSRS     r1,r0,#3
        0x00003260:    466b        kF      MOV      r3,sp
        0x00003262:    aa01        ..      ADD      r2,sp,#4
        0x00003264:    f8da0000    ....    LDR      r0,[r10,#0]
        0x00003268:    f7fef994    ....    BL       am_hal_cmdq_alloc_block ; 0x1594
        0x0000326c:    2800        .(      CMP      r0,#0
        0x0000326e:    bf1c        ..      ITT      NE
        0x00003270:    b003        ..      ADDNE    sp,sp,#0xc
        0x00003272:    e8bd8ff0    ....    POPNE    {r4-r11,pc}
        0x00003276:    463b        ;F      MOV      r3,r7
        0x00003278:    4649        IF      MOV      r1,r9
        0x0000327a:    4628        (F      MOV      r0,r5
        0x0000327c:    9a01        ..      LDR      r2,[sp,#4]
        0x0000327e:    f000ffd9    ....    BL       build_dma_cmdlist ; 0x4234
        0x00003282:    0007        ..      MOVS     r7,r0
        0x00003284:    d007        ..      BEQ      0x3296 ; am_hal_mspi_nonblocking_transfer + 198
        0x00003286:    f8da0000    ....    LDR      r0,[r10,#0]
        0x0000328a:    f7fefb81    ....    BL       am_hal_cmdq_release_block ; 0x1990
        0x0000328e:    b003        ..      ADD      sp,sp,#0xc
        0x00003290:    4638        8F      MOV      r0,r7
        0x00003292:    e8bd8ff0    ....    POP      {r4-r11,pc}
        0x00003296:    9900        ..      LDR      r1,[sp,#0]
        0x00003298:    b2c9        ..      UXTB     r1,r1
        0x0000329a:    eb050181    ....    ADD      r1,r5,r1,LSL #2
        0x0000329e:    628e        .b      STR      r6,[r1,#0x28]
        0x000032a0:    9800        ..      LDR      r0,[sp,#0]
        0x000032a2:    b2c0        ..      UXTB     r0,r0
        0x000032a4:    eb050080    ....    ADD      r0,r5,r0,LSL #2
        0x000032a8:    f8c0b428    ..(.    STR      r11,[r0,#0x428]
        0x000032ac:    f7fdf87a    ..z.    BL       am_hal_interrupt_master_disable ; 0x3a4
        0x000032b0:    4681        .F      MOV      r9,r0
        0x000032b2:    2e00        ..      CMP      r6,#0
        0x000032b4:    bf14        ..      ITE      NE
        0x000032b6:    2101        .!      MOVNE    r1,#1
        0x000032b8:    2100        .!      MOVEQ    r1,#0
        0x000032ba:    f8d40828    ..(.    LDR      r0,[r4,#0x828]
        0x000032be:    f7fefb13    ....    BL       am_hal_cmdq_post_block ; 0x18e8
        0x000032c2:    0005        ..      MOVS     r5,r0
        0x000032c4:    d007        ..      BEQ      0x32d6 ; am_hal_mspi_nonblocking_transfer + 262
        0x000032c6:    4648        HF      MOV      r0,r9
        0x000032c8:    f7fdf870    ..p.    BL       am_hal_interrupt_master_set ; 0x3ac
        0x000032cc:    f8d40828    ..(.    LDR      r0,[r4,#0x828]
        0x000032d0:    f7fefb5e    ..^.    BL       am_hal_cmdq_release_block ; 0x1990
        0x000032d4:    e027        '.      B        0x3326 ; am_hal_mspi_nonblocking_transfer + 342
        0x000032d6:    6a27        'j      LDR      r7,[r4,#0x20]
        0x000032d8:    1c79        y.      ADDS     r1,r7,#1
        0x000032da:    6221        !b      STR      r1,[r4,#0x20]
        0x000032dc:    f8d40830    ..0.    LDR      r0,[r4,#0x830]
        0x000032e0:    1c41        A.      ADDS     r1,r0,#1
        0x000032e2:    2000        .       MOVS     r0,#0
        0x000032e4:    f8c41830    ..0.    STR      r1,[r4,#0x830]
        0x000032e8:    f1b80f00    ....    CMP      r8,#0
        0x000032ec:    bf1c        ..      ITT      NE
        0x000032ee:    f884082d    ..-.    STRBNE   r0,[r4,#0x82d]
        0x000032f2:    f8c4085c    ..\.    STRNE    r0,[r4,#0x85c]
        0x000032f6:    d109        ..      BNE      0x330c ; am_hal_mspi_nonblocking_transfer + 316
        0x000032f8:    2e00        ..      CMP      r6,#0
        0x000032fa:    bf18        ..      IT       NE
        0x000032fc:    f8c4085c    ..\.    STRNE    r0,[r4,#0x85c]
        0x00003300:    d104        ..      BNE      0x330c ; am_hal_mspi_nonblocking_transfer + 316
        0x00003302:    f8d4085c    ..\.    LDR      r0,[r4,#0x85c]
        0x00003306:    1c41        A.      ADDS     r1,r0,#1
        0x00003308:    f8c4185c    ..\.    STR      r1,[r4,#0x85c]
        0x0000330c:    4648        HF      MOV      r0,r9
        0x0000330e:    f7fdf84d    ..M.    BL       am_hal_interrupt_master_set ; 0x3ac
        0x00003312:    b947        G.      CBNZ     r7,0x3326 ; am_hal_mspi_nonblocking_transfer + 342
        0x00003314:    f8d40828    ..(.    LDR      r0,[r4,#0x828]
        0x00003318:    f7fef9c2    ....    BL       am_hal_cmdq_enable ; 0x16a0
        0x0000331c:    0005        ..      MOVS     r5,r0
        0x0000331e:    bf1c        ..      ITT      NE
        0x00003320:    b003        ..      ADDNE    sp,sp,#0xc
        0x00003322:    e8bd8ff0    ....    POPNE    {r4-r11,pc}
        0x00003326:    4628        (F      MOV      r0,r5
        0x00003328:    b003        ..      ADD      sp,sp,#0xc
        0x0000332a:    e8bd8ff0    ....    POP      {r4-r11,pc}
    $d
        0x0000332e:    0000        ..      DCW    0
        0x00003330:    00bebebe    ....    DCD    12500670
        0x00003334:    0000561b    .V..    DCD    22043
    $t
    i.am_hal_mspi_power_control
    am_hal_mspi_power_control
        0x00003338:    b570        p.      PUSH     {r4-r6,lr}
        0x0000333a:    4615        .F      MOV      r5,r2
        0x0000333c:    1e04        ..      SUBS     r4,r0,#0
        0x0000333e:    bf1c        ..      ITT      NE
        0x00003340:    6802        .h      LDRNE    r2,[r0,#0]
        0x00003342:    f0127f80    ....    TSTNE    r2,#0x1000000
        0x00003346:    d004        ..      BEQ      0x3352 ; am_hal_mspi_power_control + 26
        0x00003348:    f022437f    "..C    BIC      r3,r2,#0xff000000
        0x0000334c:    4afe        .J      LDR      r2,[pc,#1016] ; [0x3748] = 0xbebebe
        0x0000334e:    4293        .B      CMP      r3,r2
        0x00003350:    d001        ..      BEQ      0x3356 ; am_hal_mspi_power_control + 30
        0x00003352:    2002        .       MOVS     r0,#2
        0x00003354:    bd70        p.      POP      {r4-r6,pc}
        0x00003356:    2900        .)      CMP      r1,#0
        0x00003358:    f000811c    ....    BEQ.W    0x3594 ; am_hal_mspi_power_control + 604
        0x0000335c:    2901        .)      CMP      r1,#1
        0x0000335e:    bf1e        ..      ITTT     NE
        0x00003360:    2902        .)      CMPNE    r1,#2
        0x00003362:    2006        .       MOVNE    r0,#6
        0x00003364:    bd70        p.      POPNE    {r4-r6,pc}
        0x00003366:    2d00        .-      CMP      r5,#0
        0x00003368:    f00080f9    ....    BEQ.W    0x355e ; am_hal_mspi_power_control + 550
        0x0000336c:    6861        ah      LDR      r1,[r4,#4]
        0x0000336e:    0309        ..      LSLS     r1,r1,#12
        0x00003370:    f1014180    ...A    ADD      r1,r1,#0x40000000
        0x00003374:    f50121c0    ...!    ADD      r1,r1,#0x60000
        0x00003378:    f8d11080    ....    LDR      r1,[r1,#0x80]
        0x0000337c:    f8c41864    ..d.    STR      r1,[r4,#0x864]
        0x00003380:    6861        ah      LDR      r1,[r4,#4]
        0x00003382:    0309        ..      LSLS     r1,r1,#12
        0x00003384:    f1014180    ...A    ADD      r1,r1,#0x40000000
        0x00003388:    f50121c0    ...!    ADD      r1,r1,#0x60000
        0x0000338c:    f8d11084    ....    LDR      r1,[r1,#0x84]
        0x00003390:    f8c41868    ..h.    STR      r1,[r4,#0x868]
        0x00003394:    6861        ah      LDR      r1,[r4,#4]
        0x00003396:    0309        ..      LSLS     r1,r1,#12
        0x00003398:    f1014180    ...A    ADD      r1,r1,#0x40000000
        0x0000339c:    f50121c0    ...!    ADD      r1,r1,#0x60000
        0x000033a0:    f8d11090    ....    LDR      r1,[r1,#0x90]
        0x000033a4:    f8c4186c    ..l.    STR      r1,[r4,#0x86c]
        0x000033a8:    6861        ah      LDR      r1,[r4,#4]
        0x000033aa:    0309        ..      LSLS     r1,r1,#12
        0x000033ac:    f1014180    ...A    ADD      r1,r1,#0x40000000
        0x000033b0:    f50121c0    ...!    ADD      r1,r1,#0x60000
        0x000033b4:    f8d11094    ....    LDR      r1,[r1,#0x94]
        0x000033b8:    f8c41870    ..p.    STR      r1,[r4,#0x870]
        0x000033bc:    6861        ah      LDR      r1,[r4,#4]
        0x000033be:    0309        ..      LSLS     r1,r1,#12
        0x000033c0:    f1014180    ...A    ADD      r1,r1,#0x40000000
        0x000033c4:    f50121c0    ...!    ADD      r1,r1,#0x60000
        0x000033c8:    f8d11098    ....    LDR      r1,[r1,#0x98]
        0x000033cc:    f8c41874    ..t.    STR      r1,[r4,#0x874]
        0x000033d0:    6861        ah      LDR      r1,[r4,#4]
        0x000033d2:    0309        ..      LSLS     r1,r1,#12
        0x000033d4:    f1014180    ...A    ADD      r1,r1,#0x40000000
        0x000033d8:    f50121c0    ...!    ADD      r1,r1,#0x60000
        0x000033dc:    f8d1109c    ....    LDR      r1,[r1,#0x9c]
        0x000033e0:    f8c41878    ..x.    STR      r1,[r4,#0x878]
        0x000033e4:    6861        ah      LDR      r1,[r4,#4]
        0x000033e6:    0309        ..      LSLS     r1,r1,#12
        0x000033e8:    f1014180    ...A    ADD      r1,r1,#0x40000000
        0x000033ec:    f50121c0    ...!    ADD      r1,r1,#0x60000
        0x000033f0:    f8d110c0    ....    LDR      r1,[r1,#0xc0]
        0x000033f4:    f8c4187c    ..|.    STR      r1,[r4,#0x87c]
        0x000033f8:    6861        ah      LDR      r1,[r4,#4]
        0x000033fa:    0309        ..      LSLS     r1,r1,#12
        0x000033fc:    f1014180    ...A    ADD      r1,r1,#0x40000000
        0x00003400:    f50121c0    ...!    ADD      r1,r1,#0x60000
        0x00003404:    f8d110c4    ....    LDR      r1,[r1,#0xc4]
        0x00003408:    f8c41880    ....    STR      r1,[r4,#0x880]
        0x0000340c:    6861        ah      LDR      r1,[r4,#4]
        0x0000340e:    0309        ..      LSLS     r1,r1,#12
        0x00003410:    f1014180    ...A    ADD      r1,r1,#0x40000000
        0x00003414:    f50121c0    ...!    ADD      r1,r1,#0x60000
        0x00003418:    f8d110d0    ....    LDR      r1,[r1,#0xd0]
        0x0000341c:    f8c41884    ....    STR      r1,[r4,#0x884]
        0x00003420:    6861        ah      LDR      r1,[r4,#4]
        0x00003422:    0309        ..      LSLS     r1,r1,#12
        0x00003424:    f1014180    ...A    ADD      r1,r1,#0x40000000
        0x00003428:    f50121c0    ...!    ADD      r1,r1,#0x60000
        0x0000342c:    f8d110d4    ....    LDR      r1,[r1,#0xd4]
        0x00003430:    f8c41888    ....    STR      r1,[r4,#0x888]
        0x00003434:    6861        ah      LDR      r1,[r4,#4]
        0x00003436:    0309        ..      LSLS     r1,r1,#12
        0x00003438:    f1014180    ...A    ADD      r1,r1,#0x40000000
        0x0000343c:    f50121c0    ...!    ADD      r1,r1,#0x60000
        0x00003440:    f8d110d8    ....    LDR      r1,[r1,#0xd8]
        0x00003444:    f8c4188c    ....    STR      r1,[r4,#0x88c]
        0x00003448:    6861        ah      LDR      r1,[r4,#4]
        0x0000344a:    0309        ..      LSLS     r1,r1,#12
        0x0000344c:    f1014180    ...A    ADD      r1,r1,#0x40000000
        0x00003450:    f50121c0    ...!    ADD      r1,r1,#0x60000
        0x00003454:    f8d110dc    ....    LDR      r1,[r1,#0xdc]
        0x00003458:    f8c41890    ....    STR      r1,[r4,#0x890]
        0x0000345c:    6861        ah      LDR      r1,[r4,#4]
        0x0000345e:    0309        ..      LSLS     r1,r1,#12
        0x00003460:    f1014180    ...A    ADD      r1,r1,#0x40000000
        0x00003464:    f50121c0    ...!    ADD      r1,r1,#0x60000
        0x00003468:    6b09        .k      LDR      r1,[r1,#0x30]
        0x0000346a:    f8c41894    ....    STR      r1,[r4,#0x894]
        0x0000346e:    6861        ah      LDR      r1,[r4,#4]
        0x00003470:    0309        ..      LSLS     r1,r1,#12
        0x00003472:    f1014180    ...A    ADD      r1,r1,#0x40000000
        0x00003476:    f50121c0    ...!    ADD      r1,r1,#0x60000
        0x0000347a:    6c49        Il      LDR      r1,[r1,#0x44]
        0x0000347c:    f8c4189c    ....    STR      r1,[r4,#0x89c]
        0x00003480:    6861        ah      LDR      r1,[r4,#4]
        0x00003482:    0309        ..      LSLS     r1,r1,#12
        0x00003484:    f1014180    ...A    ADD      r1,r1,#0x40000000
        0x00003488:    f50121c0    ...!    ADD      r1,r1,#0x60000
        0x0000348c:    6c89        .l      LDR      r1,[r1,#0x48]
        0x0000348e:    f8c418a0    ....    STR      r1,[r4,#0x8a0]
        0x00003492:    6861        ah      LDR      r1,[r4,#4]
        0x00003494:    0309        ..      LSLS     r1,r1,#12
        0x00003496:    f1014180    ...A    ADD      r1,r1,#0x40000000
        0x0000349a:    f50121c0    ...!    ADD      r1,r1,#0x60000
        0x0000349e:    6cc9        .l      LDR      r1,[r1,#0x4c]
        0x000034a0:    f8c418a4    ....    STR      r1,[r4,#0x8a4]
        0x000034a4:    6861        ah      LDR      r1,[r4,#4]
        0x000034a6:    0309        ..      LSLS     r1,r1,#12
        0x000034a8:    f1014180    ...A    ADD      r1,r1,#0x40000000
        0x000034ac:    f50121c0    ...!    ADD      r1,r1,#0x60000
        0x000034b0:    f8d112a0    ....    LDR      r1,[r1,#0x2a0]
        0x000034b4:    f8c418a8    ....    STR      r1,[r4,#0x8a8]
        0x000034b8:    6861        ah      LDR      r1,[r4,#4]
        0x000034ba:    0309        ..      LSLS     r1,r1,#12
        0x000034bc:    f1014180    ...A    ADD      r1,r1,#0x40000000
        0x000034c0:    f50121c0    ...!    ADD      r1,r1,#0x60000
        0x000034c4:    f8d112a8    ....    LDR      r1,[r1,#0x2a8]
        0x000034c8:    f8c418ac    ....    STR      r1,[r4,#0x8ac]
        0x000034cc:    6861        ah      LDR      r1,[r4,#4]
        0x000034ce:    0309        ..      LSLS     r1,r1,#12
        0x000034d0:    f1014180    ...A    ADD      r1,r1,#0x40000000
        0x000034d4:    f50121c0    ...!    ADD      r1,r1,#0x60000
        0x000034d8:    f8d112b8    ....    LDR      r1,[r1,#0x2b8]
        0x000034dc:    f8c418b0    ....    STR      r1,[r4,#0x8b0]
        0x000034e0:    6861        ah      LDR      r1,[r4,#4]
        0x000034e2:    0309        ..      LSLS     r1,r1,#12
        0x000034e4:    f1014180    ...A    ADD      r1,r1,#0x40000000
        0x000034e8:    f50121c0    ...!    ADD      r1,r1,#0x60000
        0x000034ec:    f8d112c0    ....    LDR      r1,[r1,#0x2c0]
        0x000034f0:    f8c418b4    ....    STR      r1,[r4,#0x8b4]
        0x000034f4:    6861        ah      LDR      r1,[r4,#4]
        0x000034f6:    0309        ..      LSLS     r1,r1,#12
        0x000034f8:    f1014180    ...A    ADD      r1,r1,#0x40000000
        0x000034fc:    f50121c0    ...!    ADD      r1,r1,#0x60000
        0x00003500:    f8d112c4    ....    LDR      r1,[r1,#0x2c4]
        0x00003504:    f8c418b8    ....    STR      r1,[r4,#0x8b8]
        0x00003508:    6861        ah      LDR      r1,[r4,#4]
        0x0000350a:    0309        ..      LSLS     r1,r1,#12
        0x0000350c:    f1014180    ...A    ADD      r1,r1,#0x40000000
        0x00003510:    f50121c0    ...!    ADD      r1,r1,#0x60000
        0x00003514:    f8d11200    ....    LDR      r1,[r1,#0x200]
        0x00003518:    f8c418bc    ....    STR      r1,[r4,#0x8bc]
        0x0000351c:    6861        ah      LDR      r1,[r4,#4]
        0x0000351e:    0309        ..      LSLS     r1,r1,#12
        0x00003520:    f1014180    ...A    ADD      r1,r1,#0x40000000
        0x00003524:    f50121c0    ...!    ADD      r1,r1,#0x60000
        0x00003528:    f8d11114    ....    LDR      r1,[r1,#0x114]
        0x0000352c:    f8c418c0    ....    STR      r1,[r4,#0x8c0]
        0x00003530:    6861        ah      LDR      r1,[r4,#4]
        0x00003532:    0309        ..      LSLS     r1,r1,#12
        0x00003534:    f1014180    ...A    ADD      r1,r1,#0x40000000
        0x00003538:    f50121c0    ...!    ADD      r1,r1,#0x60000
        0x0000353c:    f8d11118    ....    LDR      r1,[r1,#0x118]
        0x00003540:    f8c418c4    ....    STR      r1,[r4,#0x8c4]
        0x00003544:    6861        ah      LDR      r1,[r4,#4]
        0x00003546:    0309        ..      LSLS     r1,r1,#12
        0x00003548:    f1014180    ...A    ADD      r1,r1,#0x40000000
        0x0000354c:    f50121c0    ...!    ADD      r1,r1,#0x60000
        0x00003550:    f8d112a0    ....    LDR      r1,[r1,#0x2a0]
        0x00003554:    f8c418a8    ....    STR      r1,[r4,#0x8a8]
        0x00003558:    2101        .!      MOVS     r1,#1
        0x0000355a:    f8841860    ..`.    STRB     r1,[r4,#0x860]
        0x0000355e:    6801        .h      LDR      r1,[r0,#0]
        0x00003560:    f0117f80    ....    TST      r1,#0x1000000
        0x00003564:    d00f        ..      BEQ      0x3586 ; am_hal_mspi_power_control + 590
        0x00003566:    f021417f    !..A    BIC      r1,r1,#0xff000000
        0x0000356a:    4291        .B      CMP      r1,r2
        0x0000356c:    d10b        ..      BNE      0x3586 ; am_hal_mspi_power_control + 590
        0x0000356e:    6860        `h      LDR      r0,[r4,#4]
        0x00003570:    0300        ..      LSLS     r0,r0,#12
        0x00003572:    f1004080    ...@    ADD      r0,r0,#0x40000000
        0x00003576:    f50020c0    ...     ADD      r0,r0,#0x60000
        0x0000357a:    f8d01200    ....    LDR      r1,[r0,#0x200]
        0x0000357e:    f36f010c    o...    BFC      r1,#0,#13
        0x00003582:    f8c01200    ....    STR      r1,[r0,#0x200]
        0x00003586:    7920         y      LDRB     r0,[r4,#4]
        0x00003588:    300e        .0      ADDS     r0,r0,#0xe
        0x0000358a:    b2c0        ..      UXTB     r0,r0
        0x0000358c:    f000f914    ....    BL       am_hal_pwrctrl_periph_disable ; 0x37b8
        0x00003590:    2000        .       MOVS     r0,#0
        0x00003592:    bd70        p.      POP      {r4-r6,pc}
        0x00003594:    b12d        -.      CBZ      r5,0x35a2 ; am_hal_mspi_power_control + 618
        0x00003596:    f8940860    ..`.    LDRB     r0,[r4,#0x860]
        0x0000359a:    2800        .(      CMP      r0,#0
        0x0000359c:    bf04        ..      ITT      EQ
        0x0000359e:    2007        .       MOVEQ    r0,#7
        0x000035a0:    bd70        p.      POPEQ    {r4-r6,pc}
        0x000035a2:    7920         y      LDRB     r0,[r4,#4]
        0x000035a4:    300e        .0      ADDS     r0,r0,#0xe
        0x000035a6:    b2c0        ..      UXTB     r0,r0
        0x000035a8:    f000f92a    ..*.    BL       am_hal_pwrctrl_periph_enable ; 0x3800
        0x000035ac:    2d00        .-      CMP      r5,#0
        0x000035ae:    d0ef        ..      BEQ      0x3590 ; am_hal_mspi_power_control + 600
        0x000035b0:    6861        ah      LDR      r1,[r4,#4]
        0x000035b2:    f8d40864    ..d.    LDR      r0,[r4,#0x864]
        0x000035b6:    0309        ..      LSLS     r1,r1,#12
        0x000035b8:    f1014180    ...A    ADD      r1,r1,#0x40000000
        0x000035bc:    f50121c0    ...!    ADD      r1,r1,#0x60000
        0x000035c0:    f8c10080    ....    STR      r0,[r1,#0x80]
        0x000035c4:    6861        ah      LDR      r1,[r4,#4]
        0x000035c6:    f8d40868    ..h.    LDR      r0,[r4,#0x868]
        0x000035ca:    0309        ..      LSLS     r1,r1,#12
        0x000035cc:    f1014180    ...A    ADD      r1,r1,#0x40000000
        0x000035d0:    f50121c0    ...!    ADD      r1,r1,#0x60000
        0x000035d4:    f8c10084    ....    STR      r0,[r1,#0x84]
        0x000035d8:    6861        ah      LDR      r1,[r4,#4]
        0x000035da:    f8d4086c    ..l.    LDR      r0,[r4,#0x86c]
        0x000035de:    0309        ..      LSLS     r1,r1,#12
        0x000035e0:    f1014180    ...A    ADD      r1,r1,#0x40000000
        0x000035e4:    f50121c0    ...!    ADD      r1,r1,#0x60000
        0x000035e8:    f8c10090    ....    STR      r0,[r1,#0x90]
        0x000035ec:    6861        ah      LDR      r1,[r4,#4]
        0x000035ee:    f8d40870    ..p.    LDR      r0,[r4,#0x870]
        0x000035f2:    0309        ..      LSLS     r1,r1,#12
        0x000035f4:    f1014180    ...A    ADD      r1,r1,#0x40000000
        0x000035f8:    f50121c0    ...!    ADD      r1,r1,#0x60000
        0x000035fc:    f8c10094    ....    STR      r0,[r1,#0x94]
        0x00003600:    6861        ah      LDR      r1,[r4,#4]
        0x00003602:    f8d40874    ..t.    LDR      r0,[r4,#0x874]
        0x00003606:    0309        ..      LSLS     r1,r1,#12
        0x00003608:    f1014180    ...A    ADD      r1,r1,#0x40000000
        0x0000360c:    f50121c0    ...!    ADD      r1,r1,#0x60000
        0x00003610:    f8c10098    ....    STR      r0,[r1,#0x98]
        0x00003614:    6861        ah      LDR      r1,[r4,#4]
        0x00003616:    f8d40878    ..x.    LDR      r0,[r4,#0x878]
        0x0000361a:    0309        ..      LSLS     r1,r1,#12
        0x0000361c:    f1014180    ...A    ADD      r1,r1,#0x40000000
        0x00003620:    f50121c0    ...!    ADD      r1,r1,#0x60000
        0x00003624:    f8c1009c    ....    STR      r0,[r1,#0x9c]
        0x00003628:    6861        ah      LDR      r1,[r4,#4]
        0x0000362a:    f8d4087c    ..|.    LDR      r0,[r4,#0x87c]
        0x0000362e:    0309        ..      LSLS     r1,r1,#12
        0x00003630:    f1014180    ...A    ADD      r1,r1,#0x40000000
        0x00003634:    f50121c0    ...!    ADD      r1,r1,#0x60000
        0x00003638:    f8c100c0    ....    STR      r0,[r1,#0xc0]
        0x0000363c:    6861        ah      LDR      r1,[r4,#4]
        0x0000363e:    f8d40880    ....    LDR      r0,[r4,#0x880]
        0x00003642:    0309        ..      LSLS     r1,r1,#12
        0x00003644:    f1014180    ...A    ADD      r1,r1,#0x40000000
        0x00003648:    f50121c0    ...!    ADD      r1,r1,#0x60000
        0x0000364c:    f8c100c4    ....    STR      r0,[r1,#0xc4]
        0x00003650:    6861        ah      LDR      r1,[r4,#4]
        0x00003652:    f8d40884    ....    LDR      r0,[r4,#0x884]
        0x00003656:    0309        ..      LSLS     r1,r1,#12
        0x00003658:    f1014180    ...A    ADD      r1,r1,#0x40000000
        0x0000365c:    f50121c0    ...!    ADD      r1,r1,#0x60000
        0x00003660:    f8c100d0    ....    STR      r0,[r1,#0xd0]
        0x00003664:    6861        ah      LDR      r1,[r4,#4]
        0x00003666:    f8d40888    ....    LDR      r0,[r4,#0x888]
        0x0000366a:    0309        ..      LSLS     r1,r1,#12
        0x0000366c:    f1014180    ...A    ADD      r1,r1,#0x40000000
        0x00003670:    f50121c0    ...!    ADD      r1,r1,#0x60000
        0x00003674:    f8c100d4    ....    STR      r0,[r1,#0xd4]
        0x00003678:    6861        ah      LDR      r1,[r4,#4]
        0x0000367a:    f8d4088c    ....    LDR      r0,[r4,#0x88c]
        0x0000367e:    0309        ..      LSLS     r1,r1,#12
        0x00003680:    f1014180    ...A    ADD      r1,r1,#0x40000000
        0x00003684:    f50121c0    ...!    ADD      r1,r1,#0x60000
        0x00003688:    f8c100d8    ....    STR      r0,[r1,#0xd8]
        0x0000368c:    6861        ah      LDR      r1,[r4,#4]
        0x0000368e:    f8d40890    ....    LDR      r0,[r4,#0x890]
        0x00003692:    0309        ..      LSLS     r1,r1,#12
        0x00003694:    f1014180    ...A    ADD      r1,r1,#0x40000000
        0x00003698:    f50121c0    ...!    ADD      r1,r1,#0x60000
        0x0000369c:    f8c100dc    ....    STR      r0,[r1,#0xdc]
        0x000036a0:    6861        ah      LDR      r1,[r4,#4]
        0x000036a2:    f8d40894    ....    LDR      r0,[r4,#0x894]
        0x000036a6:    0309        ..      LSLS     r1,r1,#12
        0x000036a8:    f1014180    ...A    ADD      r1,r1,#0x40000000
        0x000036ac:    f50121c0    ...!    ADD      r1,r1,#0x60000
        0x000036b0:    6308        .c      STR      r0,[r1,#0x30]
        0x000036b2:    6861        ah      LDR      r1,[r4,#4]
        0x000036b4:    f8d4089c    ....    LDR      r0,[r4,#0x89c]
        0x000036b8:    0309        ..      LSLS     r1,r1,#12
        0x000036ba:    f1014180    ...A    ADD      r1,r1,#0x40000000
        0x000036be:    f50121c0    ...!    ADD      r1,r1,#0x60000
        0x000036c2:    6448        Hd      STR      r0,[r1,#0x44]
        0x000036c4:    6861        ah      LDR      r1,[r4,#4]
        0x000036c6:    f8d408a0    ....    LDR      r0,[r4,#0x8a0]
        0x000036ca:    0309        ..      LSLS     r1,r1,#12
        0x000036cc:    f1014180    ...A    ADD      r1,r1,#0x40000000
        0x000036d0:    f50121c0    ...!    ADD      r1,r1,#0x60000
        0x000036d4:    6488        .d      STR      r0,[r1,#0x48]
        0x000036d6:    6861        ah      LDR      r1,[r4,#4]
        0x000036d8:    f8d408a4    ....    LDR      r0,[r4,#0x8a4]
        0x000036dc:    0309        ..      LSLS     r1,r1,#12
        0x000036de:    f1014180    ...A    ADD      r1,r1,#0x40000000
        0x000036e2:    f50121c0    ...!    ADD      r1,r1,#0x60000
        0x000036e6:    64c8        .d      STR      r0,[r1,#0x4c]
        0x000036e8:    6861        ah      LDR      r1,[r4,#4]
        0x000036ea:    f8d408a8    ....    LDR      r0,[r4,#0x8a8]
        0x000036ee:    0309        ..      LSLS     r1,r1,#12
        0x000036f0:    f1014180    ...A    ADD      r1,r1,#0x40000000
        0x000036f4:    f50121c0    ...!    ADD      r1,r1,#0x60000
        0x000036f8:    f8c102a0    ....    STR      r0,[r1,#0x2a0]
        0x000036fc:    6861        ah      LDR      r1,[r4,#4]
        0x000036fe:    f8d408ac    ....    LDR      r0,[r4,#0x8ac]
        0x00003702:    0309        ..      LSLS     r1,r1,#12
        0x00003704:    f1014180    ...A    ADD      r1,r1,#0x40000000
        0x00003708:    f50121c0    ...!    ADD      r1,r1,#0x60000
        0x0000370c:    f8c102a8    ....    STR      r0,[r1,#0x2a8]
        0x00003710:    6861        ah      LDR      r1,[r4,#4]
        0x00003712:    f8d408b0    ....    LDR      r0,[r4,#0x8b0]
        0x00003716:    0309        ..      LSLS     r1,r1,#12
        0x00003718:    f1014180    ...A    ADD      r1,r1,#0x40000000
        0x0000371c:    f50121c0    ...!    ADD      r1,r1,#0x60000
        0x00003720:    f8c102b8    ....    STR      r0,[r1,#0x2b8]
        0x00003724:    6861        ah      LDR      r1,[r4,#4]
        0x00003726:    f8d408b4    ....    LDR      r0,[r4,#0x8b4]
        0x0000372a:    0309        ..      LSLS     r1,r1,#12
        0x0000372c:    f1014180    ...A    ADD      r1,r1,#0x40000000
        0x00003730:    f50121c0    ...!    ADD      r1,r1,#0x60000
        0x00003734:    f8c102c0    ....    STR      r0,[r1,#0x2c0]
        0x00003738:    6861        ah      LDR      r1,[r4,#4]
        0x0000373a:    0309        ..      LSLS     r1,r1,#12
        0x0000373c:    f1014180    ...A    ADD      r1,r1,#0x40000000
        0x00003740:    f50121c0    ...!    ADD      r1,r1,#0x60000
        0x00003744:    e002        ..      B        0x374c ; am_hal_mspi_power_control + 1044
    $d
        0x00003746:    0000        ..      DCW    0
        0x00003748:    00bebebe    ....    DCD    12500670
    $t
        0x0000374c:    f8d408b8    ....    LDR      r0,[r4,#0x8b8]
        0x00003750:    f8c102c4    ....    STR      r0,[r1,#0x2c4]
        0x00003754:    6861        ah      LDR      r1,[r4,#4]
        0x00003756:    f8d408bc    ....    LDR      r0,[r4,#0x8bc]
        0x0000375a:    0309        ..      LSLS     r1,r1,#12
        0x0000375c:    f1014180    ...A    ADD      r1,r1,#0x40000000
        0x00003760:    f50121c0    ...!    ADD      r1,r1,#0x60000
        0x00003764:    f8c10200    ....    STR      r0,[r1,#0x200]
        0x00003768:    6861        ah      LDR      r1,[r4,#4]
        0x0000376a:    f8d408c0    ....    LDR      r0,[r4,#0x8c0]
        0x0000376e:    0309        ..      LSLS     r1,r1,#12
        0x00003770:    f1014180    ...A    ADD      r1,r1,#0x40000000
        0x00003774:    f50121c0    ...!    ADD      r1,r1,#0x60000
        0x00003778:    f8c10114    ....    STR      r0,[r1,#0x114]
        0x0000377c:    6861        ah      LDR      r1,[r4,#4]
        0x0000377e:    f8d408c4    ....    LDR      r0,[r4,#0x8c4]
        0x00003782:    0309        ..      LSLS     r1,r1,#12
        0x00003784:    f1014180    ...A    ADD      r1,r1,#0x40000000
        0x00003788:    f50121c0    ...!    ADD      r1,r1,#0x60000
        0x0000378c:    f8c10118    ....    STR      r0,[r1,#0x118]
        0x00003790:    2000        .       MOVS     r0,#0
        0x00003792:    f8840860    ..`.    STRB     r0,[r4,#0x860]
        0x00003796:    e6fb        ..      B        0x3590 ; am_hal_mspi_power_control + 600
    i.am_hal_pwrctrl_low_power_init
    am_hal_pwrctrl_low_power_init
        0x00003798:    b500        ..      PUSH     {lr}
        0x0000379a:    b08f        ..      SUB      sp,sp,#0x3c
        0x0000379c:    4669        iF      MOV      r1,sp
        0x0000379e:    2001        .       MOVS     r0,#1
        0x000037a0:    f7fefa2e    ....    BL       am_hal_mcuctrl_info_get ; 0x1c00
        0x000037a4:    f04f4190    O..A    MOV      r1,#0x48000000
        0x000037a8:    4802        .H      LDR      r0,[pc,#8] ; [0x37b4] = 0x40301
        0x000037aa:    6508        .e      STR      r0,[r1,#0x50]
        0x000037ac:    b00f        ..      ADD      sp,sp,#0x3c
        0x000037ae:    2000        .       MOVS     r0,#0
        0x000037b0:    bd00        ..      POP      {pc}
    $d
        0x000037b2:    0000        ..      DCW    0
        0x000037b4:    00040301    ....    DCD    262913
    $t
    i.am_hal_pwrctrl_periph_disable
    am_hal_pwrctrl_periph_disable
        0x000037b8:    b538        8.      PUSH     {r3-r5,lr}
        0x000037ba:    4604        .F      MOV      r4,r0
        0x000037bc:    f7fcfdf2    ....    BL       am_hal_interrupt_master_disable ; 0x3a4
        0x000037c0:    9000        ..      STR      r0,[sp,#0]
        0x000037c2:    480e        .H      LDR      r0,[pc,#56] ; [0x37fc] = 0x5cc8
        0x000037c4:    eb001404    ....    ADD      r4,r0,r4,LSL #4
        0x000037c8:    6820         h      LDR      r0,[r4,#0]
        0x000037ca:    6862        bh      LDR      r2,[r4,#4]
        0x000037cc:    6801        .h      LDR      r1,[r0,#0]
        0x000037ce:    4391        .C      BICS     r1,r1,r2
        0x000037d0:    6001        .`      STR      r1,[r0,#0]
        0x000037d2:    9800        ..      LDR      r0,[sp,#0]
        0x000037d4:    f7fcfdea    ....    BL       am_hal_interrupt_master_set ; 0x3ac
        0x000037d8:    2000        .       MOVS     r0,#0
        0x000037da:    9000        ..      STR      r0,[sp,#0]
        0x000037dc:    e9d41202    ....    LDRD     r1,r2,[r4,#8]
        0x000037e0:    4613        .F      MOV      r3,r2
        0x000037e2:    2005        .       MOVS     r0,#5
        0x000037e4:    f7fef970    ..p.    BL       am_hal_delay_us_status_check ; 0x1ac8
        0x000037e8:    2800        .(      CMP      r0,#0
        0x000037ea:    bf18        ..      IT       NE
        0x000037ec:    bd38        8.      POPNE    {r3-r5,pc}
        0x000037ee:    68a0        .h      LDR      r0,[r4,#8]
        0x000037f0:    68e1        .h      LDR      r1,[r4,#0xc]
        0x000037f2:    6800        .h      LDR      r0,[r0,#0]
        0x000037f4:    4008        .@      ANDS     r0,r0,r1
        0x000037f6:    bf18        ..      IT       NE
        0x000037f8:    2001        .       MOVNE    r0,#1
        0x000037fa:    bd38        8.      POP      {r3-r5,pc}
    $d
        0x000037fc:    00005cc8    .\..    DCD    23752
    $t
    i.am_hal_pwrctrl_periph_enable
    am_hal_pwrctrl_periph_enable
        0x00003800:    b538        8.      PUSH     {r3-r5,lr}
        0x00003802:    4604        .F      MOV      r4,r0
        0x00003804:    f7fcfdce    ....    BL       am_hal_interrupt_master_disable ; 0x3a4
        0x00003808:    9000        ..      STR      r0,[sp,#0]
        0x0000380a:    480f        .H      LDR      r0,[pc,#60] ; [0x3848] = 0x5cc8
        0x0000380c:    eb001404    ....    ADD      r4,r0,r4,LSL #4
        0x00003810:    6820         h      LDR      r0,[r4,#0]
        0x00003812:    6862        bh      LDR      r2,[r4,#4]
        0x00003814:    6801        .h      LDR      r1,[r0,#0]
        0x00003816:    4311        .C      ORRS     r1,r1,r2
        0x00003818:    6001        .`      STR      r1,[r0,#0]
        0x0000381a:    9800        ..      LDR      r0,[sp,#0]
        0x0000381c:    f7fcfdc6    ....    BL       am_hal_interrupt_master_set ; 0x3ac
        0x00003820:    2001        .       MOVS     r0,#1
        0x00003822:    9000        ..      STR      r0,[sp,#0]
        0x00003824:    e9d41202    ....    LDRD     r1,r2,[r4,#8]
        0x00003828:    4613        .F      MOV      r3,r2
        0x0000382a:    2005        .       MOVS     r0,#5
        0x0000382c:    f7fef94c    ..L.    BL       am_hal_delay_us_status_check ; 0x1ac8
        0x00003830:    2800        .(      CMP      r0,#0
        0x00003832:    bf18        ..      IT       NE
        0x00003834:    bd38        8.      POPNE    {r3-r5,pc}
        0x00003836:    68a0        .h      LDR      r0,[r4,#8]
        0x00003838:    68e1        .h      LDR      r1,[r4,#0xc]
        0x0000383a:    6800        .h      LDR      r0,[r0,#0]
        0x0000383c:    4208        .B      TST      r0,r1
        0x0000383e:    bf14        ..      ITE      NE
        0x00003840:    2000        .       MOVNE    r0,#0
        0x00003842:    2001        .       MOVEQ    r0,#1
        0x00003844:    bd38        8.      POP      {r3-r5,pc}
    $d
        0x00003846:    0000        ..      DCW    0
        0x00003848:    00005cc8    .\..    DCD    23752
    $t
    i.am_hal_rtc_osc_disable
    am_hal_rtc_osc_disable
        0x0000384c:    4803        .H      LDR      r0,[pc,#12] ; [0x385c] = 0x40004800
        0x0000384e:    6801        .h      LDR      r1,[r0,#0]
        0x00003850:    f0410110    A...    ORR      r1,r1,#0x10
        0x00003854:    6001        .`      STR      r1,[r0,#0]
        0x00003856:    2000        .       MOVS     r0,#0
        0x00003858:    4770        pG      BX       lr
    $d
        0x0000385a:    0000        ..      DCW    0
        0x0000385c:    40004800    .H.@    DCD    1073760256
    $t
    i.am_hal_sysctrl_sleep
    am_hal_sysctrl_sleep
        0x00003860:    b538        8.      PUSH     {r3-r5,lr}
        0x00003862:    4604        .F      MOV      r4,r0
        0x00003864:    f7fcfd9e    ....    BL       am_hal_interrupt_master_disable ; 0x3a4
        0x00003868:    490d        .I      LDR      r1,[pc,#52] ; [0x38a0] = 0xe000ed10
        0x0000386a:    9000        ..      STR      r0,[sp,#0]
        0x0000386c:    b14c        L.      CBZ      r4,0x3882 ; am_hal_sysctrl_sleep + 34
        0x0000386e:    480d        .H      LDR      r0,[pc,#52] ; [0x38a4] = 0x40020000
        0x00003870:    f8d00250    ..P.    LDR      r0,[r0,#0x250]
        0x00003874:    f0100f10    ....    TST      r0,#0x10
        0x00003878:    bf04        ..      ITT      EQ
        0x0000387a:    6808        .h      LDREQ    r0,[r1,#0]
        0x0000387c:    f0400004    @...    ORREQ    r0,r0,#4
        0x00003880:    d002        ..      BEQ      0x3888 ; am_hal_sysctrl_sleep + 40
        0x00003882:    6808        .h      LDR      r0,[r1,#0]
        0x00003884:    f0200004     ...    BIC      r0,r0,#4
        0x00003888:    6008        .`      STR      r0,[r1,#0]
        0x0000388a:    f3bf8f4f    ..O.    DSB      
        0x0000388e:    bf30        0.      WFI      
        0x00003890:    f3bf8f6f    ..o.    ISB      
        0x00003894:    9800        ..      LDR      r0,[sp,#0]
        0x00003896:    e8bd4038    ..8@    POP      {r3-r5,lr}
        0x0000389a:    f7fcbd87    ....    B        am_hal_interrupt_master_set ; 0x3ac
    $d
        0x0000389e:    0000        ..      DCW    0
        0x000038a0:    e000ed10    ....    DCD    3758157072
        0x000038a4:    40020000    ...@    DCD    1073872896
    $t
    i.am_hal_tpiu_enable
    am_hal_tpiu_enable
        0x000038a8:    480e        .H      LDR      r0,[pc,#56] ; [0x38e4] = 0xe0040000
        0x000038aa:    2100        .!      MOVS     r1,#0
        0x000038ac:    f8c01304    ....    STR      r1,[r0,#0x304]
        0x000038b0:    2201        ."      MOVS     r2,#1
        0x000038b2:    6042        B`      STR      r2,[r0,#4]
        0x000038b4:    2217        ."      MOVS     r2,#0x17
        0x000038b6:    6102        .a      STR      r2,[r0,#0x10]
        0x000038b8:    2202        ."      MOVS     r2,#2
        0x000038ba:    f8c020f0    ...     STR      r2,[r0,#0xf0]
        0x000038be:    480a        .H      LDR      r0,[pc,#40] ; [0x38e8] = 0xe0040f00
        0x000038c0:    6001        .`      STR      r1,[r0,#0]
        0x000038c2:    480a        .H      LDR      r0,[pc,#40] ; [0x38ec] = 0x40020000
        0x000038c4:    f8d01250    ..P.    LDR      r1,[r0,#0x250]
        0x000038c8:    f021010e    !...    BIC      r1,r1,#0xe
        0x000038cc:    1c89        ..      ADDS     r1,r1,#2
        0x000038ce:    f8c01250    ..P.    STR      r1,[r0,#0x250]
        0x000038d2:    f8d01250    ..P.    LDR      r1,[r0,#0x250]
        0x000038d6:    f0410101    A...    ORR      r1,r1,#1
        0x000038da:    f8c01250    ..P.    STR      r1,[r0,#0x250]
        0x000038de:    2032        2       MOVS     r0,#0x32
        0x000038e0:    f7feb8e8    ....    B        am_hal_delay_us ; 0x1ab4
    $d
        0x000038e4:    e0040000    ....    DCD    3758358528
        0x000038e8:    e0040f00    ....    DCD    3758362368
        0x000038ec:    40020000    ...@    DCD    1073872896
    $t
    i.am_mspi2_isr
    am_mspi2_isr
        0x000038f0:    b508        ..      PUSH     {r3,lr}
        0x000038f2:    2200        ."      MOVS     r2,#0
        0x000038f4:    4669        iF      MOV      r1,sp
        0x000038f6:    4807        .H      LDR      r0,[pc,#28] ; [0x3914] = 0x10000008
        0x000038f8:    6800        .h      LDR      r0,[r0,#0]
        0x000038fa:    f7fffc45    ..E.    BL       am_hal_mspi_interrupt_status_get ; 0x3188
        0x000038fe:    4805        .H      LDR      r0,[pc,#20] ; [0x3914] = 0x10000008
        0x00003900:    9900        ..      LDR      r1,[sp,#0]
        0x00003902:    6800        .h      LDR      r0,[r0,#0]
        0x00003904:    f7fffaa6    ....    BL       am_hal_mspi_interrupt_clear ; 0x2e54
        0x00003908:    4802        .H      LDR      r0,[pc,#8] ; [0x3914] = 0x10000008
        0x0000390a:    9900        ..      LDR      r1,[sp,#0]
        0x0000390c:    6800        .h      LDR      r0,[r0,#0]
        0x0000390e:    f7fffaf5    ....    BL       am_hal_mspi_interrupt_service ; 0x2efc
        0x00003912:    bd08        ..      POP      {r3,pc}
    $d
        0x00003914:    10000008    ....    DCD    268435464
    $t
    i.am_util_delay_ms
    am_util_delay_ms
        0x00003918:    b510        ..      PUSH     {r4,lr}
        0x0000391a:    4604        .F      MOV      r4,r0
        0x0000391c:    f44f717a    O.zq    MOV      r1,#0x3e8
        0x00003920:    fb04f001    ....    MUL      r0,r4,r1
        0x00003924:    f7fef8c6    ....    BL       am_hal_delay_us ; 0x1ab4
        0x00003928:    bd10        ..      POP      {r4,pc}
    i.am_util_delay_us
    am_util_delay_us
        0x0000392a:    b510        ..      PUSH     {r4,lr}
        0x0000392c:    4604        .F      MOV      r4,r0
        0x0000392e:    4620         F      MOV      r0,r4
        0x00003930:    f7fef8c0    ....    BL       am_hal_delay_us ; 0x1ab4
        0x00003934:    bd10        ..      POP      {r4,pc}
        0x00003936:    0000        ..      MOVS     r0,r0
    i.am_util_faultisr_collect_data
    am_util_faultisr_collect_data
        0x00003938:    b092        ..      SUB      sp,sp,#0x48
        0x0000393a:    4605        .F      MOV      r5,r0
        0x0000393c:    2118        .!      MOVS     r1,#0x18
        0x0000393e:    4668        hF      MOV      r0,sp
        0x00003940:    f7fcfd89    ....    BL       __aeabi_memclr4 ; 0x456
        0x00003944:    2400        .$      MOVS     r4,#0
        0x00003946:    9410        ..      STR      r4,[sp,#0x40]
        0x00003948:    4870        pH      LDR      r0,[pc,#448] ; [0x3b0c] = 0xe000ed28
        0x0000394a:    6800        .h      LDR      r0,[r0,#0]
        0x0000394c:    9010        ..      STR      r0,[sp,#0x40]
        0x0000394e:    9810        ..      LDR      r0,[sp,#0x40]
        0x00003950:    b2c0        ..      UXTB     r0,r0
        0x00003952:    f88d0044    ..D.    STRB     r0,[sp,#0x44]
        0x00003956:    9810        ..      LDR      r0,[sp,#0x40]
        0x00003958:    0a00        ..      LSRS     r0,r0,#8
        0x0000395a:    f88d0045    ..E.    STRB     r0,[sp,#0x45]
        0x0000395e:    9810        ..      LDR      r0,[sp,#0x40]
        0x00003960:    f64f71ff    O..q    MOV      r1,#0xffff
        0x00003964:    ea014010    ...@    AND      r0,r1,r0,LSR #16
        0x00003968:    f8ad0046    ..F.    STRH     r0,[sp,#0x46]
        0x0000396c:    4867        gH      LDR      r0,[pc,#412] ; [0x3b0c] = 0xe000ed28
        0x0000396e:    3010        .0      ADDS     r0,r0,#0x10
        0x00003970:    6800        .h      LDR      r0,[r0,#0]
        0x00003972:    900f        ..      STR      r0,[sp,#0x3c]
        0x00003974:    f89d0045    ..E.    LDRB     r0,[sp,#0x45]
        0x00003978:    f0000002    ....    AND      r0,r0,#2
        0x0000397c:    b120         .      CBZ      r0,0x3988 ; am_util_faultisr_collect_data + 80
        0x0000397e:    4629        )F      MOV      r1,r5
        0x00003980:    2006        .       MOVS     r0,#6
        0x00003982:    f7fcfd06    ....    BL       getStackedReg ; 0x392
        0x00003986:    e001        ..      B        0x398c ; am_util_faultisr_collect_data + 84
        0x00003988:    f04f30ff    O..0    MOV      r0,#0xffffffff
        0x0000398c:    900e        ..      STR      r0,[sp,#0x38]
        0x0000398e:    4629        )F      MOV      r1,r5
        0x00003990:    2000        .       MOVS     r0,#0
        0x00003992:    f7fcfcfe    ....    BL       getStackedReg ; 0x392
        0x00003996:    9006        ..      STR      r0,[sp,#0x18]
        0x00003998:    4629        )F      MOV      r1,r5
        0x0000399a:    2001        .       MOVS     r0,#1
        0x0000399c:    f7fcfcf9    ....    BL       getStackedReg ; 0x392
        0x000039a0:    9007        ..      STR      r0,[sp,#0x1c]
        0x000039a2:    4629        )F      MOV      r1,r5
        0x000039a4:    2002        .       MOVS     r0,#2
        0x000039a6:    f7fcfcf4    ....    BL       getStackedReg ; 0x392
        0x000039aa:    9008        ..      STR      r0,[sp,#0x20]
        0x000039ac:    4629        )F      MOV      r1,r5
        0x000039ae:    2003        .       MOVS     r0,#3
        0x000039b0:    f7fcfcef    ....    BL       getStackedReg ; 0x392
        0x000039b4:    9009        ..      STR      r0,[sp,#0x24]
        0x000039b6:    4629        )F      MOV      r1,r5
        0x000039b8:    2004        .       MOVS     r0,#4
        0x000039ba:    f7fcfcea    ....    BL       getStackedReg ; 0x392
        0x000039be:    900a        ..      STR      r0,[sp,#0x28]
        0x000039c0:    4629        )F      MOV      r1,r5
        0x000039c2:    2005        .       MOVS     r0,#5
        0x000039c4:    f7fcfce5    ....    BL       getStackedReg ; 0x392
        0x000039c8:    900b        ..      STR      r0,[sp,#0x2c]
        0x000039ca:    4629        )F      MOV      r1,r5
        0x000039cc:    2006        .       MOVS     r0,#6
        0x000039ce:    f7fcfce0    ....    BL       getStackedReg ; 0x392
        0x000039d2:    900c        ..      STR      r0,[sp,#0x30]
        0x000039d4:    4629        )F      MOV      r1,r5
        0x000039d6:    2007        .       MOVS     r0,#7
        0x000039d8:    f7fcfcdb    ....    BL       getStackedReg ; 0x392
        0x000039dc:    900d        ..      STR      r0,[sp,#0x34]
        0x000039de:    4668        hF      MOV      r0,sp
        0x000039e0:    f7fef89f    ....    BL       am_hal_fault_status_get ; 0x1b22
        0x000039e4:    a04a        J.      ADR      r0,{pc}+0x12c ; 0x3b10
        0x000039e6:    f000fa17    ....    BL       am_util_stdio_printf ; 0x3e18
        0x000039ea:    9906        ..      LDR      r1,[sp,#0x18]
        0x000039ec:    a04f        O.      ADR      r0,{pc}+0x140 ; 0x3b2c
        0x000039ee:    f000fa13    ....    BL       am_util_stdio_printf ; 0x3e18
        0x000039f2:    9907        ..      LDR      r1,[sp,#0x1c]
        0x000039f4:    a052        R.      ADR      r0,{pc}+0x14c ; 0x3b40
        0x000039f6:    f000fa0f    ....    BL       am_util_stdio_printf ; 0x3e18
        0x000039fa:    9908        ..      LDR      r1,[sp,#0x20]
        0x000039fc:    a055        U.      ADR      r0,{pc}+0x158 ; 0x3b54
        0x000039fe:    f000fa0b    ....    BL       am_util_stdio_printf ; 0x3e18
        0x00003a02:    9909        ..      LDR      r1,[sp,#0x24]
        0x00003a04:    a058        X.      ADR      r0,{pc}+0x164 ; 0x3b68
        0x00003a06:    f000fa07    ....    BL       am_util_stdio_printf ; 0x3e18
        0x00003a0a:    990a        ..      LDR      r1,[sp,#0x28]
        0x00003a0c:    a05b        [.      ADR      r0,{pc}+0x170 ; 0x3b7c
        0x00003a0e:    f000fa03    ....    BL       am_util_stdio_printf ; 0x3e18
        0x00003a12:    990b        ..      LDR      r1,[sp,#0x2c]
        0x00003a14:    a05e        ^.      ADR      r0,{pc}+0x17c ; 0x3b90
        0x00003a16:    f000f9ff    ....    BL       am_util_stdio_printf ; 0x3e18
        0x00003a1a:    990c        ..      LDR      r1,[sp,#0x30]
        0x00003a1c:    a061        a.      ADR      r0,{pc}+0x188 ; 0x3ba4
        0x00003a1e:    f000f9fb    ....    BL       am_util_stdio_printf ; 0x3e18
        0x00003a22:    990d        ..      LDR      r1,[sp,#0x34]
        0x00003a24:    a064        d.      ADR      r0,{pc}+0x194 ; 0x3bb8
        0x00003a26:    f000f9f7    ....    BL       am_util_stdio_printf ; 0x3e18
        0x00003a2a:    a068        h.      ADR      r0,{pc}+0x1a2 ; 0x3bcc
        0x00003a2c:    f000f9f4    ....    BL       am_util_stdio_printf ; 0x3e18
        0x00003a30:    990e        ..      LDR      r1,[sp,#0x38]
        0x00003a32:    a06c        l.      ADR      r0,{pc}+0x1b2 ; 0x3be4
        0x00003a34:    f000f9f0    ....    BL       am_util_stdio_printf ; 0x3e18
        0x00003a38:    990f        ..      LDR      r1,[sp,#0x3c]
        0x00003a3a:    a071        q.      ADR      r0,{pc}+0x1c6 ; 0x3c00
        0x00003a3c:    f000f9ec    ....    BL       am_util_stdio_printf ; 0x3e18
        0x00003a40:    f89d1044    ..D.    LDRB     r1,[sp,#0x44]
        0x00003a44:    a078        x.      ADR      r0,{pc}+0x1e4 ; 0x3c28
        0x00003a46:    f000f9e7    ....    BL       am_util_stdio_printf ; 0x3e18
        0x00003a4a:    f89d1045    ..E.    LDRB     r1,[sp,#0x45]
        0x00003a4e:    a082        ..      ADR      r0,{pc}+0x20a ; 0x3c58
        0x00003a50:    f000f9e2    ....    BL       am_util_stdio_printf ; 0x3e18
        0x00003a54:    f8bd1046    ..F.    LDRH     r1,[sp,#0x46]
        0x00003a58:    a08a        ..      ADR      r0,{pc}+0x22c ; 0x3c84
        0x00003a5a:    f000f9dd    ....    BL       am_util_stdio_printf ; 0x3e18
        0x00003a5e:    2480        .$      MOVS     r4,#0x80
        0x00003a60:    e037        7.      B        0x3ad2 ; am_util_faultisr_collect_data + 410
        0x00003a62:    f89d0045    ..E.    LDRB     r0,[sp,#0x45]
        0x00003a66:    4020         @      ANDS     r0,r0,r4
        0x00003a68:    2810        .(      CMP      r0,#0x10
        0x00003a6a:    d01b        ..      BEQ      0x3aa4 ; am_util_faultisr_collect_data + 364
        0x00003a6c:    dc08        ..      BGT      0x3a80 ; am_util_faultisr_collect_data + 328
        0x00003a6e:    2801        .(      CMP      r0,#1
        0x00003a70:    d028        (.      BEQ      0x3ac4 ; am_util_faultisr_collect_data + 396
        0x00003a72:    2802        .(      CMP      r0,#2
        0x00003a74:    d022        ".      BEQ      0x3abc ; am_util_faultisr_collect_data + 388
        0x00003a76:    2804        .(      CMP      r0,#4
        0x00003a78:    d01c        ..      BEQ      0x3ab4 ; am_util_faultisr_collect_data + 380
        0x00003a7a:    2808        .(      CMP      r0,#8
        0x00003a7c:    d126        &.      BNE      0x3acc ; am_util_faultisr_collect_data + 404
        0x00003a7e:    e015        ..      B        0x3aac ; am_util_faultisr_collect_data + 372
        0x00003a80:    2820         (      CMP      r0,#0x20
        0x00003a82:    d00b        ..      BEQ      0x3a9c ; am_util_faultisr_collect_data + 356
        0x00003a84:    2840        @(      CMP      r0,#0x40
        0x00003a86:    d005        ..      BEQ      0x3a94 ; am_util_faultisr_collect_data + 348
        0x00003a88:    2880        .(      CMP      r0,#0x80
        0x00003a8a:    d11f        ..      BNE      0x3acc ; am_util_faultisr_collect_data + 404
        0x00003a8c:    a088        ..      ADR      r0,{pc}+0x224 ; 0x3cb0
        0x00003a8e:    f000f9c3    ....    BL       am_util_stdio_printf ; 0x3e18
        0x00003a92:    e01c        ..      B        0x3ace ; am_util_faultisr_collect_data + 406
        0x00003a94:    a08e        ..      ADR      r0,{pc}+0x23c ; 0x3cd0
        0x00003a96:    f000f9bf    ....    BL       am_util_stdio_printf ; 0x3e18
        0x00003a9a:    e018        ..      B        0x3ace ; am_util_faultisr_collect_data + 406
        0x00003a9c:    a094        ..      ADR      r0,{pc}+0x254 ; 0x3cf0
        0x00003a9e:    f000f9bb    ....    BL       am_util_stdio_printf ; 0x3e18
        0x00003aa2:    e014        ..      B        0x3ace ; am_util_faultisr_collect_data + 406
        0x00003aa4:    a099        ..      ADR      r0,{pc}+0x268 ; 0x3d0c
        0x00003aa6:    f000f9b7    ....    BL       am_util_stdio_printf ; 0x3e18
        0x00003aaa:    e010        ..      B        0x3ace ; am_util_faultisr_collect_data + 406
        0x00003aac:    a09e        ..      ADR      r0,{pc}+0x27c ; 0x3d28
        0x00003aae:    f000f9b3    ....    BL       am_util_stdio_printf ; 0x3e18
        0x00003ab2:    e00c        ..      B        0x3ace ; am_util_faultisr_collect_data + 406
        0x00003ab4:    a0a4        ..      ADR      r0,{pc}+0x294 ; 0x3d48
        0x00003ab6:    f000f9af    ....    BL       am_util_stdio_printf ; 0x3e18
        0x00003aba:    e008        ..      B        0x3ace ; am_util_faultisr_collect_data + 406
        0x00003abc:    a0aa        ..      ADR      r0,{pc}+0x2ac ; 0x3d68
        0x00003abe:    f000f9ab    ....    BL       am_util_stdio_printf ; 0x3e18
        0x00003ac2:    e004        ..      B        0x3ace ; am_util_faultisr_collect_data + 406
        0x00003ac4:    a0b0        ..      ADR      r0,{pc}+0x2c4 ; 0x3d88
        0x00003ac6:    f000f9a7    ....    BL       am_util_stdio_printf ; 0x3e18
        0x00003aca:    e000        ..      B        0x3ace ; am_util_faultisr_collect_data + 406
        0x00003acc:    bf00        ..      NOP      
        0x00003ace:    bf00        ..      NOP      
        0x00003ad0:    0864        d.      LSRS     r4,r4,#1
        0x00003ad2:    2c00        .,      CMP      r4,#0
        0x00003ad4:    d1c5        ..      BNE      0x3a62 ; am_util_faultisr_collect_data + 298
        0x00003ad6:    a0b3        ..      ADR      r0,{pc}+0x2ce ; 0x3da4
        0x00003ad8:    f000f99e    ....    BL       am_util_stdio_printf ; 0x3e18
        0x00003adc:    f89d0000    ....    LDRB     r0,[sp,#0]
        0x00003ae0:    b118        ..      CBZ      r0,0x3aea ; am_util_faultisr_collect_data + 434
        0x00003ae2:    a0b5        ..      ADR      r0,{pc}+0x2d6 ; 0x3db8
        0x00003ae4:    9901        ..      LDR      r1,[sp,#4]
        0x00003ae6:    f000f997    ....    BL       am_util_stdio_printf ; 0x3e18
        0x00003aea:    f89d0008    ....    LDRB     r0,[sp,#8]
        0x00003aee:    b118        ..      CBZ      r0,0x3af8 ; am_util_faultisr_collect_data + 448
        0x00003af0:    a0b9        ..      ADR      r0,{pc}+0x2e8 ; 0x3dd8
        0x00003af2:    9903        ..      LDR      r1,[sp,#0xc]
        0x00003af4:    f000f990    ....    BL       am_util_stdio_printf ; 0x3e18
        0x00003af8:    f89d0010    ....    LDRB     r0,[sp,#0x10]
        0x00003afc:    b118        ..      CBZ      r0,0x3b06 ; am_util_faultisr_collect_data + 462
        0x00003afe:    a0be        ..      ADR      r0,{pc}+0x2fa ; 0x3df8
        0x00003b00:    9905        ..      LDR      r1,[sp,#0x14]
        0x00003b02:    f000f989    ....    BL       am_util_stdio_printf ; 0x3e18
        0x00003b06:    bf00        ..      NOP      
        0x00003b08:    bf00        ..      NOP      
        0x00003b0a:    e7fe        ..      B        0x3b0a ; am_util_faultisr_collect_data + 466
    $d
        0x00003b0c:    e000ed28    (...    DCD    3758157096
        0x00003b10:    64726148    Hard    DCD    1685217608
        0x00003b14:    75614620     Fau    DCD    1969309216
        0x00003b18:    7320746c    lt s    DCD    1931506796
        0x00003b1c:    6b636174    tack    DCD    1801675124
        0x00003b20:    64206465    ed d    DCD    1679844453
        0x00003b24:    3a617461    ata:    DCD    979465313
        0x00003b28:    0000000a    ....    DCD    10
        0x00003b2c:    20202020            DCD    538976288
        0x00003b30:    20203052    R0      DCD    538980434
        0x00003b34:    7830203d    = 0x    DCD    2016419901
        0x00003b38:    58383025    %08X    DCD    1480077349
        0x00003b3c:    0000000a    ....    DCD    10
        0x00003b40:    20202020            DCD    538976288
        0x00003b44:    20203152    R1      DCD    538980690
        0x00003b48:    7830203d    = 0x    DCD    2016419901
        0x00003b4c:    58383025    %08X    DCD    1480077349
        0x00003b50:    0000000a    ....    DCD    10
        0x00003b54:    20202020            DCD    538976288
        0x00003b58:    20203252    R2      DCD    538980946
        0x00003b5c:    7830203d    = 0x    DCD    2016419901
        0x00003b60:    58383025    %08X    DCD    1480077349
        0x00003b64:    0000000a    ....    DCD    10
        0x00003b68:    20202020            DCD    538976288
        0x00003b6c:    20203352    R3      DCD    538981202
        0x00003b70:    7830203d    = 0x    DCD    2016419901
        0x00003b74:    58383025    %08X    DCD    1480077349
        0x00003b78:    0000000a    ....    DCD    10
        0x00003b7c:    20202020            DCD    538976288
        0x00003b80:    20323152    R12     DCD    540160338
        0x00003b84:    7830203d    = 0x    DCD    2016419901
        0x00003b88:    58383025    %08X    DCD    1480077349
        0x00003b8c:    0000000a    ....    DCD    10
        0x00003b90:    20202020            DCD    538976288
        0x00003b94:    2020524c    LR      DCD    538989132
        0x00003b98:    7830203d    = 0x    DCD    2016419901
        0x00003b9c:    58383025    %08X    DCD    1480077349
        0x00003ba0:    0000000a    ....    DCD    10
        0x00003ba4:    20202020            DCD    538976288
        0x00003ba8:    20204350    PC      DCD    538985296
        0x00003bac:    7830203d    = 0x    DCD    2016419901
        0x00003bb0:    58383025    %08X    DCD    1480077349
        0x00003bb4:    0000000a    ....    DCD    10
        0x00003bb8:    20202020            DCD    538976288
        0x00003bbc:    20525350    PSR     DCD    542266192
        0x00003bc0:    7830203d    = 0x    DCD    2016419901
        0x00003bc4:    58383025    %08X    DCD    1480077349
        0x00003bc8:    0000000a    ....    DCD    10
        0x00003bcc:    6568744f    Othe    DCD    1701344335
        0x00003bd0:    61482072    r Ha    DCD    1632116850
        0x00003bd4:    46206472    rd F    DCD    1176527986
        0x00003bd8:    746c7561    ault    DCD    1953264993
        0x00003bdc:    74616420     dat    DCD    1952539680
        0x00003be0:    000a3a61    a:..    DCD    670305
        0x00003be4:    20202020            DCD    538976288
        0x00003be8:    6c756146    Faul    DCD    1819631942
        0x00003bec:    64612074    t ad    DCD    1684086900
        0x00003bf0:    73657264    dres    DCD    1936028260
        0x00003bf4:    203d2073    s =     DCD    540876915
        0x00003bf8:    30257830    0x%0    DCD    807761968
        0x00003bfc:    000a5838    8X..    DCD    677944
        0x00003c00:    20202020            DCD    538976288
        0x00003c04:    52414642    BFAR    DCD    1380009538
        0x00003c08:    75422820     (Bu    DCD    1967269920
        0x00003c0c:    61462073    s Fa    DCD    1631985779
        0x00003c10:    20746c75    ult     DCD    544500853
        0x00003c14:    72646441    Addr    DCD    1919181889
        0x00003c18:    67655220     Reg    DCD    1734693408
        0x00003c1c:    203d2029    ) =     DCD    540876841
        0x00003c20:    30257830    0x%0    DCD    807761968
        0x00003c24:    000a5838    8X..    DCD    677944
        0x00003c28:    20202020            DCD    538976288
        0x00003c2c:    52534d4d    MMSR    DCD    1381190989
        0x00003c30:    654d2820     (Me    DCD    1699555360
        0x00003c34:    674d206d    m Mg    DCD    1733107821
        0x00003c38:    4620746d    mt F    DCD    1176532077
        0x00003c3c:    746c7561    ault    DCD    1953264993
        0x00003c40:    61745320     Sta    DCD    1635013408
        0x00003c44:    20737574    tus     DCD    544437620
        0x00003c48:    29676552    Reg)    DCD    694642002
        0x00003c4c:    30203d20     = 0    DCD    807419168
        0x00003c50:    32302578    x%02    DCD    842016120
        0x00003c54:    00000a58    X...    DCD    2648
        0x00003c58:    20202020            DCD    538976288
        0x00003c5c:    52534642    BFSR    DCD    1381189186
        0x00003c60:    75422820     (Bu    DCD    1967269920
        0x00003c64:    61462073    s Fa    DCD    1631985779
        0x00003c68:    20746c75    ult     DCD    544500853
        0x00003c6c:    74617453    Stat    DCD    1952543827
        0x00003c70:    52207375    us R    DCD    1377858421
        0x00003c74:    20296765    eg)     DCD    539584357
        0x00003c78:    7830203d    = 0x    DCD    2016419901
        0x00003c7c:    58323025    %02X    DCD    1479684133
        0x00003c80:    0000000a    ....    DCD    10
        0x00003c84:    20202020            DCD    538976288
        0x00003c88:    52534655    UFSR    DCD    1381189205
        0x00003c8c:    73552820     (Us    DCD    1934960672
        0x00003c90:    20656761    age     DCD    543516513
        0x00003c94:    6c756146    Faul    DCD    1819631942
        0x00003c98:    74532074    t St    DCD    1951604852
        0x00003c9c:    73757461    atus    DCD    1937077345
        0x00003ca0:    67655220     Reg    DCD    1734693408
        0x00003ca4:    203d2029    ) =     DCD    540876841
        0x00003ca8:    30257830    0x%0    DCD    807761968
        0x00003cac:    000a5834    4X..    DCD    677940
        0x00003cb0:    20202020            DCD    538976288
        0x00003cb4:    20202020            DCD    538976288
        0x00003cb8:    52534642    BFSR    DCD    1381189186
        0x00003cbc:    74696220     bit    DCD    1953063456
        0x00003cc0:    42203a37    7: B    DCD    1109408311
        0x00003cc4:    56524146    FARV    DCD    1448231238
        0x00003cc8:    44494c41    ALID    DCD    1145654337
        0x00003ccc:    0000000a    ....    DCD    10
        0x00003cd0:    20202020            DCD    538976288
        0x00003cd4:    20202020            DCD    538976288
        0x00003cd8:    52534642    BFSR    DCD    1381189186
        0x00003cdc:    74696220     bit    DCD    1953063456
        0x00003ce0:    52203a36    6: R    DCD    1377843766
        0x00003ce4:    52455345    ESER    DCD    1380275013
        0x00003ce8:    0a444556    VED.    DCD    172246358
        0x00003cec:    00000000    ....    DCD    0
        0x00003cf0:    20202020            DCD    538976288
        0x00003cf4:    20202020            DCD    538976288
        0x00003cf8:    52534642    BFSR    DCD    1381189186
        0x00003cfc:    74696220     bit    DCD    1953063456
        0x00003d00:    4c203a35    5: L    DCD    1277180469
        0x00003d04:    52455053    SPER    DCD    1380274259
        0x00003d08:    00000a52    R...    DCD    2642
        0x00003d0c:    20202020            DCD    538976288
        0x00003d10:    20202020            DCD    538976288
        0x00003d14:    52534642    BFSR    DCD    1381189186
        0x00003d18:    74696220     bit    DCD    1953063456
        0x00003d1c:    53203a34    4: S    DCD    1394620980
        0x00003d20:    52454b54    TKER    DCD    1380272980
        0x00003d24:    00000a52    R...    DCD    2642
        0x00003d28:    20202020            DCD    538976288
        0x00003d2c:    20202020            DCD    538976288
        0x00003d30:    52534642    BFSR    DCD    1381189186
        0x00003d34:    74696220     bit    DCD    1953063456
        0x00003d38:    55203a33    3: U    DCD    1428175411
        0x00003d3c:    4b54534e    NSTK    DCD    1263817550
        0x00003d40:    0a525245    ERR.    DCD    173167173
        0x00003d44:    00000000    ....    DCD    0
        0x00003d48:    20202020            DCD    538976288
        0x00003d4c:    20202020            DCD    538976288
        0x00003d50:    52534642    BFSR    DCD    1381189186
        0x00003d54:    74696220     bit    DCD    1953063456
        0x00003d58:    49203a32    2: I    DCD    1226848818
        0x00003d5c:    4552504d    MPRE    DCD    1163022413
        0x00003d60:    45534943    CISE    DCD    1163086147
        0x00003d64:    000a5252    RR..    DCD    676434
        0x00003d68:    20202020            DCD    538976288
        0x00003d6c:    20202020            DCD    538976288
        0x00003d70:    52534642    BFSR    DCD    1381189186
        0x00003d74:    74696220     bit    DCD    1953063456
        0x00003d78:    50203a31    1: P    DCD    1344289329
        0x00003d7c:    49434552    RECI    DCD    1229145426
        0x00003d80:    52454553    SEER    DCD    1380271443
        0x00003d84:    00000a52    R...    DCD    2642
        0x00003d88:    20202020            DCD    538976288
        0x00003d8c:    20202020            DCD    538976288
        0x00003d90:    52534642    BFSR    DCD    1381189186
        0x00003d94:    74696220     bit    DCD    1953063456
        0x00003d98:    49203a30    0: I    DCD    1226848816
        0x00003d9c:    45535542    BUSE    DCD    1163089218
        0x00003da0:    000a5252    RR..    DCD    676434
        0x00003da4:    2055434d    MCU     DCD    542458701
        0x00003da8:    6c756146    Faul    DCD    1819631942
        0x00003dac:    61642074    t da    DCD    1633951860
        0x00003db0:    0a3a6174    ta:.    DCD    171598196
        0x00003db4:    00000000    ....    DCD    0
        0x00003db8:    49202020       I    DCD    1226842144
        0x00003dbc:    45444f43    CODE    DCD    1162104643
        0x00003dc0:    75614620     Fau    DCD    1969309216
        0x00003dc4:    4120746c    lt A    DCD    1092645996
        0x00003dc8:    65726464    ddre    DCD    1701995620
        0x00003dcc:    203a7373    ss:     DCD    540701555
        0x00003dd0:    30257830    0x%0    DCD    807761968
        0x00003dd4:    000a5838    8X..    DCD    677944
        0x00003dd8:    44202020       D    DCD    1142956064
        0x00003ddc:    45444f43    CODE    DCD    1162104643
        0x00003de0:    75614620     Fau    DCD    1969309216
        0x00003de4:    4120746c    lt A    DCD    1092645996
        0x00003de8:    65726464    ddre    DCD    1701995620
        0x00003dec:    203a7373    ss:     DCD    540701555
        0x00003df0:    30257830    0x%0    DCD    807761968
        0x00003df4:    000a5838    8X..    DCD    677944
        0x00003df8:    53202020       S    DCD    1394614304
        0x00003dfc:    46205359    YS F    DCD    1176523609
        0x00003e00:    746c7561    ault    DCD    1953264993
        0x00003e04:    64644120     Add    DCD    1684291872
        0x00003e08:    73736572    ress    DCD    1936942450
        0x00003e0c:    7830203a    : 0x    DCD    2016419898
        0x00003e10:    58383025    %08X    DCD    1480077349
        0x00003e14:    0000000a    ....    DCD    10
    $t
    i.am_util_stdio_printf
    am_util_stdio_printf
        0x00003e18:    b40f        ..      PUSH     {r0-r3}
        0x00003e1a:    b538        8.      PUSH     {r3-r5,lr}
        0x00003e1c:    480b        .H      LDR      r0,[pc,#44] ; [0x3e4c] = 0x1000004c
        0x00003e1e:    6800        .h      LDR      r0,[r0,#0]
        0x00003e20:    b918        ..      CBNZ     r0,0x3e2a ; am_util_stdio_printf + 18
        0x00003e22:    2000        .       MOVS     r0,#0
        0x00003e24:    bc38        8.      POP      {r3-r5}
        0x00003e26:    f85dfb14    ]...    LDR      pc,[sp],#0x14
        0x00003e2a:    a805        ..      ADD      r0,sp,#0x14
        0x00003e2c:    9000        ..      STR      r0,[sp,#0]
        0x00003e2e:    4808        .H      LDR      r0,[pc,#32] ; [0x3e50] = 0x100055a0
        0x00003e30:    9a00        ..      LDR      r2,[sp,#0]
        0x00003e32:    9904        ..      LDR      r1,[sp,#0x10]
        0x00003e34:    f000f824    ..$.    BL       am_util_stdio_vsprintf ; 0x3e80
        0x00003e38:    4604        .F      MOV      r4,r0
        0x00003e3a:    2000        .       MOVS     r0,#0
        0x00003e3c:    9000        ..      STR      r0,[sp,#0]
        0x00003e3e:    4804        .H      LDR      r0,[pc,#16] ; [0x3e50] = 0x100055a0
        0x00003e40:    4902        .I      LDR      r1,[pc,#8] ; [0x3e4c] = 0x1000004c
        0x00003e42:    6809        .h      LDR      r1,[r1,#0]
        0x00003e44:    4788        .G      BLX      r1
        0x00003e46:    4620         F      MOV      r0,r4
        0x00003e48:    e7ec        ..      B        0x3e24 ; am_util_stdio_printf + 12
    $d
        0x00003e4a:    0000        ..      DCW    0
        0x00003e4c:    1000004c    L...    DCD    268435532
        0x00003e50:    100055a0    .U..    DCD    268457376
    $t
    i.am_util_stdio_printf_init
    am_util_stdio_printf_init
        0x00003e54:    4901        .I      LDR      r1,[pc,#4] ; [0x3e5c] = 0x1000004c
        0x00003e56:    6008        .`      STR      r0,[r1,#0]
        0x00003e58:    4770        pG      BX       lr
    $d
        0x00003e5a:    0000        ..      DCW    0
        0x00003e5c:    1000004c    L...    DCD    268435532
    $t
    i.am_util_stdio_terminal_clear
    am_util_stdio_terminal_clear
        0x00003e60:    b510        ..      PUSH     {r4,lr}
        0x00003e62:    a002        ..      ADR      r0,{pc}+0xa ; 0x3e6c
        0x00003e64:    f7ffffd8    ....    BL       am_util_stdio_printf ; 0x3e18
        0x00003e68:    bd10        ..      POP      {r4,pc}
    $d
        0x00003e6a:    0000        ..      DCW    0
        0x00003e6c:    0a0a0a0a    ....    DCD    168430090
        0x00003e70:    0a0a0a0a    ....    DCD    168430090
        0x00003e74:    0a0a0a0a    ....    DCD    168430090
        0x00003e78:    0a0a0a0a    ....    DCD    168430090
        0x00003e7c:    00000a0a    ....    DCD    2570
    $t
    i.am_util_stdio_vsprintf
    am_util_stdio_vsprintf
        0x00003e80:    e92d4ff7    -..O    PUSH     {r0-r2,r4-r11,lr}
        0x00003e84:    ed2d8b02    -...    VPUSH    {d8}
        0x00003e88:    b08a        ..      SUB      sp,sp,#0x28
        0x00003e8a:    4604        .F      MOV      r4,r0
        0x00003e8c:    460d        .F      MOV      r5,r1
        0x00003e8e:    f04f0900    O...    MOV      r9,#0
        0x00003e92:    2000        .       MOVS     r0,#0
        0x00003e94:    9000        ..      STR      r0,[sp,#0]
        0x00003e96:    e1b9        ..      B        0x420c ; am_util_stdio_vsprintf + 908
        0x00003e98:    2006        .       MOVS     r0,#6
        0x00003e9a:    9006        ..      STR      r0,[sp,#0x18]
        0x00003e9c:    7828        (x      LDRB     r0,[r5,#0]
        0x00003e9e:    2825        %(      CMP      r0,#0x25
        0x00003ea0:    d012        ..      BEQ      0x3ec8 ; am_util_stdio_vsprintf + 72
        0x00003ea2:    b16c        l.      CBZ      r4,0x3ec0 ; am_util_stdio_vsprintf + 64
        0x00003ea4:    7828        (x      LDRB     r0,[r5,#0]
        0x00003ea6:    280a        .(      CMP      r0,#0xa
        0x00003ea8:    d107        ..      BNE      0x3eba ; am_util_stdio_vsprintf + 58
        0x00003eaa:    48de        .H      LDR      r0,[pc,#888] ; [0x4224] = 0x10000050
        0x00003eac:    7800        .x      LDRB     r0,[r0,#0]
        0x00003eae:    b120         .      CBZ      r0,0x3eba ; am_util_stdio_vsprintf + 58
        0x00003eb0:    200d        .       MOVS     r0,#0xd
        0x00003eb2:    f8040b01    ....    STRB     r0,[r4],#1
        0x00003eb6:    f1090901    ....    ADD      r9,r9,#1
        0x00003eba:    7828        (x      LDRB     r0,[r5,#0]
        0x00003ebc:    f8040b01    ....    STRB     r0,[r4],#1
        0x00003ec0:    1c6d        m.      ADDS     r5,r5,#1
        0x00003ec2:    f1090901    ....    ADD      r9,r9,#1
        0x00003ec6:    e1a1        ..      B        0x420c ; am_util_stdio_vsprintf + 908
        0x00003ec8:    1c6d        m.      ADDS     r5,r5,#1
        0x00003eca:    2000        .       MOVS     r0,#0
        0x00003ecc:    9002        ..      STR      r0,[sp,#8]
        0x00003ece:    9003        ..      STR      r0,[sp,#0xc]
        0x00003ed0:    2020                MOVS     r0,#0x20
        0x00003ed2:    9004        ..      STR      r0,[sp,#0x10]
        0x00003ed4:    7828        (x      LDRB     r0,[r5,#0]
        0x00003ed6:    2830        0(      CMP      r0,#0x30
        0x00003ed8:    d101        ..      BNE      0x3ede ; am_util_stdio_vsprintf + 94
        0x00003eda:    9004        ..      STR      r0,[sp,#0x10]
        0x00003edc:    1c6d        m.      ADDS     r5,r5,#1
        0x00003ede:    a907        ..      ADD      r1,sp,#0x1c
        0x00003ee0:    4628        (F      MOV      r0,r5
        0x00003ee2:    f000fa87    ....    BL       decstr_to_int ; 0x43f4
        0x00003ee6:    4606        .F      MOV      r6,r0
        0x00003ee8:    9807        ..      LDR      r0,[sp,#0x1c]
        0x00003eea:    4405        .D      ADD      r5,r5,r0
        0x00003eec:    7828        (x      LDRB     r0,[r5,#0]
        0x00003eee:    2873        s(      CMP      r0,#0x73
        0x00003ef0:    d002        ..      BEQ      0x3ef8 ; am_util_stdio_vsprintf + 120
        0x00003ef2:    2e00        ..      CMP      r6,#0
        0x00003ef4:    da00        ..      BGE      0x3ef8 ; am_util_stdio_vsprintf + 120
        0x00003ef6:    4276        vB      RSBS     r6,r6,#0
        0x00003ef8:    7828        (x      LDRB     r0,[r5,#0]
        0x00003efa:    282e        .(      CMP      r0,#0x2e
        0x00003efc:    d107        ..      BNE      0x3f0e ; am_util_stdio_vsprintf + 142
        0x00003efe:    1c6d        m.      ADDS     r5,r5,#1
        0x00003f00:    a907        ..      ADD      r1,sp,#0x1c
        0x00003f02:    4628        (F      MOV      r0,r5
        0x00003f04:    f000fa76    ..v.    BL       decstr_to_int ; 0x43f4
        0x00003f08:    9006        ..      STR      r0,[sp,#0x18]
        0x00003f0a:    9807        ..      LDR      r0,[sp,#0x1c]
        0x00003f0c:    4405        .D      ADD      r5,r5,r0
        0x00003f0e:    7828        (x      LDRB     r0,[r5,#0]
        0x00003f10:    286c        l(      CMP      r0,#0x6c
        0x00003f12:    d106        ..      BNE      0x3f22 ; am_util_stdio_vsprintf + 162
        0x00003f14:    1c6d        m.      ADDS     r5,r5,#1
        0x00003f16:    7828        (x      LDRB     r0,[r5,#0]
        0x00003f18:    286c        l(      CMP      r0,#0x6c
        0x00003f1a:    d102        ..      BNE      0x3f22 ; am_util_stdio_vsprintf + 162
        0x00003f1c:    1c6d        m.      ADDS     r5,r5,#1
        0x00003f1e:    2001        .       MOVS     r0,#1
        0x00003f20:    9002        ..      STR      r0,[sp,#8]
        0x00003f22:    7828        (x      LDRB     r0,[r5,#0]
        0x00003f24:    2866        f(      CMP      r0,#0x66
        0x00003f26:    d06f        o.      BEQ      0x4008 ; am_util_stdio_vsprintf + 392
        0x00003f28:    dc08        ..      BGT      0x3f3c ; am_util_stdio_vsprintf + 188
        0x00003f2a:    2846        F(      CMP      r0,#0x46
        0x00003f2c:    d06d        m.      BEQ      0x400a ; am_util_stdio_vsprintf + 394
        0x00003f2e:    2858        X(      CMP      r0,#0x58
        0x00003f30:    d05c        \.      BEQ      0x3fec ; am_util_stdio_vsprintf + 364
        0x00003f32:    2863        c(      CMP      r0,#0x63
        0x00003f34:    d00b        ..      BEQ      0x3f4e ; am_util_stdio_vsprintf + 206
        0x00003f36:    2864        d(      CMP      r0,#0x64
        0x00003f38:    d168        h.      BNE      0x400c ; am_util_stdio_vsprintf + 396
        0x00003f3a:    e0c3        ..      B        0x40c4 ; am_util_stdio_vsprintf + 580
        0x00003f3c:    2869        i(      CMP      r0,#0x69
        0x00003f3e:    d07d        }.      BEQ      0x403c ; am_util_stdio_vsprintf + 444
        0x00003f40:    2873        s(      CMP      r0,#0x73
        0x00003f42:    d011        ..      BEQ      0x3f68 ; am_util_stdio_vsprintf + 232
        0x00003f44:    2875        u(      CMP      r0,#0x75
        0x00003f46:    d07a        z.      BEQ      0x403e ; am_util_stdio_vsprintf + 446
        0x00003f48:    2878        x(      CMP      r0,#0x78
        0x00003f4a:    d1f5        ..      BNE      0x3f38 ; am_util_stdio_vsprintf + 184
        0x00003f4c:    e04b        K.      B        0x3fe6 ; am_util_stdio_vsprintf + 358
        0x00003f4e:    980e        ..      LDR      r0,[sp,#0x38]
        0x00003f50:    f8101b04    ....    LDRB     r1,[r0],#4
        0x00003f54:    900e        ..      STR      r0,[sp,#0x38]
        0x00003f56:    b2c8        ..      UXTB     r0,r1
        0x00003f58:    9005        ..      STR      r0,[sp,#0x14]
        0x00003f5a:    b114        ..      CBZ      r4,0x3f62 ; am_util_stdio_vsprintf + 226
        0x00003f5c:    9805        ..      LDR      r0,[sp,#0x14]
        0x00003f5e:    f8040b01    ....    STRB     r0,[r4],#1
        0x00003f62:    f1090901    ....    ADD      r9,r9,#1
        0x00003f66:    e14e        N.      B        0x4206 ; am_util_stdio_vsprintf + 902
        0x00003f68:    980e        ..      LDR      r0,[sp,#0x38]
        0x00003f6a:    f850bb04    P...    LDR      r11,[r0],#4
        0x00003f6e:    900e        ..      STR      r0,[sp,#0x38]
        0x00003f70:    4658        XF      MOV      r0,r11
        0x00003f72:    f001fc63    ..c.    BL       simple_strlen ; 0x583c
        0x00003f76:    9000        ..      STR      r0,[sp,#0]
        0x00003f78:    2e00        ..      CMP      r6,#0
        0x00003f7a:    dd11        ..      BLE      0x3fa0 ; am_util_stdio_vsprintf + 288
        0x00003f7c:    9800        ..      LDR      r0,[sp,#0]
        0x00003f7e:    42b0        .B      CMP      r0,r6
        0x00003f80:    d20e        ..      BCS      0x3fa0 ; am_util_stdio_vsprintf + 288
        0x00003f82:    9800        ..      LDR      r0,[sp,#0]
        0x00003f84:    1a36        6.      SUBS     r6,r6,r0
        0x00003f86:    4632        2F      MOV      r2,r6
        0x00003f88:    4620         F      MOV      r0,r4
        0x00003f8a:    9904        ..      LDR      r1,[sp,#0x10]
        0x00003f8c:    f001fba2    ....    BL       padbuffer ; 0x56d4
        0x00003f90:    4606        .F      MOV      r6,r0
        0x00003f92:    b10c        ..      CBZ      r4,0x3f98 ; am_util_stdio_vsprintf + 280
        0x00003f94:    4630        0F      MOV      r0,r6
        0x00003f96:    e000        ..      B        0x3f9a ; am_util_stdio_vsprintf + 282
        0x00003f98:    2000        .       MOVS     r0,#0
        0x00003f9a:    4404        .D      ADD      r4,r4,r0
        0x00003f9c:    44b1        .D      ADD      r9,r9,r6
        0x00003f9e:    2600        .&      MOVS     r6,#0
        0x00003fa0:    e008        ..      B        0x3fb4 ; am_util_stdio_vsprintf + 308
        0x00003fa2:    b11c        ..      CBZ      r4,0x3fac ; am_util_stdio_vsprintf + 300
        0x00003fa4:    f89b0000    ....    LDRB     r0,[r11,#0]
        0x00003fa8:    f8040b01    ....    STRB     r0,[r4],#1
        0x00003fac:    f10b0b01    ....    ADD      r11,r11,#1
        0x00003fb0:    f1090901    ....    ADD      r9,r9,#1
        0x00003fb4:    f89b0000    ....    LDRB     r0,[r11,#0]
        0x00003fb8:    2800        .(      CMP      r0,#0
        0x00003fba:    d1f2        ..      BNE      0x3fa2 ; am_util_stdio_vsprintf + 290
        0x00003fbc:    b196        ..      CBZ      r6,0x3fe4 ; am_util_stdio_vsprintf + 356
        0x00003fbe:    4276        vB      RSBS     r6,r6,#0
        0x00003fc0:    9800        ..      LDR      r0,[sp,#0]
        0x00003fc2:    42b0        .B      CMP      r0,r6
        0x00003fc4:    d20e        ..      BCS      0x3fe4 ; am_util_stdio_vsprintf + 356
        0x00003fc6:    9800        ..      LDR      r0,[sp,#0]
        0x00003fc8:    1a36        6.      SUBS     r6,r6,r0
        0x00003fca:    4632        2F      MOV      r2,r6
        0x00003fcc:    4620         F      MOV      r0,r4
        0x00003fce:    9904        ..      LDR      r1,[sp,#0x10]
        0x00003fd0:    f001fb80    ....    BL       padbuffer ; 0x56d4
        0x00003fd4:    4606        .F      MOV      r6,r0
        0x00003fd6:    b10c        ..      CBZ      r4,0x3fdc ; am_util_stdio_vsprintf + 348
        0x00003fd8:    4630        0F      MOV      r0,r6
        0x00003fda:    e000        ..      B        0x3fde ; am_util_stdio_vsprintf + 350
        0x00003fdc:    2000        .       MOVS     r0,#0
        0x00003fde:    4404        .D      ADD      r4,r4,r0
        0x00003fe0:    44b1        .D      ADD      r9,r9,r6
        0x00003fe2:    2600        .&      MOVS     r6,#0
        0x00003fe4:    e10f        ..      B        0x4206 ; am_util_stdio_vsprintf + 902
        0x00003fe6:    2001        .       MOVS     r0,#1
        0x00003fe8:    9003        ..      STR      r0,[sp,#0xc]
        0x00003fea:    bf00        ..      NOP      
        0x00003fec:    9802        ..      LDR      r0,[sp,#8]
        0x00003fee:    b170        p.      CBZ      r0,0x400e ; am_util_stdio_vsprintf + 398
        0x00003ff0:    980e        ..      LDR      r0,[sp,#0x38]
        0x00003ff2:    1dc0        ..      ADDS     r0,r0,#7
        0x00003ff4:    f0200007     ...    BIC      r0,r0,#7
        0x00003ff8:    4601        .F      MOV      r1,r0
        0x00003ffa:    900e        ..      STR      r0,[sp,#0x38]
        0x00003ffc:    6800        .h      LDR      r0,[r0,#0]
        0x00003ffe:    6849        Ih      LDR      r1,[r1,#4]
        0x00004000:    9a0e        ..      LDR      r2,[sp,#0x38]
        0x00004002:    3208        .2      ADDS     r2,r2,#8
        0x00004004:    920e        ..      STR      r2,[sp,#0x38]
        0x00004006:    e008        ..      B        0x401a ; am_util_stdio_vsprintf + 410
        0x00004008:    e0c3        ..      B        0x4192 ; am_util_stdio_vsprintf + 786
        0x0000400a:    e0c3        ..      B        0x4194 ; am_util_stdio_vsprintf + 788
        0x0000400c:    e0f4        ..      B        0x41f8 ; am_util_stdio_vsprintf + 888
        0x0000400e:    980e        ..      LDR      r0,[sp,#0x38]
        0x00004010:    6800        .h      LDR      r0,[r0,#0]
        0x00004012:    990e        ..      LDR      r1,[sp,#0x38]
        0x00004014:    1d09        ..      ADDS     r1,r1,#4
        0x00004016:    910e        ..      STR      r1,[sp,#0x38]
        0x00004018:    2100        .!      MOVS     r1,#0
        0x0000401a:    4607        .F      MOV      r7,r0
        0x0000401c:    4688        .F      MOV      r8,r1
        0x0000401e:    b19e        ..      CBZ      r6,0x4048 ; am_util_stdio_vsprintf + 456
        0x00004020:    4638        8F      MOV      r0,r7
        0x00004022:    4641        AF      MOV      r1,r8
        0x00004024:    f001fb0d    ....    BL       ndigits_in_hex ; 0x5642
        0x00004028:    1a36        6.      SUBS     r6,r6,r0
        0x0000402a:    4632        2F      MOV      r2,r6
        0x0000402c:    4620         F      MOV      r0,r4
        0x0000402e:    9904        ..      LDR      r1,[sp,#0x10]
        0x00004030:    f001fb50    ..P.    BL       padbuffer ; 0x56d4
        0x00004034:    4606        .F      MOV      r6,r0
        0x00004036:    b11c        ..      CBZ      r4,0x4040 ; am_util_stdio_vsprintf + 448
        0x00004038:    4630        0F      MOV      r0,r6
        0x0000403a:    e002        ..      B        0x4042 ; am_util_stdio_vsprintf + 450
        0x0000403c:    e043        C.      B        0x40c6 ; am_util_stdio_vsprintf + 582
        0x0000403e:    e00e        ..      B        0x405e ; am_util_stdio_vsprintf + 478
        0x00004040:    2000        .       MOVS     r0,#0
        0x00004042:    4404        .D      ADD      r4,r4,r0
        0x00004044:    44b1        .D      ADD      r9,r9,r6
        0x00004046:    2600        .&      MOVS     r6,#0
        0x00004048:    4622        "F      MOV      r2,r4
        0x0000404a:    4638        8F      MOV      r0,r7
        0x0000404c:    4641        AF      MOV      r1,r8
        0x0000404e:    9b03        ..      LDR      r3,[sp,#0xc]
        0x00004050:    f001fc00    ....    BL       uint64_to_hexstr ; 0x5854
        0x00004054:    4682        .F      MOV      r10,r0
        0x00004056:    b104        ..      CBZ      r4,0x405a ; am_util_stdio_vsprintf + 474
        0x00004058:    4454        TD      ADD      r4,r4,r10
        0x0000405a:    44d1        .D      ADD      r9,r9,r10
        0x0000405c:    e0d3        ..      B        0x4206 ; am_util_stdio_vsprintf + 902
        0x0000405e:    9802        ..      LDR      r0,[sp,#8]
        0x00004060:    b158        X.      CBZ      r0,0x407a ; am_util_stdio_vsprintf + 506
        0x00004062:    980e        ..      LDR      r0,[sp,#0x38]
        0x00004064:    1dc0        ..      ADDS     r0,r0,#7
        0x00004066:    f0200007     ...    BIC      r0,r0,#7
        0x0000406a:    4601        .F      MOV      r1,r0
        0x0000406c:    900e        ..      STR      r0,[sp,#0x38]
        0x0000406e:    6800        .h      LDR      r0,[r0,#0]
        0x00004070:    6849        Ih      LDR      r1,[r1,#4]
        0x00004072:    9a0e        ..      LDR      r2,[sp,#0x38]
        0x00004074:    3208        .2      ADDS     r2,r2,#8
        0x00004076:    920e        ..      STR      r2,[sp,#0x38]
        0x00004078:    e005        ..      B        0x4086 ; am_util_stdio_vsprintf + 518
        0x0000407a:    980e        ..      LDR      r0,[sp,#0x38]
        0x0000407c:    6800        .h      LDR      r0,[r0,#0]
        0x0000407e:    990e        ..      LDR      r1,[sp,#0x38]
        0x00004080:    1d09        ..      ADDS     r1,r1,#4
        0x00004082:    910e        ..      STR      r1,[sp,#0x38]
        0x00004084:    2100        .!      MOVS     r1,#0
        0x00004086:    4607        .F      MOV      r7,r0
        0x00004088:    4688        .F      MOV      r8,r1
        0x0000408a:    b18e        ..      CBZ      r6,0x40b0 ; am_util_stdio_vsprintf + 560
        0x0000408c:    4638        8F      MOV      r0,r7
        0x0000408e:    4641        AF      MOV      r1,r8
        0x00004090:    f001fb03    ....    BL       ndigits_in_u64 ; 0x569a
        0x00004094:    1a36        6.      SUBS     r6,r6,r0
        0x00004096:    4632        2F      MOV      r2,r6
        0x00004098:    4620         F      MOV      r0,r4
        0x0000409a:    9904        ..      LDR      r1,[sp,#0x10]
        0x0000409c:    f001fb1a    ....    BL       padbuffer ; 0x56d4
        0x000040a0:    4606        .F      MOV      r6,r0
        0x000040a2:    b10c        ..      CBZ      r4,0x40a8 ; am_util_stdio_vsprintf + 552
        0x000040a4:    4630        0F      MOV      r0,r6
        0x000040a6:    e000        ..      B        0x40aa ; am_util_stdio_vsprintf + 554
        0x000040a8:    2000        .       MOVS     r0,#0
        0x000040aa:    4404        .D      ADD      r4,r4,r0
        0x000040ac:    44b1        .D      ADD      r9,r9,r6
        0x000040ae:    2600        .&      MOVS     r6,#0
        0x000040b0:    4622        "F      MOV      r2,r4
        0x000040b2:    4638        8F      MOV      r0,r7
        0x000040b4:    4641        AF      MOV      r1,r8
        0x000040b6:    f001fc12    ....    BL       uint64_to_str ; 0x58de
        0x000040ba:    4682        .F      MOV      r10,r0
        0x000040bc:    b104        ..      CBZ      r4,0x40c0 ; am_util_stdio_vsprintf + 576
        0x000040be:    4454        TD      ADD      r4,r4,r10
        0x000040c0:    44d1        .D      ADD      r9,r9,r10
        0x000040c2:    e0a0        ..      B        0x4206 ; am_util_stdio_vsprintf + 902
        0x000040c4:    bf00        ..      NOP      
        0x000040c6:    9802        ..      LDR      r0,[sp,#8]
        0x000040c8:    b158        X.      CBZ      r0,0x40e2 ; am_util_stdio_vsprintf + 610
        0x000040ca:    980e        ..      LDR      r0,[sp,#0x38]
        0x000040cc:    1dc0        ..      ADDS     r0,r0,#7
        0x000040ce:    f0200007     ...    BIC      r0,r0,#7
        0x000040d2:    4601        .F      MOV      r1,r0
        0x000040d4:    900e        ..      STR      r0,[sp,#0x38]
        0x000040d6:    6800        .h      LDR      r0,[r0,#0]
        0x000040d8:    6849        Ih      LDR      r1,[r1,#4]
        0x000040da:    9a0e        ..      LDR      r2,[sp,#0x38]
        0x000040dc:    3208        .2      ADDS     r2,r2,#8
        0x000040de:    920e        ..      STR      r2,[sp,#0x38]
        0x000040e0:    e005        ..      B        0x40ee ; am_util_stdio_vsprintf + 622
        0x000040e2:    980e        ..      LDR      r0,[sp,#0x38]
        0x000040e4:    6800        .h      LDR      r0,[r0,#0]
        0x000040e6:    990e        ..      LDR      r1,[sp,#0x38]
        0x000040e8:    1d09        ..      ADDS     r1,r1,#4
        0x000040ea:    910e        ..      STR      r1,[sp,#0x38]
        0x000040ec:    17c1        ..      ASRS     r1,r0,#31
        0x000040ee:    e9cd0108    ....    STRD     r0,r1,[sp,#0x20]
        0x000040f2:    2300        .#      MOVS     r3,#0
        0x000040f4:    e9dd0108    ....    LDRD     r0,r1,[sp,#0x20]
        0x000040f8:    1ac0        ..      SUBS     r0,r0,r3
        0x000040fa:    4199        .A      SBCS     r1,r1,r3
        0x000040fc:    da08        ..      BGE      0x4110 ; am_util_stdio_vsprintf + 656
        0x000040fe:    2200        ."      MOVS     r2,#0
        0x00004100:    e9dd1008    ....    LDRD     r1,r0,[sp,#0x20]
        0x00004104:    424f        OB      RSBS     r7,r1,#0
        0x00004106:    eb620800    b...    SBC      r8,r2,r0
        0x0000410a:    2001        .       MOVS     r0,#1
        0x0000410c:    9001        ..      STR      r0,[sp,#4]
        0x0000410e:    e003        ..      B        0x4118 ; am_util_stdio_vsprintf + 664
        0x00004110:    e9dd7808    ...x    LDRD     r7,r8,[sp,#0x20]
        0x00004114:    2000        .       MOVS     r0,#0
        0x00004116:    9001        ..      STR      r0,[sp,#4]
        0x00004118:    b34e        N.      CBZ      r6,0x416e ; am_util_stdio_vsprintf + 750
        0x0000411a:    4638        8F      MOV      r0,r7
        0x0000411c:    4641        AF      MOV      r1,r8
        0x0000411e:    f001faaa    ....    BL       ndigits_in_i64 ; 0x5676
        0x00004122:    1a36        6.      SUBS     r6,r6,r0
        0x00004124:    9801        ..      LDR      r0,[sp,#4]
        0x00004126:    b148        H.      CBZ      r0,0x413c ; am_util_stdio_vsprintf + 700
        0x00004128:    1e76        v.      SUBS     r6,r6,#1
        0x0000412a:    9804        ..      LDR      r0,[sp,#0x10]
        0x0000412c:    2830        0(      CMP      r0,#0x30
        0x0000412e:    d105        ..      BNE      0x413c ; am_util_stdio_vsprintf + 700
        0x00004130:    b114        ..      CBZ      r4,0x4138 ; am_util_stdio_vsprintf + 696
        0x00004132:    202d        -       MOVS     r0,#0x2d
        0x00004134:    f8040b01    ....    STRB     r0,[r4],#1
        0x00004138:    f1090901    ....    ADD      r9,r9,#1
        0x0000413c:    4632        2F      MOV      r2,r6
        0x0000413e:    4620         F      MOV      r0,r4
        0x00004140:    9904        ..      LDR      r1,[sp,#0x10]
        0x00004142:    f001fac7    ....    BL       padbuffer ; 0x56d4
        0x00004146:    4606        .F      MOV      r6,r0
        0x00004148:    b10c        ..      CBZ      r4,0x414e ; am_util_stdio_vsprintf + 718
        0x0000414a:    4630        0F      MOV      r0,r6
        0x0000414c:    e000        ..      B        0x4150 ; am_util_stdio_vsprintf + 720
        0x0000414e:    2000        .       MOVS     r0,#0
        0x00004150:    4404        .D      ADD      r4,r4,r0
        0x00004152:    44b1        .D      ADD      r9,r9,r6
        0x00004154:    2600        .&      MOVS     r6,#0
        0x00004156:    9801        ..      LDR      r0,[sp,#4]
        0x00004158:    b188        ..      CBZ      r0,0x417e ; am_util_stdio_vsprintf + 766
        0x0000415a:    9804        ..      LDR      r0,[sp,#0x10]
        0x0000415c:    2820         (      CMP      r0,#0x20
        0x0000415e:    d10e        ..      BNE      0x417e ; am_util_stdio_vsprintf + 766
        0x00004160:    b114        ..      CBZ      r4,0x4168 ; am_util_stdio_vsprintf + 744
        0x00004162:    202d        -       MOVS     r0,#0x2d
        0x00004164:    f8040b01    ....    STRB     r0,[r4],#1
        0x00004168:    f1090901    ....    ADD      r9,r9,#1
        0x0000416c:    e007        ..      B        0x417e ; am_util_stdio_vsprintf + 766
        0x0000416e:    9801        ..      LDR      r0,[sp,#4]
        0x00004170:    b128        (.      CBZ      r0,0x417e ; am_util_stdio_vsprintf + 766
        0x00004172:    b114        ..      CBZ      r4,0x417a ; am_util_stdio_vsprintf + 762
        0x00004174:    202d        -       MOVS     r0,#0x2d
        0x00004176:    f8040b01    ....    STRB     r0,[r4],#1
        0x0000417a:    f1090901    ....    ADD      r9,r9,#1
        0x0000417e:    4622        "F      MOV      r2,r4
        0x00004180:    4638        8F      MOV      r0,r7
        0x00004182:    4641        AF      MOV      r1,r8
        0x00004184:    f001fbab    ....    BL       uint64_to_str ; 0x58de
        0x00004188:    4682        .F      MOV      r10,r0
        0x0000418a:    b104        ..      CBZ      r4,0x418e ; am_util_stdio_vsprintf + 782
        0x0000418c:    4454        TD      ADD      r4,r4,r10
        0x0000418e:    44d1        .D      ADD      r9,r9,r10
        0x00004190:    e039        9.      B        0x4206 ; am_util_stdio_vsprintf + 902
        0x00004192:    bf00        ..      NOP      
        0x00004194:    b37c        |.      CBZ      r4,0x41f6 ; am_util_stdio_vsprintf + 886
        0x00004196:    980e        ..      LDR      r0,[sp,#0x38]
        0x00004198:    1dc0        ..      ADDS     r0,r0,#7
        0x0000419a:    f0200007     ...    BIC      r0,r0,#7
        0x0000419e:    900e        ..      STR      r0,[sp,#0x38]
        0x000041a0:    ecb01b02    ....    VLDM     r0!,{d1}
        0x000041a4:    eeb00a41    ..A.    VMOV.F32 s0,s2
        0x000041a8:    eef00a61    ..a.    VMOV.F32 s1,s3
        0x000041ac:    900e        ..      STR      r0,[sp,#0x38]
        0x000041ae:    ec510b10    Q...    VMOV     r0,r1,d0
        0x000041b2:    f001fbcd    ....    BL       __aeabi_d2f ; 0x5950
        0x000041b6:    ee080a10    ....    VMOV     s16,r0
        0x000041ba:    2014        .       MOVS     r0,#0x14
        0x000041bc:    6020         `      STR      r0,[r4,#0]
        0x000041be:    4620         F      MOV      r0,r4
        0x000041c0:    eeb00a48    ..H.    VMOV.F32 s0,s16
        0x000041c4:    9906        ..      LDR      r1,[sp,#0x18]
        0x000041c6:    f000f99d    ....    BL       ftoa ; 0x4504
        0x000041ca:    4682        .F      MOV      r10,r0
        0x000041cc:    f1ba0f00    ....    CMP      r10,#0
        0x000041d0:    da0e        ..      BGE      0x41f0 ; am_util_stdio_vsprintf + 880
        0x000041d2:    f10a0101    ....    ADD      r1,r10,#1
        0x000041d6:    b909        ..      CBNZ     r1,0x41dc ; am_util_stdio_vsprintf + 860
        0x000041d8:    4813        .H      LDR      r0,[pc,#76] ; [0x4228] = 0x302e30
        0x000041da:    e005        ..      B        0x41e8 ; am_util_stdio_vsprintf + 872
        0x000041dc:    f10a0102    ....    ADD      r1,r10,#2
        0x000041e0:    b909        ..      CBNZ     r1,0x41e6 ; am_util_stdio_vsprintf + 870
        0x000041e2:    4812        .H      LDR      r0,[pc,#72] ; [0x422c] = 0x232e23
        0x000041e4:    e000        ..      B        0x41e8 ; am_util_stdio_vsprintf + 872
        0x000041e6:    4812        .H      LDR      r0,[pc,#72] ; [0x4230] = 0x3f2e3f
        0x000041e8:    6020         `      STR      r0,[r4,#0]
        0x000041ea:    f04f0a03    O...    MOV      r10,#3
        0x000041ee:    bf00        ..      NOP      
        0x000041f0:    44d1        .D      ADD      r9,r9,r10
        0x000041f2:    4454        TD      ADD      r4,r4,r10
        0x000041f4:    bf00        ..      NOP      
        0x000041f6:    e006        ..      B        0x4206 ; am_util_stdio_vsprintf + 902
        0x000041f8:    b114        ..      CBZ      r4,0x4200 ; am_util_stdio_vsprintf + 896
        0x000041fa:    7828        (x      LDRB     r0,[r5,#0]
        0x000041fc:    f8040b01    ....    STRB     r0,[r4],#1
        0x00004200:    f1090901    ....    ADD      r9,r9,#1
        0x00004204:    bf00        ..      NOP      
        0x00004206:    bf00        ..      NOP      
        0x00004208:    1c6d        m.      ADDS     r5,r5,#1
        0x0000420a:    bf00        ..      NOP      
        0x0000420c:    7828        (x      LDRB     r0,[r5,#0]
        0x0000420e:    2800        .(      CMP      r0,#0
        0x00004210:    f47fae42    ..B.    BNE      0x3e98 ; am_util_stdio_vsprintf + 24
        0x00004214:    b104        ..      CBZ      r4,0x4218 ; am_util_stdio_vsprintf + 920
        0x00004216:    7020         p      STRB     r0,[r4,#0]
        0x00004218:    4648        HF      MOV      r0,r9
        0x0000421a:    b00a        ..      ADD      sp,sp,#0x28
        0x0000421c:    ecbd8b02    ....    VPOP     {d8}
        0x00004220:    e8bd8ffe    ....    POP      {r1-r11,pc}
    $d
        0x00004224:    10000050    P...    DCD    268435536
        0x00004228:    00302e30    0.0.    DCD    3157552
        0x0000422c:    00232e23    #.#.    DCD    2305571
        0x00004230:    003f2e3f    ?.?.    DCD    4140607
    $t
    i.build_dma_cmdlist
    build_dma_cmdlist
        0x00004234:    b470        p.      PUSH     {r4-r6}
        0x00004236:    f8d0c004    ....    LDR      r12,[r0,#4]
        0x0000423a:    2508        .%      MOVS     r5,#8
        0x0000423c:    b111        ..      CBZ      r1,0x4244 ; build_dma_cmdlist + 16
        0x0000423e:    2901        .)      CMP      r1,#1
        0x00004240:    d05a        Z.      BEQ      0x42f8 ; build_dma_cmdlist + 196
        0x00004242:    e0ba        ..      B        0x43ba ; build_dma_cmdlist + 390
        0x00004244:    6859        Yh      LDR      r1,[r3,#4]
        0x00004246:    f5b13f80    ...?    CMP      r1,#0x10000
        0x0000424a:    d259        Y.      BCS      0x4300 ; build_dma_cmdlist + 204
        0x0000424c:    4960        `I      LDR      r1,[pc,#384] ; [0x43d0] = 0x40060008
        0x0000424e:    f44f7400    O..t    MOV      r4,#0x200
        0x00004252:    eb01310c    ...1    ADD      r1,r1,r12,LSL #12
        0x00004256:    6011        .`      STR      r1,[r2,#0]
        0x00004258:    68d9        .h      LDR      r1,[r3,#0xc]
        0x0000425a:    6051        Q`      STR      r1,[r2,#4]
        0x0000425c:    495d        ]I      LDR      r1,[pc,#372] ; [0x43d4] = 0x4006000c
        0x0000425e:    eb01310c    ...1    ADD      r1,r1,r12,LSL #12
        0x00004262:    6091        .`      STR      r1,[r2,#8]
        0x00004264:    8a59        Y.      LDRH     r1,[r3,#0x12]
        0x00004266:    60d1        .`      STR      r1,[r2,#0xc]
        0x00004268:    495b        [I      LDR      r1,[pc,#364] ; [0x43d8] = 0x40060000
        0x0000426a:    eb01310c    ...1    ADD      r1,r1,r12,LSL #12
        0x0000426e:    6111        .a      STR      r1,[r2,#0x10]
        0x00004270:    7a59        Yz      LDRB     r1,[r3,#9]
        0x00004272:    f44f6c00    O..l    MOV      r12,#0x800
        0x00004276:    ea0c21c1    ...!    AND      r1,r12,r1,LSL #11
        0x0000427a:    f8b3c004    ....    LDRH     r12,[r3,#4]
        0x0000427e:    7b80        .{      LDRB     r0,[r0,#0xe]
        0x00004280:    ea41410c    A..A    ORR      r1,r1,r12,LSL #16
        0x00004284:    f893c008    ....    LDRB     r12,[r3,#8]
        0x00004288:    ea042c4c    ..L,    AND      r12,r4,r12,LSL #9
        0x0000428c:    ea41010c    A...    ORR      r1,r1,r12
        0x00004290:    f893c00a    ....    LDRB     r12,[r3,#0xa]
        0x00004294:    2480        .$      MOVS     r4,#0x80
        0x00004296:    ea041ccc    ....    AND      r12,r4,r12,LSL #7
        0x0000429a:    ea41010c    A...    ORR      r1,r1,r12
        0x0000429e:    f893c010    ....    LDRB     r12,[r3,#0x10]
        0x000042a2:    2440        @$      MOVS     r4,#0x40
        0x000042a4:    ea041c8c    ....    AND      r12,r4,r12,LSL #6
        0x000042a8:    ea41010c    A...    ORR      r1,r1,r12
        0x000042ac:    f893c00b    ....    LDRB     r12,[r3,#0xb]
        0x000042b0:    2420         $      MOVS     r4,#0x20
        0x000042b2:    ea041c4c    ..L.    AND      r12,r4,r12,LSL #5
        0x000042b6:    ea41010c    A...    ORR      r1,r1,r12
        0x000042ba:    f893c014    ....    LDRB     r12,[r3,#0x14]
        0x000042be:    0164        d.      LSLS     r4,r4,#5
        0x000042c0:    ea042c8c    ...,    AND      r12,r4,r12,LSL #10
        0x000042c4:    ea41010c    A...    ORR      r1,r1,r12
        0x000042c8:    f44f7c80    O..|    MOV      r12,#0x100
        0x000042cc:    ea0c2000    ...     AND      r0,r12,r0,LSL #8
        0x000042d0:    4308        .C      ORRS     r0,r0,r1
        0x000042d2:    7d99        .}      LDRB     r1,[r3,#0x16]
        0x000042d4:    f04f0c10    O...    MOV      r12,#0x10
        0x000042d8:    ea0501c1    ....    AND      r1,r5,r1,LSL #3
        0x000042dc:    4308        .C      ORRS     r0,r0,r1
        0x000042de:    7819        .x      LDRB     r1,[r3,#0]
        0x000042e0:    ea0c1101    ....    AND      r1,r12,r1,LSL #4
        0x000042e4:    4308        .C      ORRS     r0,r0,r1
        0x000042e6:    7d59        Y}      LDRB     r1,[r3,#0x15]
        0x000042e8:    00a3        ..      LSLS     r3,r4,#2
        0x000042ea:    ea033101    ...1    AND      r1,r3,r1,LSL #12
        0x000042ee:    4308        .C      ORRS     r0,r0,r1
        0x000042f0:    f0400001    @...    ORR      r0,r0,#1
        0x000042f4:    6150        Pa      STR      r0,[r2,#0x14]
        0x000042f6:    e060        `.      B        0x43ba ; build_dma_cmdlist + 390
        0x000042f8:    6859        Yh      LDR      r1,[r3,#4]
        0x000042fa:    f1b17f80    ....    CMP      r1,#0x1000000
        0x000042fe:    d302        ..      BCC      0x4306 ; build_dma_cmdlist + 210
        0x00004300:    bc70        p.      POP      {r4-r6}
        0x00004302:    2005        .       MOVS     r0,#5
        0x00004304:    4770        pG      BX       lr
        0x00004306:    f8d01838    ..8.    LDR      r1,[r0,#0x838]
        0x0000430a:    2900        .)      CMP      r1,#0
        0x0000430c:    bf1f        ..      ITTTT    NE
        0x0000430e:    6919        .i      LDRNE    r1,[r3,#0x10]
        0x00004310:    2900        .)      CMPNE    r1,#0
        0x00004312:    2007        .       MOVNE    r0,#7
        0x00004314:    bc70        p.      POPNE    {r4-r6}
        0x00004316:    bf18        ..      IT       NE
        0x00004318:    4770        pG      BXNE     lr
        0x0000431a:    4930        0I      LDR      r1,[pc,#192] ; [0x43dc] = 0x40060100
        0x0000431c:    4e30        0N      LDR      r6,[pc,#192] ; [0x43e0] = 0x40060108
        0x0000431e:    eb01310c    ...1    ADD      r1,r1,r12,LSL #12
        0x00004322:    eb06360c    ...6    ADD      r6,r6,r12,LSL #12
        0x00004326:    f04f0400    O...    MOV      r4,#0
        0x0000432a:    6116        .a      STR      r6,[r2,#0x10]
        0x0000432c:    e9c21410    ....    STRD     r1,r4,[r2,#0x40]
        0x00004330:    68de        .h      LDR      r6,[r3,#0xc]
        0x00004332:    6156        Va      STR      r6,[r2,#0x14]
        0x00004334:    4e2b        +N      LDR      r6,[pc,#172] ; [0x43e4] = 0x4006010c
        0x00004336:    eb06360c    ...6    ADD      r6,r6,r12,LSL #12
        0x0000433a:    6196        .a      STR      r6,[r2,#0x18]
        0x0000433c:    689e        .h      LDR      r6,[r3,#8]
        0x0000433e:    61d6        .a      STR      r6,[r2,#0x1c]
        0x00004340:    4e29        )N      LDR      r6,[pc,#164] ; [0x43e8] = 0x40060110
        0x00004342:    eb06360c    ...6    ADD      r6,r6,r12,LSL #12
        0x00004346:    6216        .b      STR      r6,[r2,#0x20]
        0x00004348:    685e        ^h      LDR      r6,[r3,#4]
        0x0000434a:    e9c26109    ...a    STRD     r6,r1,[r2,#0x24]
        0x0000434e:    7819        .x      LDRB     r1,[r3,#0]
        0x00004350:    f04f0630    O.0.    MOV      r6,#0x30
        0x00004354:    ea0501c1    ....    AND      r1,r5,r1,LSL #3
        0x00004358:    785d        ]x      LDRB     r5,[r3,#1]
        0x0000435a:    ea061505    ....    AND      r5,r6,r5,LSL #4
        0x0000435e:    ea410105    A...    ORR      r1,r1,r5
        0x00004362:    789d        .x      LDRB     r5,[r3,#2]
        0x00004364:    f04f0604    O...    MOV      r6,#4
        0x00004368:    ea060585    ....    AND      r5,r6,r5,LSL #2
        0x0000436c:    ea410105    A...    ORR      r1,r1,r5
        0x00004370:    f0410103    A...    ORR      r1,r1,#3
        0x00004374:    62d1        .b      STR      r1,[r2,#0x2c]
        0x00004376:    491d        .I      LDR      r1,[pc,#116] ; [0x43ec] = 0x400602b4
        0x00004378:    eb01310c    ...1    ADD      r1,r1,r12,LSL #12
        0x0000437c:    e9c2140c    ....    STRD     r1,r4,[r2,#0x30]
        0x00004380:    e9c2140e    ....    STRD     r1,r4,[r2,#0x38]
        0x00004384:    4c1a        .L      LDR      r4,[pc,#104] ; [0x43f0] = 0x400602b8
        0x00004386:    eb043c0c    ...<    ADD      r12,r4,r12,LSL #12
        0x0000438a:    f8c2c008    ....    STR      r12,[r2,#8]
        0x0000438e:    f8c2c000    ....    STR      r12,[r2,#0]
        0x00004392:    f8d04838    ..8H    LDR      r4,[r0,#0x838]
        0x00004396:    f8d3c010    ....    LDR      r12,[r3,#0x10]
        0x0000439a:    2c01        .,      CMP      r4,#1
        0x0000439c:    d010        ..      BEQ      0x43c0 ; build_dma_cmdlist + 396
        0x0000439e:    2c02        .,      CMP      r4,#2
        0x000043a0:    bf0c        ..      ITE      EQ
        0x000043a2:    f44f4c80    O..L    MOVEQ    r12,#0x4000
        0x000043a6:    f44c4c81    L..L    ORRNE    r12,r12,#0x4080
        0x000043aa:    f44f4080    O..@    MOV      r0,#0x4000
        0x000043ae:    f8c2c004    ....    STR      r12,[r2,#4]
        0x000043b2:    60d0        .`      STR      r0,[r2,#0xc]
        0x000043b4:    6958        Xi      LDR      r0,[r3,#0x14]
        0x000043b6:    e9c21012    ....    STRD     r1,r0,[r2,#0x48]
        0x000043ba:    bc70        p.      POP      {r4-r6}
        0x000043bc:    2000        .       MOVS     r0,#0
        0x000043be:    4770        pG      BX       lr
        0x000043c0:    f24404a0    D...    MOV      r4,#0x40a0
        0x000043c4:    ea4c0c04    L...    ORR      r12,r12,r4
        0x000043c8:    2402        .$      MOVS     r4,#2
        0x000043ca:    f8c04838    ..8H    STR      r4,[r0,#0x838]
        0x000043ce:    e7ec        ..      B        0x43aa ; build_dma_cmdlist + 374
    $d
        0x000043d0:    40060008    ...@    DCD    1074135048
        0x000043d4:    4006000c    ...@    DCD    1074135052
        0x000043d8:    40060000    ...@    DCD    1074135040
        0x000043dc:    40060100    ...@    DCD    1074135296
        0x000043e0:    40060108    ...@    DCD    1074135304
        0x000043e4:    4006010c    ...@    DCD    1074135308
        0x000043e8:    40060110    ...@    DCD    1074135312
        0x000043ec:    400602b4    ...@    DCD    1074135732
        0x000043f0:    400602b8    ...@    DCD    1074135736
    $t
    i.decstr_to_int
    decstr_to_int
        0x000043f4:    b530        0.      PUSH     {r4,r5,lr}
        0x000043f6:    4602        .F      MOV      r2,r0
        0x000043f8:    2500        .%      MOVS     r5,#0
        0x000043fa:    2300        .#      MOVS     r3,#0
        0x000043fc:    2400        .$      MOVS     r4,#0
        0x000043fe:    7810        .x      LDRB     r0,[r2,#0]
        0x00004400:    282d        -(      CMP      r0,#0x2d
        0x00004402:    d102        ..      BNE      0x440a ; decstr_to_int + 22
        0x00004404:    2501        .%      MOVS     r5,#1
        0x00004406:    1c52        R.      ADDS     r2,r2,#1
        0x00004408:    1c64        d.      ADDS     r4,r4,#1
        0x0000440a:    e007        ..      B        0x441c ; decstr_to_int + 40
        0x0000440c:    1c64        d.      ADDS     r4,r4,#1
        0x0000440e:    eb030083    ....    ADD      r0,r3,r3,LSL #2
        0x00004412:    0043        C.      LSLS     r3,r0,#1
        0x00004414:    7810        .x      LDRB     r0,[r2,#0]
        0x00004416:    3830        08      SUBS     r0,r0,#0x30
        0x00004418:    4403        .D      ADD      r3,r3,r0
        0x0000441a:    1c52        R.      ADDS     r2,r2,#1
        0x0000441c:    7810        .x      LDRB     r0,[r2,#0]
        0x0000441e:    2830        0(      CMP      r0,#0x30
        0x00004420:    db02        ..      BLT      0x4428 ; decstr_to_int + 52
        0x00004422:    7810        .x      LDRB     r0,[r2,#0]
        0x00004424:    2839        9(      CMP      r0,#0x39
        0x00004426:    ddf1        ..      BLE      0x440c ; decstr_to_int + 24
        0x00004428:    b101        ..      CBZ      r1,0x442c ; decstr_to_int + 56
        0x0000442a:    600c        .`      STR      r4,[r1,#0]
        0x0000442c:    b10d        ..      CBZ      r5,0x4432 ; decstr_to_int + 62
        0x0000442e:    4258        XB      RSBS     r0,r3,#0
        0x00004430:    bd30        0.      POP      {r4,r5,pc}
        0x00004432:    4618        .F      MOV      r0,r3
        0x00004434:    e7fc        ..      B        0x4430 ; decstr_to_int + 60
    i.divu64_10
    divu64_10
        0x00004436:    e92d4ff0    -..O    PUSH     {r4-r11,lr}
        0x0000443a:    4604        .F      MOV      r4,r0
        0x0000443c:    460d        .F      MOV      r5,r1
        0x0000443e:    2000        .       MOVS     r0,#0
        0x00004440:    ea850100    ....    EOR      r1,r5,r0
        0x00004444:    4040        @@      EORS     r0,r0,r0
        0x00004446:    4301        .C      ORRS     r1,r1,r0
        0x00004448:    d044        D.      BEQ      0x44d4 ; divu64_10 + 158
        0x0000444a:    ea5f0a55    _.U.    LSRS     r10,r5,#1
        0x0000444e:    ea4f0134    O.4.    RRX      r1,r4
        0x00004452:    ea4f0b94    O...    LSR      r11,r4,#2
        0x00004456:    ea4b7085    K..p    ORR      r0,r11,r5,LSL #30
        0x0000445a:    180a        ..      ADDS     r2,r1,r0
        0x0000445c:    eb4a0395    J...    ADC      r3,r10,r5,LSR #2
        0x00004460:    ea4f1012    O...    LSR      r0,r2,#4
        0x00004464:    ea407a03    @..z    ORR      r10,r0,r3,LSL #28
        0x00004468:    eb1a0202    ....    ADDS     r2,r10,r2
        0x0000446c:    eb431313    C...    ADC      r3,r3,r3,LSR #4
        0x00004470:    ea4f2012    O..     LSR      r0,r2,#8
        0x00004474:    ea406a03    @..j    ORR      r10,r0,r3,LSL #24
        0x00004478:    eb1a0202    ....    ADDS     r2,r10,r2
        0x0000447c:    eb432313    C..#    ADC      r3,r3,r3,LSR #8
        0x00004480:    ea4f4012    O..@    LSR      r0,r2,#16
        0x00004484:    ea404a03    @..J    ORR      r10,r0,r3,LSL #16
        0x00004488:    eb1a0202    ....    ADDS     r2,r10,r2
        0x0000448c:    eb434313    C..C    ADC      r3,r3,r3,LSR #16
        0x00004490:    189a        ..      ADDS     r2,r3,r2
        0x00004492:    f1430300    C...    ADC      r3,r3,#0
        0x00004496:    08d0        ..      LSRS     r0,r2,#3
        0x00004498:    ea407243    @.Cr    ORR      r2,r0,r3,LSL #29
        0x0000449c:    08db        ..      LSRS     r3,r3,#3
        0x0000449e:    210a        .!      MOVS     r1,#0xa
        0x000044a0:    f04f0a00    O...    MOV      r10,#0
        0x000044a4:    fba20b01    ....    UMULL    r0,r11,r2,r1
        0x000044a8:    fb03b101    ....    MLA      r1,r3,r1,r11
        0x000044ac:    fb02110a    ....    MLA      r1,r2,r10,r1
        0x000044b0:    1a26        &.      SUBS     r6,r4,r0
        0x000044b2:    eb650701    e...    SBC      r7,r5,r1
        0x000044b6:    2106        .!      MOVS     r1,#6
        0x000044b8:    eb160a01    ....    ADDS     r10,r6,r1
        0x000044bc:    f1470100    G...    ADC      r1,r7,#0
        0x000044c0:    ea4f101a    O...    LSR      r0,r10,#4
        0x000044c4:    ea407a01    @..z    ORR      r10,r0,r1,LSL #28
        0x000044c8:    eb1a0002    ....    ADDS     r0,r10,r2
        0x000044cc:    eb431111    C...    ADC      r1,r3,r1,LSR #4
        0x000044d0:    e8bd8ff0    ....    POP      {r4-r11,pc}
        0x000044d4:    46a0        .F      MOV      r8,r4
        0x000044d6:    ea4f0058    O.X.    LSR      r0,r8,#1
        0x000044da:    eb000c98    ....    ADD      r12,r0,r8,LSR #2
        0x000044de:    eb0c1c1c    ....    ADD      r12,r12,r12,LSR #4
        0x000044e2:    eb0c2c1c    ...,    ADD      r12,r12,r12,LSR #8
        0x000044e6:    eb0c4c1c    ...L    ADD      r12,r12,r12,LSR #16
        0x000044ea:    ea4f0cdc    O...    LSR      r12,r12,#3
        0x000044ee:    eb0c008c    ....    ADD      r0,r12,r12,LSL #2
        0x000044f2:    eba80940    ..@.    SUB      r9,r8,r0,LSL #1
        0x000044f6:    f1090006    ....    ADD      r0,r9,#6
        0x000044fa:    eb0c1010    ....    ADD      r0,r12,r0,LSR #4
        0x000044fe:    2100        .!      MOVS     r1,#0
        0x00004500:    e7e6        ..      B        0x44d0 ; divu64_10 + 154
        0x00004502:    0000        ..      MOVS     r0,r0
    i.ftoa
    ftoa
        0x00004504:    e92d4ff3    -..O    PUSH     {r0,r1,r4-r11,lr}
        0x00004508:    ed2d0b02    -...    VPUSH    {d0}
        0x0000450c:    ed2d8b02    -...    VPUSH    {d8}
        0x00004510:    b081        ..      SUB      sp,sp,#4
        0x00004512:    eeb08a40    ..@.    VMOV.F32 s16,s0
        0x00004516:    4604        .F      MOV      r4,r0
        0x00004518:    f8d4b000    ....    LDR      r11,[r4,#0]
        0x0000451c:    f1bb0f04    ....    CMP      r11,#4
        0x00004520:    da07        ..      BGE      0x4532 ; ftoa + 46
        0x00004522:    f06f0002    o...    MVN      r0,#2
        0x00004526:    b001        ..      ADD      sp,sp,#4
        0x00004528:    ecbd8b02    ....    VPOP     {d8}
        0x0000452c:    b004        ..      ADD      sp,sp,#0x10
        0x0000452e:    e8bd8ff0    ....    POP      {r4-r11,pc}
        0x00004532:    eeb58ac0    ....    VCMPE.F32 s16,#0.0
        0x00004536:    eef1fa10    ....    VMRS     APSR_nzcv,FPSCR
        0x0000453a:    d103        ..      BNE      0x4544 ; ftoa + 64
        0x0000453c:    484e        NH      LDR      r0,[pc,#312] ; [0x4678] = 0x302e30
        0x0000453e:    6020         `      STR      r0,[r4,#0]
        0x00004540:    2003        .       MOVS     r0,#3
        0x00004542:    e7f0        ..      B        0x4526 ; ftoa + 34
        0x00004544:    46a2        .F      MOV      r10,r4
        0x00004546:    ed8d8a00    ....    VSTR     s16,[sp,#0]
        0x0000454a:    9800        ..      LDR      r0,[sp,#0]
        0x0000454c:    f3c050c7    ...P    UBFX     r0,r0,#23,#8
        0x00004550:    f1a0057f    ....    SUB      r5,r0,#0x7f
        0x00004554:    9800        ..      LDR      r0,[sp,#0]
        0x00004556:    f020407f     ..@    BIC      r0,r0,#0xff000000
        0x0000455a:    f4400900    @...    ORR      r9,r0,#0x800000
        0x0000455e:    f04f0800    O...    MOV      r8,#0
        0x00004562:    2700        .'      MOVS     r7,#0
        0x00004564:    2d1f        .-      CMP      r5,#0x1f
        0x00004566:    db01        ..      BLT      0x456c ; ftoa + 104
        0x00004568:    1eb8        ..      SUBS     r0,r7,#2
        0x0000456a:    e7dc        ..      B        0x4526 ; ftoa + 34
        0x0000456c:    f1150f17    ....    CMN      r5,#0x17
        0x00004570:    da02        ..      BGE      0x4578 ; ftoa + 116
        0x00004572:    f04f30ff    O..0    MOV      r0,#0xffffffff
        0x00004576:    e7d6        ..      B        0x4526 ; ftoa + 34
        0x00004578:    2d17        .-      CMP      r5,#0x17
        0x0000457a:    db04        ..      BLT      0x4586 ; ftoa + 130
        0x0000457c:    f1a50017    ....    SUB      r0,r5,#0x17
        0x00004580:    fa09f700    ....    LSL      r7,r9,r0
        0x00004584:    e011        ..      B        0x45aa ; ftoa + 166
        0x00004586:    2d00        .-      CMP      r5,#0
        0x00004588:    db09        ..      BLT      0x459e ; ftoa + 154
        0x0000458a:    f1c50017    ....    RSB      r0,r5,#0x17
        0x0000458e:    fa49f700    I...    ASR      r7,r9,r0
        0x00004592:    1c68        h.      ADDS     r0,r5,#1
        0x00004594:    fa09f000    ....    LSL      r0,r9,r0
        0x00004598:    f020487f     ..H    BIC      r8,r0,#0xff000000
        0x0000459c:    e005        ..      B        0x45aa ; ftoa + 166
        0x0000459e:    f029407f    )..@    BIC      r0,r9,#0xff000000
        0x000045a2:    1c69        i.      ADDS     r1,r5,#1
        0x000045a4:    4249        IB      RSBS     r1,r1,#0
        0x000045a6:    fa40f801    @...    ASR      r8,r0,r1
        0x000045aa:    9800        ..      LDR      r0,[sp,#0]
        0x000045ac:    2800        .(      CMP      r0,#0
        0x000045ae:    da02        ..      BGE      0x45b6 ; ftoa + 178
        0x000045b0:    202d        -       MOVS     r0,#0x2d
        0x000045b2:    f8040b01    ....    STRB     r0,[r4],#1
        0x000045b6:    b91f        ..      CBNZ     r7,0x45c0 ; ftoa + 188
        0x000045b8:    2030        0       MOVS     r0,#0x30
        0x000045ba:    f8040b01    ....    STRB     r0,[r4],#1
        0x000045be:    e014        ..      B        0x45ea ; ftoa + 230
        0x000045c0:    2f00        ./      CMP      r7,#0
        0x000045c2:    dd05        ..      BLE      0x45d0 ; ftoa + 204
        0x000045c4:    4622        "F      MOV      r2,r4
        0x000045c6:    4638        8F      MOV      r0,r7
        0x000045c8:    17f9        ..      ASRS     r1,r7,#31
        0x000045ca:    f001f988    ....    BL       uint64_to_str ; 0x58de
        0x000045ce:    e007        ..      B        0x45e0 ; ftoa + 220
        0x000045d0:    202d        -       MOVS     r0,#0x2d
        0x000045d2:    f8040b01    ....    STRB     r0,[r4],#1
        0x000045d6:    4622        "F      MOV      r2,r4
        0x000045d8:    4278        xB      RSBS     r0,r7,#0
        0x000045da:    17c1        ..      ASRS     r1,r0,#31
        0x000045dc:    f001f97f    ....    BL       uint64_to_str ; 0x58de
        0x000045e0:    e000        ..      B        0x45e4 ; ftoa + 224
        0x000045e2:    1c64        d.      ADDS     r4,r4,#1
        0x000045e4:    7820         x      LDRB     r0,[r4,#0]
        0x000045e6:    2800        .(      CMP      r0,#0
        0x000045e8:    d1fb        ..      BNE      0x45e2 ; ftoa + 222
        0x000045ea:    202e        .       MOVS     r0,#0x2e
        0x000045ec:    f8040b01    ....    STRB     r0,[r4],#1
        0x000045f0:    f1b80f00    ....    CMP      r8,#0
        0x000045f4:    d103        ..      BNE      0x45fe ; ftoa + 250
        0x000045f6:    2030        0       MOVS     r0,#0x30
        0x000045f8:    f8040b01    ....    STRB     r0,[r4],#1
        0x000045fc:    e036        6.      B        0x466c ; ftoa + 360
        0x000045fe:    eba4020a    ....    SUB      r2,r4,r10
        0x00004602:    ebab0202    ....    SUB      r2,r11,r2
        0x00004606:    1e51        Q.      SUBS     r1,r2,#1
        0x00004608:    9a06        ..      LDR      r2,[sp,#0x18]
        0x0000460a:    4291        .B      CMP      r1,r2
        0x0000460c:    dd01        ..      BLE      0x4612 ; ftoa + 270
        0x0000460e:    9a06        ..      LDR      r2,[sp,#0x18]
        0x00004610:    e000        ..      B        0x4614 ; ftoa + 272
        0x00004612:    460a        .F      MOV      r2,r1
        0x00004614:    4611        .F      MOV      r1,r2
        0x00004616:    2000        .       MOVS     r0,#0
        0x00004618:    e00b        ..      B        0x4632 ; ftoa + 302
        0x0000461a:    eb080288    ....    ADD      r2,r8,r8,LSL #2
        0x0000461e:    ea4f0842    O.B.    LSL      r8,r2,#1
        0x00004622:    2230        0"      MOVS     r2,#0x30
        0x00004624:    eb026228    ..(b    ADD      r2,r2,r8,ASR #24
        0x00004628:    f8042b01    ...+    STRB     r2,[r4],#1
        0x0000462c:    f028487f    (..H    BIC      r8,r8,#0xff000000
        0x00004630:    1c40        @.      ADDS     r0,r0,#1
        0x00004632:    4288        .B      CMP      r0,r1
        0x00004634:    dbf1        ..      BLT      0x461a ; ftoa + 278
        0x00004636:    eb080288    ....    ADD      r2,r8,r8,LSL #2
        0x0000463a:    0052        R.      LSLS     r2,r2,#1
        0x0000463c:    2305        .#      MOVS     r3,#5
        0x0000463e:    ebb36f22    .."o    CMP      r3,r2,ASR #24
        0x00004642:    dc12        ..      BGT      0x466a ; ftoa + 358
        0x00004644:    1e66        f.      SUBS     r6,r4,#1
        0x00004646:    e00d        ..      B        0x4664 ; ftoa + 352
        0x00004648:    7832        2x      LDRB     r2,[r6,#0]
        0x0000464a:    2a2e        .*      CMP      r2,#0x2e
        0x0000464c:    d009        ..      BEQ      0x4662 ; ftoa + 350
        0x0000464e:    7832        2x      LDRB     r2,[r6,#0]
        0x00004650:    2a39        9*      CMP      r2,#0x39
        0x00004652:    d102        ..      BNE      0x465a ; ftoa + 342
        0x00004654:    2230        0"      MOVS     r2,#0x30
        0x00004656:    7032        2p      STRB     r2,[r6,#0]
        0x00004658:    e003        ..      B        0x4662 ; ftoa + 350
        0x0000465a:    7832        2x      LDRB     r2,[r6,#0]
        0x0000465c:    1c52        R.      ADDS     r2,r2,#1
        0x0000465e:    7032        2p      STRB     r2,[r6,#0]
        0x00004660:    e002        ..      B        0x4668 ; ftoa + 356
        0x00004662:    1e76        v.      SUBS     r6,r6,#1
        0x00004664:    4556        VE      CMP      r6,r10
        0x00004666:    d2ef        ..      BCS      0x4648 ; ftoa + 324
        0x00004668:    bf00        ..      NOP      
        0x0000466a:    bf00        ..      NOP      
        0x0000466c:    2000        .       MOVS     r0,#0
        0x0000466e:    7020         p      STRB     r0,[r4,#0]
        0x00004670:    eba4000a    ....    SUB      r0,r4,r10
        0x00004674:    e757        W.      B        0x4526 ; ftoa + 34
    $d
        0x00004676:    0000        ..      DCW    0
        0x00004678:    00302e30    0.0.    DCD    3157552
    $t
    i.main
    main
        0x0000467c:    e92d43f8    -..C    PUSH     {r3-r9,lr}
        0x00004680:    4897        .H      LDR      r0,[pc,#604] ; [0x48e0] = 0x335
        0x00004682:    f0200701     ...    BIC      r7,r0,#1
        0x00004686:    f8df825c    ..\.    LDR      r8,[pc,#604] ; [0x48e4] = 0x1c000001
        0x0000468a:    f7fbff97    ....    BL       am_bsp_low_power_init ; 0x5bc
        0x0000468e:    f7fbff79    ..y.    BL       am_bsp_itm_printf_enable ; 0x584
        0x00004692:    f7fffbe5    ....    BL       am_util_stdio_terminal_clear ; 0x3e60
        0x00004696:    4894        .H      LDR      r0,[pc,#592] ; [0x48e8] = 0x10000000
        0x00004698:    6800        .h      LDR      r0,[r0,#0]
        0x0000469a:    b110        ..      CBZ      r0,0x46a2 ; main + 38
        0x0000469c:    a093        ..      ADR      r0,{pc}+0x250 ; 0x48ec
        0x0000469e:    f7fffbbb    ....    BL       am_util_stdio_printf ; 0x3e18
        0x000046a2:    4899        .H      LDR      r0,[pc,#612] ; [0x4908] = 0x1000000c
        0x000046a4:    4b99        .K      LDR      r3,[pc,#612] ; [0x490c] = 0x10000008
        0x000046a6:    4a9a        .J      LDR      r2,[pc,#616] ; [0x4910] = 0x10000004
        0x000046a8:    499a        .I      LDR      r1,[pc,#616] ; [0x4914] = 0x5ad0
        0x000046aa:    6945        Ei      LDR      r5,[r0,#0x14]
        0x000046ac:    2002        .       MOVS     r0,#2
        0x000046ae:    47a8        .G      BLX      r5
        0x000046b0:    4604        .F      MOV      r4,r0
        0x000046b2:    b114        ..      CBZ      r4,0x46ba ; main + 62
        0x000046b4:    a098        ..      ADR      r0,{pc}+0x264 ; 0x4918
        0x000046b6:    f7fffbaf    ....    BL       am_util_stdio_printf ; 0x3e18
        0x000046ba:    49a6        .I      LDR      r1,[pc,#664] ; [0x4954] = 0x5ae4
        0x000046bc:    f9910002    ....    LDRSB    r0,[r1,#2]
        0x000046c0:    2800        .(      CMP      r0,#0
        0x000046c2:    db0d        ..      BLT      0x46e0 ; main + 100
        0x000046c4:    bf00        ..      NOP      
        0x000046c6:    bf00        ..      NOP      
        0x000046c8:    f000021f    ....    AND      r2,r0,#0x1f
        0x000046cc:    2101        .!      MOVS     r1,#1
        0x000046ce:    4091        .@      LSLS     r1,r1,r2
        0x000046d0:    0942        B.      LSRS     r2,r0,#5
        0x000046d2:    0092        ..      LSLS     r2,r2,#2
        0x000046d4:    f10222e0    ..."    ADD      r2,r2,#0xe000e000
        0x000046d8:    f8c21100    ....    STR      r1,[r2,#0x100]
        0x000046dc:    bf00        ..      NOP      
        0x000046de:    bf00        ..      NOP      
        0x000046e0:    bf00        ..      NOP      
        0x000046e2:    f7fbfe5b    ..[.    BL       am_hal_interrupt_master_enable ; 0x39c
        0x000046e6:    2000        .       MOVS     r0,#0
        0x000046e8:    e002        ..      B        0x46f0 ; main + 116
        0x000046ea:    4a9b        .J      LDR      r2,[pc,#620] ; [0x4958] = 0x100035a0
        0x000046ec:    5410        .T      STRB     r0,[r2,r0]
        0x000046ee:    1c40        @.      ADDS     r0,r0,#1
        0x000046f0:    f5b05f80    ..._    CMP      r0,#0x1000
        0x000046f4:    d3f9        ..      BCC      0x46ea ; main + 110
        0x000046f6:    2100        .!      MOVS     r1,#0
        0x000046f8:    a098        ..      ADR      r0,{pc}+0x264 ; 0x495c
        0x000046fa:    f7fffb8d    ....    BL       am_util_stdio_printf ; 0x3e18
        0x000046fe:    4882        .H      LDR      r0,[pc,#520] ; [0x4908] = 0x1000000c
        0x00004700:    2100        .!      MOVS     r1,#0
        0x00004702:    6ac2        .j      LDR      r2,[r0,#0x2c]
        0x00004704:    4882        .H      LDR      r0,[pc,#520] ; [0x4910] = 0x10000004
        0x00004706:    6800        .h      LDR      r0,[r0,#0]
        0x00004708:    4790        .G      BLX      r2
        0x0000470a:    4604        .F      MOV      r4,r0
        0x0000470c:    b114        ..      CBZ      r4,0x4714 ; main + 152
        0x0000470e:    a098        ..      ADR      r0,{pc}+0x262 ; 0x4970
        0x00004710:    f7fffb82    ....    BL       am_util_stdio_printf ; 0x3e18
        0x00004714:    487c        |H      LDR      r0,[pc,#496] ; [0x4908] = 0x1000000c
        0x00004716:    6b01        .k      LDR      r1,[r0,#0x30]
        0x00004718:    487d        }H      LDR      r0,[pc,#500] ; [0x4910] = 0x10000004
        0x0000471a:    6800        .h      LDR      r0,[r0,#0]
        0x0000471c:    4788        .G      BLX      r1
        0x0000471e:    4604        .F      MOV      r4,r0
        0x00004720:    b114        ..      CBZ      r4,0x4728 ; main + 172
        0x00004722:    a09d        ..      ADR      r0,{pc}+0x276 ; 0x4998
        0x00004724:    f7fffb78    ..x.    BL       am_util_stdio_printf ; 0x3e18
        0x00004728:    f04f56e0    O..V    MOV      r6,#0x1c000000
        0x0000472c:    2500        .%      MOVS     r5,#0
        0x0000472e:    e00a        ..      B        0x4746 ; main + 202
        0x00004730:    6830        0h      LDR      r0,[r6,#0]
        0x00004732:    1c40        @.      ADDS     r0,r0,#1
        0x00004734:    b130        0.      CBZ      r0,0x4744 ; main + 200
        0x00004736:    a08e        ..      ADR      r0,{pc}+0x23a ; 0x4970
        0x00004738:    f7fffb6e    ..n.    BL       am_util_stdio_printf ; 0x3e18
        0x0000473c:    f04f30ff    O..0    MOV      r0,#0xffffffff
        0x00004740:    e8bd83f8    ....    POP      {r3-r9,pc}
        0x00004744:    1c6d        m.      ADDS     r5,r5,#1
        0x00004746:    f5b56f80    ...o    CMP      r5,#0x400
        0x0000474a:    d3f1        ..      BCC      0x4730 ; main + 180
        0x0000474c:    486e        nH      LDR      r0,[pc,#440] ; [0x4908] = 0x1000000c
        0x0000474e:    6b41        Ak      LDR      r1,[r0,#0x34]
        0x00004750:    486f        oH      LDR      r0,[pc,#444] ; [0x4910] = 0x10000004
        0x00004752:    6800        .h      LDR      r0,[r0,#0]
        0x00004754:    4788        .G      BLX      r1
        0x00004756:    4604        .F      MOV      r4,r0
        0x00004758:    b114        ..      CBZ      r4,0x4760 ; main + 228
        0x0000475a:    a099        ..      ADR      r0,{pc}+0x266 ; 0x49c0
        0x0000475c:    f7fffb5c    ..\.    BL       am_util_stdio_printf ; 0x3e18
        0x00004760:    2200        ."      MOVS     r2,#0
        0x00004762:    f44f5180    O..Q    MOV      r1,#0x1000
        0x00004766:    a0a1        ..      ADR      r0,{pc}+0x286 ; 0x49ec
        0x00004768:    f7fffb56    ..V.    BL       am_util_stdio_printf ; 0x3e18
        0x0000476c:    2001        .       MOVS     r0,#1
        0x0000476e:    9000        ..      STR      r0,[sp,#0]
        0x00004770:    4865        eH      LDR      r0,[pc,#404] ; [0x4908] = 0x1000000c
        0x00004772:    f44f5380    O..S    MOV      r3,#0x1000
        0x00004776:    2200        ."      MOVS     r2,#0
        0x00004778:    4977        wI      LDR      r1,[pc,#476] ; [0x4958] = 0x100035a0
        0x0000477a:    6a05        .j      LDR      r5,[r0,#0x20]
        0x0000477c:    4864        dH      LDR      r0,[pc,#400] ; [0x4910] = 0x10000004
        0x0000477e:    6800        .h      LDR      r0,[r0,#0]
        0x00004780:    47a8        .G      BLX      r5
        0x00004782:    4604        .F      MOV      r4,r0
        0x00004784:    b114        ..      CBZ      r4,0x478c ; main + 272
        0x00004786:    a0a1        ..      ADR      r0,{pc}+0x286 ; 0x4a0c
        0x00004788:    f7fffb46    ..F.    BL       am_util_stdio_printf ; 0x3e18
        0x0000478c:    2200        ."      MOVS     r2,#0
        0x0000478e:    f44f5180    O..Q    MOV      r1,#0x1000
        0x00004792:    a0a9        ..      ADR      r0,{pc}+0x2a6 ; 0x4a38
        0x00004794:    f7fffb40    ..@.    BL       am_util_stdio_printf ; 0x3e18
        0x00004798:    2001        .       MOVS     r0,#1
        0x0000479a:    9000        ..      STR      r0,[sp,#0]
        0x0000479c:    485a        ZH      LDR      r0,[pc,#360] ; [0x4908] = 0x1000000c
        0x0000479e:    f44f5380    O..S    MOV      r3,#0x1000
        0x000047a2:    2200        ."      MOVS     r2,#0
        0x000047a4:    49ac        .I      LDR      r1,[pc,#688] ; [0x4a58] = 0x100045a0
        0x000047a6:    6a45        Ej      LDR      r5,[r0,#0x24]
        0x000047a8:    4859        YH      LDR      r0,[pc,#356] ; [0x4910] = 0x10000004
        0x000047aa:    6800        .h      LDR      r0,[r0,#0]
        0x000047ac:    47a8        .G      BLX      r5
        0x000047ae:    4604        .F      MOV      r4,r0
        0x000047b0:    b114        ..      CBZ      r4,0x47b8 ; main + 316
        0x000047b2:    a0aa        ..      ADR      r0,{pc}+0x2aa ; 0x4a5c
        0x000047b4:    f7fffb30    ..0.    BL       am_util_stdio_printf ; 0x3e18
        0x000047b8:    a0b2        ..      ADR      r0,{pc}+0x2cc ; 0x4a84
        0x000047ba:    f7fffb2d    ..-.    BL       am_util_stdio_printf ; 0x3e18
        0x000047be:    2500        .%      MOVS     r5,#0
        0x000047c0:    e00a        ..      B        0x47d8 ; main + 348
        0x000047c2:    48a5        .H      LDR      r0,[pc,#660] ; [0x4a58] = 0x100045a0
        0x000047c4:    5d40        @]      LDRB     r0,[r0,r5]
        0x000047c6:    4964        dI      LDR      r1,[pc,#400] ; [0x4958] = 0x100035a0
        0x000047c8:    5d49        I]      LDRB     r1,[r1,r5]
        0x000047ca:    4288        .B      CMP      r0,r1
        0x000047cc:    d003        ..      BEQ      0x47d6 ; main + 346
        0x000047ce:    a0b6        ..      ADR      r0,{pc}+0x2da ; 0x4aa8
        0x000047d0:    f7fffb22    ..".    BL       am_util_stdio_printf ; 0x3e18
        0x000047d4:    e003        ..      B        0x47de ; main + 354
        0x000047d6:    1c6d        m.      ADDS     r5,r5,#1
        0x000047d8:    f5b55f80    ..._    CMP      r5,#0x1000
        0x000047dc:    d3f1        ..      BCC      0x47c2 ; main + 326
        0x000047de:    bf00        ..      NOP      
        0x000047e0:    2100        .!      MOVS     r1,#0
        0x000047e2:    a05e        ^.      ADR      r0,{pc}+0x17a ; 0x495c
        0x000047e4:    f7fffb18    ....    BL       am_util_stdio_printf ; 0x3e18
        0x000047e8:    4847        GH      LDR      r0,[pc,#284] ; [0x4908] = 0x1000000c
        0x000047ea:    2100        .!      MOVS     r1,#0
        0x000047ec:    6ac2        .j      LDR      r2,[r0,#0x2c]
        0x000047ee:    4848        HH      LDR      r0,[pc,#288] ; [0x4910] = 0x10000004
        0x000047f0:    6800        .h      LDR      r0,[r0,#0]
        0x000047f2:    4790        .G      BLX      r2
        0x000047f4:    4604        .F      MOV      r4,r0
        0x000047f6:    b114        ..      CBZ      r4,0x47fe ; main + 386
        0x000047f8:    a05d        ].      ADR      r0,{pc}+0x178 ; 0x4970
        0x000047fa:    f7fffb0d    ....    BL       am_util_stdio_printf ; 0x3e18
        0x000047fe:    a0b4        ..      ADR      r0,{pc}+0x2d2 ; 0x4ad0
        0x00004800:    f7fffb0a    ....    BL       am_util_stdio_printf ; 0x3e18
        0x00004804:    4840        @H      LDR      r0,[pc,#256] ; [0x4908] = 0x1000000c
        0x00004806:    6b81        .k      LDR      r1,[r0,#0x38]
        0x00004808:    4841        AH      LDR      r0,[pc,#260] ; [0x4910] = 0x10000004
        0x0000480a:    6800        .h      LDR      r0,[r0,#0]
        0x0000480c:    4788        .G      BLX      r1
        0x0000480e:    4604        .F      MOV      r4,r0
        0x00004810:    b114        ..      CBZ      r4,0x4818 ; main + 412
        0x00004812:    a0b9        ..      ADR      r0,{pc}+0x2e6 ; 0x4af8
        0x00004814:    f7fffb00    ....    BL       am_util_stdio_printf ; 0x3e18
        0x00004818:    2200        ."      MOVS     r2,#0
        0x0000481a:    2148        H!      MOVS     r1,#0x48
        0x0000481c:    a0bf        ..      ADR      r0,{pc}+0x300 ; 0x4b1c
        0x0000481e:    f7fffafb    ....    BL       am_util_stdio_printf ; 0x3e18
        0x00004822:    2001        .       MOVS     r0,#1
        0x00004824:    9000        ..      STR      r0,[sp,#0]
        0x00004826:    4838        8H      LDR      r0,[pc,#224] ; [0x4908] = 0x1000000c
        0x00004828:    2348        H#      MOVS     r3,#0x48
        0x0000482a:    2200        ."      MOVS     r2,#0
        0x0000482c:    4639        9F      MOV      r1,r7
        0x0000482e:    6a05        .j      LDR      r5,[r0,#0x20]
        0x00004830:    4837        7H      LDR      r0,[pc,#220] ; [0x4910] = 0x10000004
        0x00004832:    6800        .h      LDR      r0,[r0,#0]
        0x00004834:    47a8        .G      BLX      r5
        0x00004836:    4604        .F      MOV      r4,r0
        0x00004838:    b114        ..      CBZ      r4,0x4840 ; main + 452
        0x0000483a:    a0c6        ..      ADR      r0,{pc}+0x31a ; 0x4b54
        0x0000483c:    f7fffaec    ....    BL       am_util_stdio_printf ; 0x3e18
        0x00004840:    a0d2        ..      ADR      r0,{pc}+0x34c ; 0x4b8c
        0x00004842:    f7fffae9    ....    BL       am_util_stdio_printf ; 0x3e18
        0x00004846:    4830        0H      LDR      r0,[pc,#192] ; [0x4908] = 0x1000000c
        0x00004848:    6b01        .k      LDR      r1,[r0,#0x30]
        0x0000484a:    4831        1H      LDR      r0,[pc,#196] ; [0x4910] = 0x10000004
        0x0000484c:    6800        .h      LDR      r0,[r0,#0]
        0x0000484e:    4788        .G      BLX      r1
        0x00004850:    4604        .F      MOV      r4,r0
        0x00004852:    b114        ..      CBZ      r4,0x485a ; main + 478
        0x00004854:    a0da        ..      ADR      r0,{pc}+0x36c ; 0x4bc0
        0x00004856:    f7fffadf    ....    BL       am_util_stdio_printf ; 0x3e18
        0x0000485a:    482d        -H      LDR      r0,[pc,#180] ; [0x4910] = 0x10000004
        0x0000485c:    6800        .h      LDR      r0,[r0,#0]
        0x0000485e:    f7fcfa59    ..Y.    BL       am_devices_mspi_atxp032_enable_scrambling ; 0xd14
        0x00004862:    4604        .F      MOV      r4,r0
        0x00004864:    b114        ..      CBZ      r4,0x486c ; main + 496
        0x00004866:    a0a4        ..      ADR      r0,{pc}+0x292 ; 0x4af8
        0x00004868:    f7fffad6    ....    BL       am_util_stdio_printf ; 0x3e18
        0x0000486c:    a0de        ..      ADR      r0,{pc}+0x37c ; 0x4be8
        0x0000486e:    f7fffad3    ....    BL       am_util_stdio_printf ; 0x3e18
        0x00004872:    47c0        .G      BLX      r8
        0x00004874:    a0e6        ..      ADR      r0,{pc}+0x39c ; 0x4c10
        0x00004876:    f7fffacf    ....    BL       am_util_stdio_printf ; 0x3e18
        0x0000487a:    a0eb        ..      ADR      r0,{pc}+0x3ae ; 0x4c28
        0x0000487c:    f7fffacc    ....    BL       am_util_stdio_printf ; 0x3e18
        0x00004880:    4821        !H      LDR      r0,[pc,#132] ; [0x4908] = 0x1000000c
        0x00004882:    6b41        Ak      LDR      r1,[r0,#0x34]
        0x00004884:    4822        "H      LDR      r0,[pc,#136] ; [0x4910] = 0x10000004
        0x00004886:    6800        .h      LDR      r0,[r0,#0]
        0x00004888:    4788        .G      BLX      r1
        0x0000488a:    4604        .F      MOV      r4,r0
        0x0000488c:    b114        ..      CBZ      r4,0x4894 ; main + 536
        0x0000488e:    a04c        L.      ADR      r0,{pc}+0x132 ; 0x49c0
        0x00004890:    f7fffac2    ....    BL       am_util_stdio_printf ; 0x3e18
        0x00004894:    f7fbfd86    ....    BL       am_hal_interrupt_master_disable ; 0x3a4
        0x00004898:    492e        .I      LDR      r1,[pc,#184] ; [0x4954] = 0x5ae4
        0x0000489a:    f9910002    ....    LDRSB    r0,[r1,#2]
        0x0000489e:    2800        .(      CMP      r0,#0
        0x000048a0:    db0b        ..      BLT      0x48ba ; main + 574
        0x000048a2:    f000021f    ....    AND      r2,r0,#0x1f
        0x000048a6:    2101        .!      MOVS     r1,#1
        0x000048a8:    4091        .@      LSLS     r1,r1,r2
        0x000048aa:    4aed        .J      LDR      r2,[pc,#948] ; [0x4c60] = 0xe000e180
        0x000048ac:    0943        C.      LSRS     r3,r0,#5
        0x000048ae:    f8421023    B.#.    STR      r1,[r2,r3,LSL #2]
        0x000048b2:    f3bf8f4f    ..O.    DSB      
        0x000048b6:    f3bf8f6f    ..o.    ISB      
        0x000048ba:    bf00        ..      NOP      
        0x000048bc:    4812        .H      LDR      r0,[pc,#72] ; [0x4908] = 0x1000000c
        0x000048be:    6981        .i      LDR      r1,[r0,#0x18]
        0x000048c0:    4813        .H      LDR      r0,[pc,#76] ; [0x4910] = 0x10000004
        0x000048c2:    6800        .h      LDR      r0,[r0,#0]
        0x000048c4:    4788        .G      BLX      r1
        0x000048c6:    4604        .F      MOV      r4,r0
        0x000048c8:    b114        ..      CBZ      r4,0x48d0 ; main + 596
        0x000048ca:    a0e6        ..      ADR      r0,{pc}+0x39a ; 0x4c64
        0x000048cc:    f7fffaa4    ....    BL       am_util_stdio_printf ; 0x3e18
        0x000048d0:    a0f0        ..      ADR      r0,{pc}+0x3c4 ; 0x4c94
        0x000048d2:    f7fffaa1    ....    BL       am_util_stdio_printf ; 0x3e18
        0x000048d6:    e002        ..      B        0x48de ; main + 610
        0x000048d8:    2001        .       MOVS     r0,#1
        0x000048da:    f7feffc1    ....    BL       am_hal_sysctrl_sleep ; 0x3860
        0x000048de:    e7fb        ..      B        0x48d8 ; main + 604
    $d
        0x000048e0:    00000335    5...    DCD    821
        0x000048e4:    1c000001    ....    DCD    469762049
        0x000048e8:    10000000    ....    DCD    268435456
        0x000048ec:    6c6f7041    Apol    DCD    1819242561
        0x000048f0:    20346f6c    lo4     DCD    540307308
        0x000048f4:    64617551    Quad    DCD    1684108625
        0x000048f8:    50534d20     MSP    DCD    1347636512
        0x000048fc:    78452049    I Ex    DCD    2017796169
        0x00004900:    6c706d61    ampl    DCD    1819307361
        0x00004904:    000a0a65    e...    DCD    658021
        0x00004908:    1000000c    ....    DCD    268435468
        0x0000490c:    10000008    ....    DCD    268435464
        0x00004910:    10000004    ....    DCD    268435460
        0x00004914:    00005ad0    .Z..    DCD    23248
        0x00004918:    6c696146    Fail    DCD    1818845510
        0x0000491c:    74206465    ed t    DCD    1948279909
        0x00004920:    6f63206f    o co    DCD    1868767343
        0x00004924:    6769666e    nfig    DCD    1734960750
        0x00004928:    20657275    ure     DCD    543519349
        0x0000492c:    20656874    the     DCD    543516788
        0x00004930:    4950534d    MSPI    DCD    1230000973
        0x00004934:    646e6120     and    DCD    1684955424
        0x00004938:    616c4620     Fla    DCD    1634485792
        0x0000493c:    44206873    sh D    DCD    1142974579
        0x00004940:    63697665    evic    DCD    1667855973
        0x00004944:    6f632065    e co    DCD    1868767333
        0x00004948:    63657272    rrec    DCD    1667592818
        0x0000494c:    21796c74    tly!    DCD    561605748
        0x00004950:    0000000a    ....    DCD    10
        0x00004954:    00005ae4    .Z..    DCD    23268
        0x00004958:    100035a0    .5..    DCD    268449184
        0x0000495c:    73617245    Eras    DCD    1935766085
        0x00004960:    20676e69    ing     DCD    543649385
        0x00004964:    74636553    Sect    DCD    1952671059
        0x00004968:    2520726f    or %    DCD    622883439
        0x0000496c:    00000a64    d...    DCD    2660
        0x00004970:    6c696146    Fail    DCD    1818845510
        0x00004974:    74206465    ed t    DCD    1948279909
        0x00004978:    7265206f    o er    DCD    1919230063
        0x0000497c:    20657361    ase     DCD    543519585
        0x00004980:    73616c46    Flas    DCD    1935764550
        0x00004984:    65442068    h De    DCD    1698963560
        0x00004988:    65636976    vice    DCD    1701013878
        0x0000498c:    63657320     sec    DCD    1667592992
        0x00004990:    21726f74    tor!    DCD    561147764
        0x00004994:    0000000a    ....    DCD    10
        0x00004998:    6c696146    Fail    DCD    1818845510
        0x0000499c:    74206465    ed t    DCD    1948279909
        0x000049a0:    6e65206f    o en    DCD    1852121199
        0x000049a4:    656c6261    able    DCD    1701601889
        0x000049a8:    50495820     XIP    DCD    1346983968
        0x000049ac:    646f6d20     mod    DCD    1685024032
        0x000049b0:    6e692065    e in    DCD    1852383333
        0x000049b4:    65687420     the    DCD    1701344288
        0x000049b8:    50534d20     MSP    DCD    1347636512
        0x000049bc:    000a2149    I!..    DCD    663881
        0x000049c0:    6c696146    Fail    DCD    1818845510
        0x000049c4:    74206465    ed t    DCD    1948279909
        0x000049c8:    6964206f    o di    DCD    1768169583
        0x000049cc:    6c626173    sabl    DCD    1818386803
        0x000049d0:    49582065    e XI    DCD    1230512229
        0x000049d4:    6f6d2050    P mo    DCD    1869422672
        0x000049d8:    69206564    de i    DCD    1763730788
        0x000049dc:    6874206e    n th    DCD    1752440942
        0x000049e0:    534d2065    e MS    DCD    1397563493
        0x000049e4:    0a214950    PI!.    DCD    169953616
        0x000049e8:    00000000    ....    DCD    0
        0x000049ec:    74697257    Writ    DCD    1953067607
        0x000049f0:    20676e69    ing     DCD    543649385
        0x000049f4:    42206425    %d B    DCD    1109419045
        0x000049f8:    73657479    ytes    DCD    1936028793
        0x000049fc:    206f7420     to     DCD    544175136
        0x00004a00:    74636553    Sect    DCD    1952671059
        0x00004a04:    2520726f    or %    DCD    622883439
        0x00004a08:    00000a64    d...    DCD    2660
        0x00004a0c:    6c696146    Fail    DCD    1818845510
        0x00004a10:    74206465    ed t    DCD    1948279909
        0x00004a14:    7277206f    o wr    DCD    1920409711
        0x00004a18:    20657469    ite     DCD    543519849
        0x00004a1c:    66667562    buff    DCD    1717990754
        0x00004a20:    74207265    er t    DCD    1948283493
        0x00004a24:    6c46206f    o Fl    DCD    1816535151
        0x00004a28:    20687361    ash     DCD    543716193
        0x00004a2c:    69766544    Devi    DCD    1769366852
        0x00004a30:    0a216563    ce!.    DCD    169960803
        0x00004a34:    00000000    ....    DCD    0
        0x00004a38:    64616552    Read    DCD    1684104530
        0x00004a3c:    20642520     %d     DCD    543434016
        0x00004a40:    65747942    Byte    DCD    1702132034
        0x00004a44:    72662073    s fr    DCD    1919295603
        0x00004a48:    53206d6f    om S    DCD    1394634095
        0x00004a4c:    6f746365    ecto    DCD    1869898597
        0x00004a50:    64252072    r %d    DCD    1680154738
        0x00004a54:    0000000a    ....    DCD    10
        0x00004a58:    100045a0    .E..    DCD    268453280
        0x00004a5c:    6c696146    Fail    DCD    1818845510
        0x00004a60:    74206465    ed t    DCD    1948279909
        0x00004a64:    6572206f    o re    DCD    1701978223
        0x00004a68:    62206461    ad b    DCD    1646290017
        0x00004a6c:    65666675    uffe    DCD    1701209717
        0x00004a70:    6f742072    r to    DCD    1869881458
        0x00004a74:    616c4620     Fla    DCD    1634485792
        0x00004a78:    44206873    sh D    DCD    1142974579
        0x00004a7c:    63697665    evic    DCD    1667855973
        0x00004a80:    000a2165    e!..    DCD    663909
        0x00004a84:    706d6f43    Comp    DCD    1886220099
        0x00004a88:    6e697261    arin    DCD    1852404321
        0x00004a8c:    68742067    g th    DCD    1752440935
        0x00004a90:    58542065    e TX    DCD    1481908325
        0x00004a94:    646e6120     and    DCD    1684955424
        0x00004a98:    20585220     RX     DCD    542659104
        0x00004a9c:    66667542    Buff    DCD    1717990722
        0x00004aa0:    0a737265    ers.    DCD    175338085
        0x00004aa4:    00000000    ....    DCD    0
        0x00004aa8:    61205854    TX a    DCD    1629509716
        0x00004aac:    5220646e    nd R    DCD    1377854574
        0x00004ab0:    75622058    X bu    DCD    1969365080
        0x00004ab4:    72656666    ffer    DCD    1919247974
        0x00004ab8:    61662073    s fa    DCD    1634082931
        0x00004abc:    64656c69    iled    DCD    1684368489
        0x00004ac0:    206f7420     to     DCD    544175136
        0x00004ac4:    706d6f63    comp    DCD    1886220131
        0x00004ac8:    21657261    are!    DCD    560296545
        0x00004acc:    0000000a    ....    DCD    10
        0x00004ad0:    74747550    Putt    DCD    1953789264
        0x00004ad4:    20676e69    ing     DCD    543649385
        0x00004ad8:    20656874    the     DCD    543516788
        0x00004adc:    4950534d    MSPI    DCD    1230000973
        0x00004ae0:    746e6920     int    DCD    1953392928
        0x00004ae4:    6353206f    o Sc    DCD    1666392175
        0x00004ae8:    626d6172    ramb    DCD    1651335538
        0x00004aec:    676e696c    ling    DCD    1735289196
        0x00004af0:    646f6d20     mod    DCD    1685024032
        0x00004af4:    00000a65    e...    DCD    2661
        0x00004af8:    6c696146    Fail    DCD    1818845510
        0x00004afc:    74206465    ed t    DCD    1948279909
        0x00004b00:    6e65206f    o en    DCD    1852121199
        0x00004b04:    656c6261    able    DCD    1701601889
        0x00004b08:    50534d20     MSP    DCD    1347636512
        0x00004b0c:    63732049    I sc    DCD    1668489289
        0x00004b10:    626d6172    ramb    DCD    1651335538
        0x00004b14:    676e696c    ling    DCD    1735289196
        0x00004b18:    00000a21    !...    DCD    2593
        0x00004b1c:    74697257    Writ    DCD    1953067607
        0x00004b20:    20676e69    ing     DCD    543649385
        0x00004b24:    63657845    Exec    DCD    1667594309
        0x00004b28:    62617475    utab    DCD    1650553973
        0x00004b2c:    6620656c    le f    DCD    1713399148
        0x00004b30:    74636e75    unct    DCD    1952673397
        0x00004b34:    206e6f69    ion     DCD    544108393
        0x00004b38:    2520666f    of %    DCD    622880367
        0x00004b3c:    79422064    d By    DCD    2034376804
        0x00004b40:    20736574    tes     DCD    544433524
        0x00004b44:    53206f74    to S    DCD    1394634612
        0x00004b48:    6f746365    ecto    DCD    1869898597
        0x00004b4c:    64252072    r %d    DCD    1680154738
        0x00004b50:    0000000a    ....    DCD    10
        0x00004b54:    6c696146    Fail    DCD    1818845510
        0x00004b58:    74206465    ed t    DCD    1948279909
        0x00004b5c:    7277206f    o wr    DCD    1920409711
        0x00004b60:    20657469    ite     DCD    543519849
        0x00004b64:    63657865    exec    DCD    1667594341
        0x00004b68:    62617475    utab    DCD    1650553973
        0x00004b6c:    6620656c    le f    DCD    1713399148
        0x00004b70:    74636e75    unct    DCD    1952673397
        0x00004b74:    206e6f69    ion     DCD    544108393
        0x00004b78:    46206f74    to F    DCD    1176530804
        0x00004b7c:    6873616c    lash    DCD    1752392044
        0x00004b80:    76654420     Dev    DCD    1986348064
        0x00004b84:    21656369    ice!    DCD    560292713
        0x00004b88:    0000000a    ....    DCD    10
        0x00004b8c:    74747550    Putt    DCD    1953789264
        0x00004b90:    20676e69    ing     DCD    543649385
        0x00004b94:    20656874    the     DCD    543516788
        0x00004b98:    4950534d    MSPI    DCD    1230000973
        0x00004b9c:    646e6120     and    DCD    1684955424
        0x00004ba0:    74784520     Ext    DCD    1954039072
        0x00004ba4:    616e7265    erna    DCD    1634628197
        0x00004ba8:    6c46206c    l Fl    DCD    1816535148
        0x00004bac:    20687361    ash     DCD    543716193
        0x00004bb0:    6f746e69    into    DCD    1869901417
        0x00004bb4:    50495820     XIP    DCD    1346983968
        0x00004bb8:    646f6d20     mod    DCD    1685024032
        0x00004bbc:    00000a65    e...    DCD    2661
        0x00004bc0:    6c696146    Fail    DCD    1818845510
        0x00004bc4:    74206465    ed t    DCD    1948279909
        0x00004bc8:    7570206f    o pu    DCD    1970282607
        0x00004bcc:    68742074    t th    DCD    1752440948
        0x00004bd0:    534d2065    e MS    DCD    1397563493
        0x00004bd4:    69204950    PI i    DCD    1763723600
        0x00004bd8:    206f746e    nto     DCD    544175214
        0x00004bdc:    20504958    XIP     DCD    542132568
        0x00004be0:    65646f6d    mode    DCD    1701080941
        0x00004be4:    00000a21    !...    DCD    2593
        0x00004be8:    706d754a    Jump    DCD    1886221642
        0x00004bec:    20676e69    ing     DCD    543649385
        0x00004bf0:    66206f74    to f    DCD    1713401716
        0x00004bf4:    74636e75    unct    DCD    1952673397
        0x00004bf8:    206e6f69    ion     DCD    544108393
        0x00004bfc:    45206e69    in E    DCD    1159753321
        0x00004c00:    72657478    xter    DCD    1919251576
        0x00004c04:    206c616e    nal     DCD    543973742
        0x00004c08:    73616c46    Flas    DCD    1935764550
        0x00004c0c:    00000a68    h...    DCD    2664
        0x00004c10:    75746552    Retu    DCD    1970562386
        0x00004c14:    64656e72    rned    DCD    1684369010
        0x00004c18:    6f726620     fro    DCD    1869768224
        0x00004c1c:    4958206d    m XI    DCD    1230512237
        0x00004c20:    61632050    P ca    DCD    1633886288
        0x00004c24:    000a6c6c    ll..    DCD    683116
        0x00004c28:    61736944    Disa    DCD    1634953540
        0x00004c2c:    6e696c62    blin    DCD    1852402786
        0x00004c30:    68742067    g th    DCD    1752440935
        0x00004c34:    534d2065    e MS    DCD    1397563493
        0x00004c38:    61204950    PI a    DCD    1629505872
        0x00004c3c:    4520646e    nd E    DCD    1159750766
        0x00004c40:    72657478    xter    DCD    1919251576
        0x00004c44:    206c616e    nal     DCD    543973742
        0x00004c48:    73616c46    Flas    DCD    1935764550
        0x00004c4c:    72662068    h fr    DCD    1919295592
        0x00004c50:    58206d6f    om X    DCD    1478520175
        0x00004c54:    6d205049    IP m    DCD    1830834249
        0x00004c58:    0a65646f    ode.    DCD    174417007
        0x00004c5c:    00000000    ....    DCD    0
        0x00004c60:    e000e180    ....    DCD    3758154112
        0x00004c64:    6c696146    Fail    DCD    1818845510
        0x00004c68:    74206465    ed t    DCD    1948279909
        0x00004c6c:    6873206f    o sh    DCD    1752375407
        0x00004c70:    6f647475    utdo    DCD    1868854389
        0x00004c74:    74206e77    wn t    DCD    1948282487
        0x00004c78:    4d206568    he M    DCD    1293968744
        0x00004c7c:    20495053    SPI     DCD    541675603
        0x00004c80:    20646e61    and     DCD    543452769
        0x00004c84:    73616c46    Flas    DCD    1935764550
        0x00004c88:    65442068    h De    DCD    1698963560
        0x00004c8c:    65636976    vice    DCD    1701013878
        0x00004c90:    00000a21    !...    DCD    2593
        0x00004c94:    6c6f7041    Apol    DCD    1819242561
        0x00004c98:    20346f6c    lo4     DCD    540307308
        0x00004c9c:    4950534d    MSPI    DCD    1230000973
        0x00004ca0:    61784520     Exa    DCD    1635271968
        0x00004ca4:    656c706d    mple    DCD    1701605485
        0x00004ca8:    6d6f4320     Com    DCD    1836008224
        0x00004cac:    74656c70    plet    DCD    1952803952
        0x00004cb0:    00000a65    e...    DCD    2661
    $t
    i.mspi_device_configure
    mspi_device_configure
        0x00004cb4:    b410        ..      PUSH     {r4}
        0x00004cb6:    2100        .!      MOVS     r1,#0
        0x00004cb8:    6842        Bh      LDR      r2,[r0,#4]
        0x00004cba:    460b        .F      MOV      r3,r1
        0x00004cbc:    eb000c03    ....    ADD      r12,r0,r3
        0x00004cc0:    f89cc00a    ....    LDRB     r12,[r12,#0xa]
        0x00004cc4:    f1bc0f12    ....    CMP      r12,#0x12
        0x00004cc8:    f08081d2    ....    BCS.W    0x5070 ; mspi_device_configure + 956
        0x00004ccc:    e8dff00c    ....    TBB      [pc,r12]
    $d
        0x00004cd0:    ca8b4c09    .L..    DCD    3398126601
        0x00004cd4:    f2f3f4f5    ....    DCD    4076074229
        0x00004cd8:    eeeff0f1    ....    DCD    4008702193
        0x00004cdc:    eaebeced    ....    DCD    3941330157
        0x00004ce0:    e8e9        ..      DCW    59625
    $t
        0x00004ce2:    b113        ..      CBZ      r3,0x4cea ; mspi_device_configure + 54
        0x00004ce4:    2b01        .+      CMP      r3,#1
        0x00004ce6:    d01a        ..      BEQ      0x4d1e ; mspi_device_configure + 106
        0x00004ce8:    e032        2.      B        0x4d50 ; mspi_device_configure + 156
        0x00004cea:    ea4f3c02    O..<    LSL      r12,r2,#12
        0x00004cee:    f10c4c80    ...L    ADD      r12,r12,#0x40000000
        0x00004cf2:    f50c2cc0    ...,    ADD      r12,r12,#0x60000
        0x00004cf6:    f8dc4084    ...@    LDR      r4,[r12,#0x84]
        0x00004cfa:    f024040f    $...    BIC      r4,r4,#0xf
        0x00004cfe:    1c64        d.      ADDS     r4,r4,#1
        0x00004d00:    f8cc4084    ...@    STR      r4,[r12,#0x84]
        0x00004d04:    f8dc4084    ...@    LDR      r4,[r12,#0x84]
        0x00004d08:    f0440480    D...    ORR      r4,r4,#0x80
        0x00004d0c:    f8cc4084    ...@    STR      r4,[r12,#0x84]
        0x00004d10:    f8dc4090    ...@    LDR      r4,[r12,#0x90]
        0x00004d14:    f42464e0    $..d    BIC      r4,r4,#0x700
        0x00004d18:    f8cc4090    ...@    STR      r4,[r12,#0x90]
        0x00004d1c:    e018        ..      B        0x4d50 ; mspi_device_configure + 156
        0x00004d1e:    ea4f3c02    O..<    LSL      r12,r2,#12
        0x00004d22:    f10c4c80    ...L    ADD      r12,r12,#0x40000000
        0x00004d26:    f50c2cc0    ...,    ADD      r12,r12,#0x60000
        0x00004d2a:    f8dc40c4    ...@    LDR      r4,[r12,#0xc4]
        0x00004d2e:    f024040f    $...    BIC      r4,r4,#0xf
        0x00004d32:    1c64        d.      ADDS     r4,r4,#1
        0x00004d34:    f8cc40c4    ...@    STR      r4,[r12,#0xc4]
        0x00004d38:    f8dc40c4    ...@    LDR      r4,[r12,#0xc4]
        0x00004d3c:    f0440480    D...    ORR      r4,r4,#0x80
        0x00004d40:    f8cc40c4    ...@    STR      r4,[r12,#0xc4]
        0x00004d44:    f8dc40d0    ...@    LDR      r4,[r12,#0xd0]
        0x00004d48:    f42464e0    $..d    BIC      r4,r4,#0x700
        0x00004d4c:    f8cc40d0    ...@    STR      r4,[r12,#0xd0]
        0x00004d50:    f890c009    ....    LDRB     r12,[r0,#9]
        0x00004d54:    f1bc0f00    ....    CMP      r12,#0
        0x00004d58:    f0408457    @.W.    BNE.W    0x560a ; mspi_device_configure + 2390
        0x00004d5c:    f000bc59    ..Y.    B.W      0x5612 ; mspi_device_configure + 2398
        0x00004d60:    ea4c0101    L...    ORR      r1,r12,r1
        0x00004d64:    f000b984    ....    B.W      0x5070 ; mspi_device_configure + 956
        0x00004d68:    b113        ..      CBZ      r3,0x4d70 ; mspi_device_configure + 188
        0x00004d6a:    2b01        .+      CMP      r3,#1
        0x00004d6c:    d01a        ..      BEQ      0x4da4 ; mspi_device_configure + 240
        0x00004d6e:    e032        2.      B        0x4dd6 ; mspi_device_configure + 290
        0x00004d70:    ea4f3c02    O..<    LSL      r12,r2,#12
        0x00004d74:    f10c4c80    ...L    ADD      r12,r12,#0x40000000
        0x00004d78:    f50c2cc0    ...,    ADD      r12,r12,#0x60000
        0x00004d7c:    f8dc4084    ...@    LDR      r4,[r12,#0x84]
        0x00004d80:    f024040f    $...    BIC      r4,r4,#0xf
        0x00004d84:    1ca4        ..      ADDS     r4,r4,#2
        0x00004d86:    f8cc4084    ...@    STR      r4,[r12,#0x84]
        0x00004d8a:    f8dc4084    ...@    LDR      r4,[r12,#0x84]
        0x00004d8e:    f0440480    D...    ORR      r4,r4,#0x80
        0x00004d92:    f8cc4084    ...@    STR      r4,[r12,#0x84]
        0x00004d96:    f8dc4090    ...@    LDR      r4,[r12,#0x90]
        0x00004d9a:    f42464e0    $..d    BIC      r4,r4,#0x700
        0x00004d9e:    f8cc4090    ...@    STR      r4,[r12,#0x90]
        0x00004da2:    e018        ..      B        0x4dd6 ; mspi_device_configure + 290
        0x00004da4:    ea4f3c02    O..<    LSL      r12,r2,#12
        0x00004da8:    f10c4c80    ...L    ADD      r12,r12,#0x40000000
        0x00004dac:    f50c2cc0    ...,    ADD      r12,r12,#0x60000
        0x00004db0:    f8dc40c4    ...@    LDR      r4,[r12,#0xc4]
        0x00004db4:    f024040f    $...    BIC      r4,r4,#0xf
        0x00004db8:    1ca4        ..      ADDS     r4,r4,#2
        0x00004dba:    f8cc40c4    ...@    STR      r4,[r12,#0xc4]
        0x00004dbe:    f8dc40c4    ...@    LDR      r4,[r12,#0xc4]
        0x00004dc2:    f0440480    D...    ORR      r4,r4,#0x80
        0x00004dc6:    f8cc40c4    ...@    STR      r4,[r12,#0xc4]
        0x00004dca:    f8dc40d0    ...@    LDR      r4,[r12,#0xd0]
        0x00004dce:    f42464e0    $..d    BIC      r4,r4,#0x700
        0x00004dd2:    f8cc40d0    ...@    STR      r4,[r12,#0xd0]
        0x00004dd6:    f890c009    ....    LDRB     r12,[r0,#9]
        0x00004dda:    f1bc0f00    ....    CMP      r12,#0
        0x00004dde:    f0408414    @...    BNE.W    0x560a ; mspi_device_configure + 2390
        0x00004de2:    f000bc16    ....    B.W      0x5612 ; mspi_device_configure + 2398
        0x00004de6:    b113        ..      CBZ      r3,0x4dee ; mspi_device_configure + 314
        0x00004de8:    2b01        .+      CMP      r3,#1
        0x00004dea:    d01a        ..      BEQ      0x4e22 ; mspi_device_configure + 366
        0x00004dec:    e032        2.      B        0x4e54 ; mspi_device_configure + 416
        0x00004dee:    ea4f3c02    O..<    LSL      r12,r2,#12
        0x00004df2:    f10c4c80    ...L    ADD      r12,r12,#0x40000000
        0x00004df6:    f50c2cc0    ...,    ADD      r12,r12,#0x60000
        0x00004dfa:    f8dc4084    ...@    LDR      r4,[r12,#0x84]
        0x00004dfe:    f024040f    $...    BIC      r4,r4,#0xf
        0x00004e02:    1d64        d.      ADDS     r4,r4,#5
        0x00004e04:    f8cc4084    ...@    STR      r4,[r12,#0x84]
        0x00004e08:    f8dc4084    ...@    LDR      r4,[r12,#0x84]
        0x00004e0c:    f0240480    $...    BIC      r4,r4,#0x80
        0x00004e10:    f8cc4084    ...@    STR      r4,[r12,#0x84]
        0x00004e14:    f8dc4090    ...@    LDR      r4,[r12,#0x90]
        0x00004e18:    f42464e0    $..d    BIC      r4,r4,#0x700
        0x00004e1c:    f8cc4090    ...@    STR      r4,[r12,#0x90]
        0x00004e20:    e018        ..      B        0x4e54 ; mspi_device_configure + 416
        0x00004e22:    ea4f3c02    O..<    LSL      r12,r2,#12
        0x00004e26:    f10c4c80    ...L    ADD      r12,r12,#0x40000000
        0x00004e2a:    f50c2cc0    ...,    ADD      r12,r12,#0x60000
        0x00004e2e:    f8dc40c4    ...@    LDR      r4,[r12,#0xc4]
        0x00004e32:    f024040f    $...    BIC      r4,r4,#0xf
        0x00004e36:    1d64        d.      ADDS     r4,r4,#5
        0x00004e38:    f8cc40c4    ...@    STR      r4,[r12,#0xc4]
        0x00004e3c:    f8dc40c4    ...@    LDR      r4,[r12,#0xc4]
        0x00004e40:    f0240480    $...    BIC      r4,r4,#0x80
        0x00004e44:    f8cc40c4    ...@    STR      r4,[r12,#0xc4]
        0x00004e48:    f8dc40d0    ...@    LDR      r4,[r12,#0xd0]
        0x00004e4c:    f42464e0    $..d    BIC      r4,r4,#0x700
        0x00004e50:    f8cc40d0    ...@    STR      r4,[r12,#0xd0]
        0x00004e54:    f890c009    ....    LDRB     r12,[r0,#9]
        0x00004e58:    f1bc0f00    ....    CMP      r12,#0
        0x00004e5c:    f04083d5    @...    BNE.W    0x560a ; mspi_device_configure + 2390
        0x00004e60:    f000bbd7    ....    B.W      0x5612 ; mspi_device_configure + 2398
        0x00004e64:    b113        ..      CBZ      r3,0x4e6c ; mspi_device_configure + 440
        0x00004e66:    2b01        .+      CMP      r3,#1
        0x00004e68:    d028        (.      BEQ      0x4ebc ; mspi_device_configure + 520
        0x00004e6a:    e040        @.      B        0x4eee ; mspi_device_configure + 570
        0x00004e6c:    ea4f3c02    O..<    LSL      r12,r2,#12
        0x00004e70:    f10c4c80    ...L    ADD      r12,r12,#0x40000000
        0x00004e74:    f50c2cc0    ...,    ADD      r12,r12,#0x60000
        0x00004e78:    f8dc4084    ...@    LDR      r4,[r12,#0x84]
        0x00004e7c:    f024040f    $...    BIC      r4,r4,#0xf
        0x00004e80:    1da4        ..      ADDS     r4,r4,#6
        0x00004e82:    f8cc4084    ...@    STR      r4,[r12,#0x84]
        0x00004e86:    f8dc4084    ...@    LDR      r4,[r12,#0x84]
        0x00004e8a:    f0240480    $...    BIC      r4,r4,#0x80
        0x00004e8e:    f8cc4084    ...@    STR      r4,[r12,#0x84]
        0x00004e92:    f8dc4090    ...@    LDR      r4,[r12,#0x90]
        0x00004e96:    f42464e0    $..d    BIC      r4,r4,#0x700
        0x00004e9a:    f8cc4090    ...@    STR      r4,[r12,#0x90]
        0x00004e9e:    e026        &.      B        0x4eee ; mspi_device_configure + 570
        0x00004ea0:    e377        w.      B        0x5592 ; mspi_device_configure + 2270
        0x00004ea2:    e339        9.      B        0x5518 ; mspi_device_configure + 2148
        0x00004ea4:    e2f6        ..      B        0x5494 ; mspi_device_configure + 2016
        0x00004ea6:    e2b6        ..      B        0x5416 ; mspi_device_configure + 1890
        0x00004ea8:    e272        r.      B        0x5390 ; mspi_device_configure + 1756
        0x00004eaa:    e230        0.      B        0x530e ; mspi_device_configure + 1626
        0x00004eac:    e1ee        ..      B        0x528c ; mspi_device_configure + 1496
        0x00004eae:    e1aa        ..      B        0x5206 ; mspi_device_configure + 1362
        0x00004eb0:    e166        f.      B        0x5180 ; mspi_device_configure + 1228
        0x00004eb2:    e122        ".      B        0x50fa ; mspi_device_configure + 1094
        0x00004eb4:    e0ea        ..      B        0x508c ; mspi_device_configure + 984
        0x00004eb6:    e0a0        ..      B        0x4ffa ; mspi_device_configure + 838
        0x00004eb8:    e060        `.      B        0x4f7c ; mspi_device_configure + 712
        0x00004eba:    e020         .      B        0x4efe ; mspi_device_configure + 586
        0x00004ebc:    ea4f3c02    O..<    LSL      r12,r2,#12
        0x00004ec0:    f10c4c80    ...L    ADD      r12,r12,#0x40000000
        0x00004ec4:    f50c2cc0    ...,    ADD      r12,r12,#0x60000
        0x00004ec8:    f8dc40c4    ...@    LDR      r4,[r12,#0xc4]
        0x00004ecc:    f024040f    $...    BIC      r4,r4,#0xf
        0x00004ed0:    1da4        ..      ADDS     r4,r4,#6
        0x00004ed2:    f8cc40c4    ...@    STR      r4,[r12,#0xc4]
        0x00004ed6:    f8dc40c4    ...@    LDR      r4,[r12,#0xc4]
        0x00004eda:    f0240480    $...    BIC      r4,r4,#0x80
        0x00004ede:    f8cc40c4    ...@    STR      r4,[r12,#0xc4]
        0x00004ee2:    f8dc40d0    ...@    LDR      r4,[r12,#0xd0]
        0x00004ee6:    f42464e0    $..d    BIC      r4,r4,#0x700
        0x00004eea:    f8cc40d0    ...@    STR      r4,[r12,#0xd0]
        0x00004eee:    f890c009    ....    LDRB     r12,[r0,#9]
        0x00004ef2:    f1bc0f00    ....    CMP      r12,#0
        0x00004ef6:    f0408388    @...    BNE.W    0x560a ; mspi_device_configure + 2390
        0x00004efa:    f000bb8a    ....    B.W      0x5612 ; mspi_device_configure + 2398
        0x00004efe:    b113        ..      CBZ      r3,0x4f06 ; mspi_device_configure + 594
        0x00004f00:    2b01        .+      CMP      r3,#1
        0x00004f02:    d01a        ..      BEQ      0x4f3a ; mspi_device_configure + 646
        0x00004f04:    e032        2.      B        0x4f6c ; mspi_device_configure + 696
        0x00004f06:    ea4f3c02    O..<    LSL      r12,r2,#12
        0x00004f0a:    f10c4c80    ...L    ADD      r12,r12,#0x40000000
        0x00004f0e:    f50c2cc0    ...,    ADD      r12,r12,#0x60000
        0x00004f12:    f8dc4084    ...@    LDR      r4,[r12,#0x84]
        0x00004f16:    f024040f    $...    BIC      r4,r4,#0xf
        0x00004f1a:    3409        .4      ADDS     r4,r4,#9
        0x00004f1c:    f8cc4084    ...@    STR      r4,[r12,#0x84]
        0x00004f20:    f8dc4084    ...@    LDR      r4,[r12,#0x84]
        0x00004f24:    f0240480    $...    BIC      r4,r4,#0x80
        0x00004f28:    f8cc4084    ...@    STR      r4,[r12,#0x84]
        0x00004f2c:    f8dc4090    ...@    LDR      r4,[r12,#0x90]
        0x00004f30:    f42464e0    $..d    BIC      r4,r4,#0x700
        0x00004f34:    f8cc4090    ...@    STR      r4,[r12,#0x90]
        0x00004f38:    e018        ..      B        0x4f6c ; mspi_device_configure + 696
        0x00004f3a:    ea4f3c02    O..<    LSL      r12,r2,#12
        0x00004f3e:    f10c4c80    ...L    ADD      r12,r12,#0x40000000
        0x00004f42:    f50c2cc0    ...,    ADD      r12,r12,#0x60000
        0x00004f46:    f8dc40c4    ...@    LDR      r4,[r12,#0xc4]
        0x00004f4a:    f024040f    $...    BIC      r4,r4,#0xf
        0x00004f4e:    3409        .4      ADDS     r4,r4,#9
        0x00004f50:    f8cc40c4    ...@    STR      r4,[r12,#0xc4]
        0x00004f54:    f8dc40c4    ...@    LDR      r4,[r12,#0xc4]
        0x00004f58:    f0240480    $...    BIC      r4,r4,#0x80
        0x00004f5c:    f8cc40c4    ...@    STR      r4,[r12,#0xc4]
        0x00004f60:    f8dc40d0    ...@    LDR      r4,[r12,#0xd0]
        0x00004f64:    f42464e0    $..d    BIC      r4,r4,#0x700
        0x00004f68:    f8cc40d0    ...@    STR      r4,[r12,#0xd0]
        0x00004f6c:    f890c009    ....    LDRB     r12,[r0,#9]
        0x00004f70:    f1bc0f00    ....    CMP      r12,#0
        0x00004f74:    f04082ca    @...    BNE.W    0x550c ; mspi_device_configure + 2136
        0x00004f78:    f000bacb    ....    B.W      0x5512 ; mspi_device_configure + 2142
        0x00004f7c:    b113        ..      CBZ      r3,0x4f84 ; mspi_device_configure + 720
        0x00004f7e:    2b01        .+      CMP      r3,#1
        0x00004f80:    d01a        ..      BEQ      0x4fb8 ; mspi_device_configure + 772
        0x00004f82:    e032        2.      B        0x4fea ; mspi_device_configure + 822
        0x00004f84:    ea4f3c02    O..<    LSL      r12,r2,#12
        0x00004f88:    f10c4c80    ...L    ADD      r12,r12,#0x40000000
        0x00004f8c:    f50c2cc0    ...,    ADD      r12,r12,#0x60000
        0x00004f90:    f8dc4084    ...@    LDR      r4,[r12,#0x84]
        0x00004f94:    f024040f    $...    BIC      r4,r4,#0xf
        0x00004f98:    340a        .4      ADDS     r4,r4,#0xa
        0x00004f9a:    f8cc4084    ...@    STR      r4,[r12,#0x84]
        0x00004f9e:    f8dc4084    ...@    LDR      r4,[r12,#0x84]
        0x00004fa2:    f0240480    $...    BIC      r4,r4,#0x80
        0x00004fa6:    f8cc4084    ...@    STR      r4,[r12,#0x84]
        0x00004faa:    f8dc4090    ...@    LDR      r4,[r12,#0x90]
        0x00004fae:    f42464e0    $..d    BIC      r4,r4,#0x700
        0x00004fb2:    f8cc4090    ...@    STR      r4,[r12,#0x90]
        0x00004fb6:    e018        ..      B        0x4fea ; mspi_device_configure + 822
        0x00004fb8:    ea4f3c02    O..<    LSL      r12,r2,#12
        0x00004fbc:    f10c4c80    ...L    ADD      r12,r12,#0x40000000
        0x00004fc0:    f50c2cc0    ...,    ADD      r12,r12,#0x60000
        0x00004fc4:    f8dc40c4    ...@    LDR      r4,[r12,#0xc4]
        0x00004fc8:    f024040f    $...    BIC      r4,r4,#0xf
        0x00004fcc:    340a        .4      ADDS     r4,r4,#0xa
        0x00004fce:    f8cc40c4    ...@    STR      r4,[r12,#0xc4]
        0x00004fd2:    f8dc40c4    ...@    LDR      r4,[r12,#0xc4]
        0x00004fd6:    f0240480    $...    BIC      r4,r4,#0x80
        0x00004fda:    f8cc40c4    ...@    STR      r4,[r12,#0xc4]
        0x00004fde:    f8dc40d0    ...@    LDR      r4,[r12,#0xd0]
        0x00004fe2:    f42464e0    $..d    BIC      r4,r4,#0x700
        0x00004fe6:    f8cc40d0    ...@    STR      r4,[r12,#0xd0]
        0x00004fea:    f890c009    ....    LDRB     r12,[r0,#9]
        0x00004fee:    f1bc0f00    ....    CMP      r12,#0
        0x00004ff2:    f040828b    @...    BNE.W    0x550c ; mspi_device_configure + 2136
        0x00004ff6:    f000ba8c    ....    B.W      0x5512 ; mspi_device_configure + 2142
        0x00004ffa:    b113        ..      CBZ      r3,0x5002 ; mspi_device_configure + 846
        0x00004ffc:    2b01        .+      CMP      r3,#1
        0x00004ffe:    d01a        ..      BEQ      0x5036 ; mspi_device_configure + 898
        0x00005000:    e032        2.      B        0x5068 ; mspi_device_configure + 948
        0x00005002:    ea4f3c02    O..<    LSL      r12,r2,#12
        0x00005006:    f10c4c80    ...L    ADD      r12,r12,#0x40000000
        0x0000500a:    f50c2cc0    ...,    ADD      r12,r12,#0x60000
        0x0000500e:    f8dc4084    ...@    LDR      r4,[r12,#0x84]
        0x00005012:    f024040f    $...    BIC      r4,r4,#0xf
        0x00005016:    340d        .4      ADDS     r4,r4,#0xd
        0x00005018:    f8cc4084    ...@    STR      r4,[r12,#0x84]
        0x0000501c:    f8dc4084    ...@    LDR      r4,[r12,#0x84]
        0x00005020:    f0240480    $...    BIC      r4,r4,#0x80
        0x00005024:    f8cc4084    ...@    STR      r4,[r12,#0x84]
        0x00005028:    f8dc4090    ...@    LDR      r4,[r12,#0x90]
        0x0000502c:    f42464e0    $..d    BIC      r4,r4,#0x700
        0x00005030:    f8cc4090    ...@    STR      r4,[r12,#0x90]
        0x00005034:    e018        ..      B        0x5068 ; mspi_device_configure + 948
        0x00005036:    ea4f3c02    O..<    LSL      r12,r2,#12
        0x0000503a:    f10c4c80    ...L    ADD      r12,r12,#0x40000000
        0x0000503e:    f50c2cc0    ...,    ADD      r12,r12,#0x60000
        0x00005042:    f8dc40c4    ...@    LDR      r4,[r12,#0xc4]
        0x00005046:    f024040f    $...    BIC      r4,r4,#0xf
        0x0000504a:    340d        .4      ADDS     r4,r4,#0xd
        0x0000504c:    f8cc40c4    ...@    STR      r4,[r12,#0xc4]
        0x00005050:    f8dc40c4    ...@    LDR      r4,[r12,#0xc4]
        0x00005054:    f0240480    $...    BIC      r4,r4,#0x80
        0x00005058:    f8cc40c4    ...@    STR      r4,[r12,#0xc4]
        0x0000505c:    f8dc40d0    ...@    LDR      r4,[r12,#0xd0]
        0x00005060:    f42464e0    $..d    BIC      r4,r4,#0x700
        0x00005064:    f8cc40d0    ...@    STR      r4,[r12,#0xd0]
        0x00005068:    f2403cff    @..<    MOV      r12,#0x3ff
        0x0000506c:    ea41010c    A...    ORR      r1,r1,r12
        0x00005070:    1c5b        [.      ADDS     r3,r3,#1
        0x00005072:    b2db        ..      UXTB     r3,r3
        0x00005074:    2b01        .+      CMP      r3,#1
        0x00005076:    f67fae21    ..!.    BLS      0x4cbc ; mspi_device_configure + 8
        0x0000507a:    0310        ..      LSLS     r0,r2,#12
        0x0000507c:    f1004080    ...@    ADD      r0,r0,#0x40000000
        0x00005080:    f50020c0    ...     ADD      r0,r0,#0x60000
        0x00005084:    6441        Ad      STR      r1,[r0,#0x44]
        0x00005086:    bc10        ..      POP      {r4}
        0x00005088:    2000        .       MOVS     r0,#0
        0x0000508a:    4770        pG      BX       lr
        0x0000508c:    b1db        ..      CBZ      r3,0x50c6 ; mspi_device_configure + 1042
        0x0000508e:    2b01        .+      CMP      r3,#1
        0x00005090:    d1ea        ..      BNE      0x5068 ; mspi_device_configure + 948
        0x00005092:    ea4f3c02    O..<    LSL      r12,r2,#12
        0x00005096:    f10c4c80    ...L    ADD      r12,r12,#0x40000000
        0x0000509a:    f50c2cc0    ...,    ADD      r12,r12,#0x60000
        0x0000509e:    f8dc40c4    ...@    LDR      r4,[r12,#0xc4]
        0x000050a2:    f024040f    $...    BIC      r4,r4,#0xf
        0x000050a6:    340e        .4      ADDS     r4,r4,#0xe
        0x000050a8:    f8cc40c4    ...@    STR      r4,[r12,#0xc4]
        0x000050ac:    f8dc40c4    ...@    LDR      r4,[r12,#0xc4]
        0x000050b0:    f0240480    $...    BIC      r4,r4,#0x80
        0x000050b4:    f8cc40c4    ...@    STR      r4,[r12,#0xc4]
        0x000050b8:    f8dc40d0    ...@    LDR      r4,[r12,#0xd0]
        0x000050bc:    f42464e0    $..d    BIC      r4,r4,#0x700
        0x000050c0:    f8cc40d0    ...@    STR      r4,[r12,#0xd0]
        0x000050c4:    e7d0        ..      B        0x5068 ; mspi_device_configure + 948
        0x000050c6:    ea4f3c02    O..<    LSL      r12,r2,#12
        0x000050ca:    f10c4c80    ...L    ADD      r12,r12,#0x40000000
        0x000050ce:    f50c2cc0    ...,    ADD      r12,r12,#0x60000
        0x000050d2:    f8dc4084    ...@    LDR      r4,[r12,#0x84]
        0x000050d6:    f024040f    $...    BIC      r4,r4,#0xf
        0x000050da:    340e        .4      ADDS     r4,r4,#0xe
        0x000050dc:    f8cc4084    ...@    STR      r4,[r12,#0x84]
        0x000050e0:    f8dc4084    ...@    LDR      r4,[r12,#0x84]
        0x000050e4:    f0240480    $...    BIC      r4,r4,#0x80
        0x000050e8:    f8cc4084    ...@    STR      r4,[r12,#0x84]
        0x000050ec:    f8dc4090    ...@    LDR      r4,[r12,#0x90]
        0x000050f0:    f42464e0    $..d    BIC      r4,r4,#0x700
        0x000050f4:    f8cc4090    ...@    STR      r4,[r12,#0x90]
        0x000050f8:    e7b6        ..      B        0x5068 ; mspi_device_configure + 948
        0x000050fa:    b113        ..      CBZ      r3,0x5102 ; mspi_device_configure + 1102
        0x000050fc:    2b01        .+      CMP      r3,#1
        0x000050fe:    d01c        ..      BEQ      0x513a ; mspi_device_configure + 1158
        0x00005100:    e036        6.      B        0x5170 ; mspi_device_configure + 1212
        0x00005102:    ea4f3c02    O..<    LSL      r12,r2,#12
        0x00005106:    f10c4c80    ...L    ADD      r12,r12,#0x40000000
        0x0000510a:    f50c2cc0    ...,    ADD      r12,r12,#0x60000
        0x0000510e:    f8dc4084    ...@    LDR      r4,[r12,#0x84]
        0x00005112:    f024040f    $...    BIC      r4,r4,#0xf
        0x00005116:    1c64        d.      ADDS     r4,r4,#1
        0x00005118:    f8cc4084    ...@    STR      r4,[r12,#0x84]
        0x0000511c:    f8dc4084    ...@    LDR      r4,[r12,#0x84]
        0x00005120:    f0240480    $...    BIC      r4,r4,#0x80
        0x00005124:    f8cc4084    ...@    STR      r4,[r12,#0x84]
        0x00005128:    f8dc4090    ...@    LDR      r4,[r12,#0x90]
        0x0000512c:    f42464e0    $..d    BIC      r4,r4,#0x700
        0x00005130:    f5047480    ...t    ADD      r4,r4,#0x100
        0x00005134:    f8cc4090    ...@    STR      r4,[r12,#0x90]
        0x00005138:    e01a        ..      B        0x5170 ; mspi_device_configure + 1212
        0x0000513a:    ea4f3c02    O..<    LSL      r12,r2,#12
        0x0000513e:    f10c4c80    ...L    ADD      r12,r12,#0x40000000
        0x00005142:    f50c2cc0    ...,    ADD      r12,r12,#0x60000
        0x00005146:    f8dc40c4    ...@    LDR      r4,[r12,#0xc4]
        0x0000514a:    f024040f    $...    BIC      r4,r4,#0xf
        0x0000514e:    1c64        d.      ADDS     r4,r4,#1
        0x00005150:    f8cc40c4    ...@    STR      r4,[r12,#0xc4]
        0x00005154:    f8dc40c4    ...@    LDR      r4,[r12,#0xc4]
        0x00005158:    f0240480    $...    BIC      r4,r4,#0x80
        0x0000515c:    f8cc40c4    ...@    STR      r4,[r12,#0xc4]
        0x00005160:    f8dc40d0    ...@    LDR      r4,[r12,#0xd0]
        0x00005164:    f42464e0    $..d    BIC      r4,r4,#0x700
        0x00005168:    f5047480    ...t    ADD      r4,r4,#0x100
        0x0000516c:    f8cc40d0    ...@    STR      r4,[r12,#0xd0]
        0x00005170:    f890c009    ....    LDRB     r12,[r0,#9]
        0x00005174:    f1bc0f00    ....    CMP      r12,#0
        0x00005178:    f0408247    @.G.    BNE.W    0x560a ; mspi_device_configure + 2390
        0x0000517c:    f000ba49    ..I.    B.W      0x5612 ; mspi_device_configure + 2398
        0x00005180:    b113        ..      CBZ      r3,0x5188 ; mspi_device_configure + 1236
        0x00005182:    2b01        .+      CMP      r3,#1
        0x00005184:    d01c        ..      BEQ      0x51c0 ; mspi_device_configure + 1292
        0x00005186:    e036        6.      B        0x51f6 ; mspi_device_configure + 1346
        0x00005188:    ea4f3c02    O..<    LSL      r12,r2,#12
        0x0000518c:    f10c4c80    ...L    ADD      r12,r12,#0x40000000
        0x00005190:    f50c2cc0    ...,    ADD      r12,r12,#0x60000
        0x00005194:    f8dc4084    ...@    LDR      r4,[r12,#0x84]
        0x00005198:    f024040f    $...    BIC      r4,r4,#0xf
        0x0000519c:    1ca4        ..      ADDS     r4,r4,#2
        0x0000519e:    f8cc4084    ...@    STR      r4,[r12,#0x84]
        0x000051a2:    f8dc4084    ...@    LDR      r4,[r12,#0x84]
        0x000051a6:    f0240480    $...    BIC      r4,r4,#0x80
        0x000051aa:    f8cc4084    ...@    STR      r4,[r12,#0x84]
        0x000051ae:    f8dc4090    ...@    LDR      r4,[r12,#0x90]
        0x000051b2:    f42464e0    $..d    BIC      r4,r4,#0x700
        0x000051b6:    f5047480    ...t    ADD      r4,r4,#0x100
        0x000051ba:    f8cc4090    ...@    STR      r4,[r12,#0x90]
        0x000051be:    e01a        ..      B        0x51f6 ; mspi_device_configure + 1346
        0x000051c0:    ea4f3c02    O..<    LSL      r12,r2,#12
        0x000051c4:    f10c4c80    ...L    ADD      r12,r12,#0x40000000
        0x000051c8:    f50c2cc0    ...,    ADD      r12,r12,#0x60000
        0x000051cc:    f8dc40c4    ...@    LDR      r4,[r12,#0xc4]
        0x000051d0:    f024040f    $...    BIC      r4,r4,#0xf
        0x000051d4:    1ca4        ..      ADDS     r4,r4,#2
        0x000051d6:    f8cc40c4    ...@    STR      r4,[r12,#0xc4]
        0x000051da:    f8dc40c4    ...@    LDR      r4,[r12,#0xc4]
        0x000051de:    f0240480    $...    BIC      r4,r4,#0x80
        0x000051e2:    f8cc40c4    ...@    STR      r4,[r12,#0xc4]
        0x000051e6:    f8dc40d0    ...@    LDR      r4,[r12,#0xd0]
        0x000051ea:    f42464e0    $..d    BIC      r4,r4,#0x700
        0x000051ee:    f5047480    ...t    ADD      r4,r4,#0x100
        0x000051f2:    f8cc40d0    ...@    STR      r4,[r12,#0xd0]
        0x000051f6:    f890c009    ....    LDRB     r12,[r0,#9]
        0x000051fa:    f1bc0f00    ....    CMP      r12,#0
        0x000051fe:    f0408204    @...    BNE.W    0x560a ; mspi_device_configure + 2390
        0x00005202:    f000ba06    ....    B.W      0x5612 ; mspi_device_configure + 2398
        0x00005206:    b113        ..      CBZ      r3,0x520e ; mspi_device_configure + 1370
        0x00005208:    2b01        .+      CMP      r3,#1
        0x0000520a:    d01c        ..      BEQ      0x5246 ; mspi_device_configure + 1426
        0x0000520c:    e036        6.      B        0x527c ; mspi_device_configure + 1480
        0x0000520e:    ea4f3c02    O..<    LSL      r12,r2,#12
        0x00005212:    f10c4c80    ...L    ADD      r12,r12,#0x40000000
        0x00005216:    f50c2cc0    ...,    ADD      r12,r12,#0x60000
        0x0000521a:    f8dc4084    ...@    LDR      r4,[r12,#0x84]
        0x0000521e:    f024040f    $...    BIC      r4,r4,#0xf
        0x00005222:    1c64        d.      ADDS     r4,r4,#1
        0x00005224:    f8cc4084    ...@    STR      r4,[r12,#0x84]
        0x00005228:    f8dc4084    ...@    LDR      r4,[r12,#0x84]
        0x0000522c:    f0240480    $...    BIC      r4,r4,#0x80
        0x00005230:    f8cc4084    ...@    STR      r4,[r12,#0x84]
        0x00005234:    f8dc4090    ...@    LDR      r4,[r12,#0x90]
        0x00005238:    f42464e0    $..d    BIC      r4,r4,#0x700
        0x0000523c:    f5047440    ..@t    ADD      r4,r4,#0x300
        0x00005240:    f8cc4090    ...@    STR      r4,[r12,#0x90]
        0x00005244:    e01a        ..      B        0x527c ; mspi_device_configure + 1480
        0x00005246:    ea4f3c02    O..<    LSL      r12,r2,#12
        0x0000524a:    f10c4c80    ...L    ADD      r12,r12,#0x40000000
        0x0000524e:    f50c2cc0    ...,    ADD      r12,r12,#0x60000
        0x00005252:    f8dc40c4    ...@    LDR      r4,[r12,#0xc4]
        0x00005256:    f024040f    $...    BIC      r4,r4,#0xf
        0x0000525a:    1c64        d.      ADDS     r4,r4,#1
        0x0000525c:    f8cc40c4    ...@    STR      r4,[r12,#0xc4]
        0x00005260:    f8dc40c4    ...@    LDR      r4,[r12,#0xc4]
        0x00005264:    f0240480    $...    BIC      r4,r4,#0x80
        0x00005268:    f8cc40c4    ...@    STR      r4,[r12,#0xc4]
        0x0000526c:    f8dc40d0    ...@    LDR      r4,[r12,#0xd0]
        0x00005270:    f42464e0    $..d    BIC      r4,r4,#0x700
        0x00005274:    f5047440    ..@t    ADD      r4,r4,#0x300
        0x00005278:    f8cc40d0    ...@    STR      r4,[r12,#0xd0]
        0x0000527c:    f890c009    ....    LDRB     r12,[r0,#9]
        0x00005280:    f1bc0f00    ....    CMP      r12,#0
        0x00005284:    f04081c1    @...    BNE.W    0x560a ; mspi_device_configure + 2390
        0x00005288:    f000b9c3    ....    B.W      0x5612 ; mspi_device_configure + 2398
        0x0000528c:    b113        ..      CBZ      r3,0x5294 ; mspi_device_configure + 1504
        0x0000528e:    2b01        .+      CMP      r3,#1
        0x00005290:    d01c        ..      BEQ      0x52cc ; mspi_device_configure + 1560
        0x00005292:    e036        6.      B        0x5302 ; mspi_device_configure + 1614
        0x00005294:    ea4f3c02    O..<    LSL      r12,r2,#12
        0x00005298:    f10c4c80    ...L    ADD      r12,r12,#0x40000000
        0x0000529c:    f50c2cc0    ...,    ADD      r12,r12,#0x60000
        0x000052a0:    f8dc4084    ...@    LDR      r4,[r12,#0x84]
        0x000052a4:    f024040f    $...    BIC      r4,r4,#0xf
        0x000052a8:    1ca4        ..      ADDS     r4,r4,#2
        0x000052aa:    f8cc4084    ...@    STR      r4,[r12,#0x84]
        0x000052ae:    f8dc4084    ...@    LDR      r4,[r12,#0x84]
        0x000052b2:    f0240480    $...    BIC      r4,r4,#0x80
        0x000052b6:    f8cc4084    ...@    STR      r4,[r12,#0x84]
        0x000052ba:    f8dc4090    ...@    LDR      r4,[r12,#0x90]
        0x000052be:    f42464e0    $..d    BIC      r4,r4,#0x700
        0x000052c2:    f5047440    ..@t    ADD      r4,r4,#0x300
        0x000052c6:    f8cc4090    ...@    STR      r4,[r12,#0x90]
        0x000052ca:    e01a        ..      B        0x5302 ; mspi_device_configure + 1614
        0x000052cc:    ea4f3c02    O..<    LSL      r12,r2,#12
        0x000052d0:    f10c4c80    ...L    ADD      r12,r12,#0x40000000
        0x000052d4:    f50c2cc0    ...,    ADD      r12,r12,#0x60000
        0x000052d8:    f8dc40c4    ...@    LDR      r4,[r12,#0xc4]
        0x000052dc:    f024040f    $...    BIC      r4,r4,#0xf
        0x000052e0:    1ca4        ..      ADDS     r4,r4,#2
        0x000052e2:    f8cc40c4    ...@    STR      r4,[r12,#0xc4]
        0x000052e6:    f8dc40c4    ...@    LDR      r4,[r12,#0xc4]
        0x000052ea:    f0240480    $...    BIC      r4,r4,#0x80
        0x000052ee:    f8cc40c4    ...@    STR      r4,[r12,#0xc4]
        0x000052f2:    f8dc40d0    ...@    LDR      r4,[r12,#0xd0]
        0x000052f6:    f42464e0    $..d    BIC      r4,r4,#0x700
        0x000052fa:    f5047440    ..@t    ADD      r4,r4,#0x300
        0x000052fe:    f8cc40d0    ...@    STR      r4,[r12,#0xd0]
        0x00005302:    f890c009    ....    LDRB     r12,[r0,#9]
        0x00005306:    f1bc0f00    ....    CMP      r12,#0
        0x0000530a:    d17d        }.      BNE      0x5408 ; mspi_device_configure + 1876
        0x0000530c:    e181        ..      B        0x5612 ; mspi_device_configure + 2398
        0x0000530e:    b113        ..      CBZ      r3,0x5316 ; mspi_device_configure + 1634
        0x00005310:    2b01        .+      CMP      r3,#1
        0x00005312:    d01c        ..      BEQ      0x534e ; mspi_device_configure + 1690
        0x00005314:    e036        6.      B        0x5384 ; mspi_device_configure + 1744
        0x00005316:    ea4f3c02    O..<    LSL      r12,r2,#12
        0x0000531a:    f10c4c80    ...L    ADD      r12,r12,#0x40000000
        0x0000531e:    f50c2cc0    ...,    ADD      r12,r12,#0x60000
        0x00005322:    f8dc4084    ...@    LDR      r4,[r12,#0x84]
        0x00005326:    f024040f    $...    BIC      r4,r4,#0xf
        0x0000532a:    1c64        d.      ADDS     r4,r4,#1
        0x0000532c:    f8cc4084    ...@    STR      r4,[r12,#0x84]
        0x00005330:    f8dc4084    ...@    LDR      r4,[r12,#0x84]
        0x00005334:    f0240480    $...    BIC      r4,r4,#0x80
        0x00005338:    f8cc4084    ...@    STR      r4,[r12,#0x84]
        0x0000533c:    f8dc4090    ...@    LDR      r4,[r12,#0x90]
        0x00005340:    f42464e0    $..d    BIC      r4,r4,#0x700
        0x00005344:    f50464a0    ...d    ADD      r4,r4,#0x500
        0x00005348:    f8cc4090    ...@    STR      r4,[r12,#0x90]
        0x0000534c:    e01a        ..      B        0x5384 ; mspi_device_configure + 1744
        0x0000534e:    ea4f3c02    O..<    LSL      r12,r2,#12
        0x00005352:    f10c4c80    ...L    ADD      r12,r12,#0x40000000
        0x00005356:    f50c2cc0    ...,    ADD      r12,r12,#0x60000
        0x0000535a:    f8dc40c4    ...@    LDR      r4,[r12,#0xc4]
        0x0000535e:    f024040f    $...    BIC      r4,r4,#0xf
        0x00005362:    1c64        d.      ADDS     r4,r4,#1
        0x00005364:    f8cc40c4    ...@    STR      r4,[r12,#0xc4]
        0x00005368:    f8dc40c4    ...@    LDR      r4,[r12,#0xc4]
        0x0000536c:    f0240480    $...    BIC      r4,r4,#0x80
        0x00005370:    f8cc40c4    ...@    STR      r4,[r12,#0xc4]
        0x00005374:    f8dc40d0    ...@    LDR      r4,[r12,#0xd0]
        0x00005378:    f42464e0    $..d    BIC      r4,r4,#0x700
        0x0000537c:    f50464a0    ...d    ADD      r4,r4,#0x500
        0x00005380:    f8cc40d0    ...@    STR      r4,[r12,#0xd0]
        0x00005384:    f890c009    ....    LDRB     r12,[r0,#9]
        0x00005388:    f1bc0f00    ....    CMP      r12,#0
        0x0000538c:    d17d        }.      BNE      0x548a ; mspi_device_configure + 2006
        0x0000538e:    e0c0        ..      B        0x5512 ; mspi_device_configure + 2142
        0x00005390:    b113        ..      CBZ      r3,0x5398 ; mspi_device_configure + 1764
        0x00005392:    2b01        .+      CMP      r3,#1
        0x00005394:    d01c        ..      BEQ      0x53d0 ; mspi_device_configure + 1820
        0x00005396:    e036        6.      B        0x5406 ; mspi_device_configure + 1874
        0x00005398:    ea4f3c02    O..<    LSL      r12,r2,#12
        0x0000539c:    f10c4c80    ...L    ADD      r12,r12,#0x40000000
        0x000053a0:    f50c2cc0    ...,    ADD      r12,r12,#0x60000
        0x000053a4:    f8dc4084    ...@    LDR      r4,[r12,#0x84]
        0x000053a8:    f024040f    $...    BIC      r4,r4,#0xf
        0x000053ac:    1ca4        ..      ADDS     r4,r4,#2
        0x000053ae:    f8cc4084    ...@    STR      r4,[r12,#0x84]
        0x000053b2:    f8dc4084    ...@    LDR      r4,[r12,#0x84]
        0x000053b6:    f0240480    $...    BIC      r4,r4,#0x80
        0x000053ba:    f8cc4084    ...@    STR      r4,[r12,#0x84]
        0x000053be:    f8dc4090    ...@    LDR      r4,[r12,#0x90]
        0x000053c2:    f42464e0    $..d    BIC      r4,r4,#0x700
        0x000053c6:    f50464a0    ...d    ADD      r4,r4,#0x500
        0x000053ca:    f8cc4090    ...@    STR      r4,[r12,#0x90]
        0x000053ce:    e01a        ..      B        0x5406 ; mspi_device_configure + 1874
        0x000053d0:    ea4f3c02    O..<    LSL      r12,r2,#12
        0x000053d4:    f10c4c80    ...L    ADD      r12,r12,#0x40000000
        0x000053d8:    f50c2cc0    ...,    ADD      r12,r12,#0x60000
        0x000053dc:    f8dc40c4    ...@    LDR      r4,[r12,#0xc4]
        0x000053e0:    f024040f    $...    BIC      r4,r4,#0xf
        0x000053e4:    1ca4        ..      ADDS     r4,r4,#2
        0x000053e6:    f8cc40c4    ...@    STR      r4,[r12,#0xc4]
        0x000053ea:    f8dc40c4    ...@    LDR      r4,[r12,#0xc4]
        0x000053ee:    f0240480    $...    BIC      r4,r4,#0x80
        0x000053f2:    f8cc40c4    ...@    STR      r4,[r12,#0xc4]
        0x000053f6:    f8dc40d0    ...@    LDR      r4,[r12,#0xd0]
        0x000053fa:    f42464e0    $..d    BIC      r4,r4,#0x700
        0x000053fe:    f50464a0    ...d    ADD      r4,r4,#0x500
        0x00005402:    f8cc40d0    ...@    STR      r4,[r12,#0xd0]
        0x00005406:    e000        ..      B        0x540a ; mspi_device_configure + 1878
        0x00005408:    e0ff        ..      B        0x560a ; mspi_device_configure + 2390
        0x0000540a:    f890c009    ....    LDRB     r12,[r0,#9]
        0x0000540e:    f1bc0f00    ....    CMP      r12,#0
        0x00005412:    d17b        {.      BNE      0x550c ; mspi_device_configure + 2136
        0x00005414:    e07d        }.      B        0x5512 ; mspi_device_configure + 2142
        0x00005416:    b113        ..      CBZ      r3,0x541e ; mspi_device_configure + 1898
        0x00005418:    2b01        .+      CMP      r3,#1
        0x0000541a:    d01a        ..      BEQ      0x5452 ; mspi_device_configure + 1950
        0x0000541c:    e032        2.      B        0x5484 ; mspi_device_configure + 2000
        0x0000541e:    ea4f3c02    O..<    LSL      r12,r2,#12
        0x00005422:    f10c4c80    ...L    ADD      r12,r12,#0x40000000
        0x00005426:    f50c2cc0    ...,    ADD      r12,r12,#0x60000
        0x0000542a:    f8dc4084    ...@    LDR      r4,[r12,#0x84]
        0x0000542e:    f024040f    $...    BIC      r4,r4,#0xf
        0x00005432:    1c64        d.      ADDS     r4,r4,#1
        0x00005434:    f8cc4084    ...@    STR      r4,[r12,#0x84]
        0x00005438:    f8dc4084    ...@    LDR      r4,[r12,#0x84]
        0x0000543c:    f0240480    $...    BIC      r4,r4,#0x80
        0x00005440:    f8cc4084    ...@    STR      r4,[r12,#0x84]
        0x00005444:    f8dc4090    ...@    LDR      r4,[r12,#0x90]
        0x00005448:    f44464e0    D..d    ORR      r4,r4,#0x700
        0x0000544c:    f8cc4090    ...@    STR      r4,[r12,#0x90]
        0x00005450:    e018        ..      B        0x5484 ; mspi_device_configure + 2000
        0x00005452:    ea4f3c02    O..<    LSL      r12,r2,#12
        0x00005456:    f10c4c80    ...L    ADD      r12,r12,#0x40000000
        0x0000545a:    f50c2cc0    ...,    ADD      r12,r12,#0x60000
        0x0000545e:    f8dc40c4    ...@    LDR      r4,[r12,#0xc4]
        0x00005462:    f024040f    $...    BIC      r4,r4,#0xf
        0x00005466:    1c64        d.      ADDS     r4,r4,#1
        0x00005468:    f8cc40c4    ...@    STR      r4,[r12,#0xc4]
        0x0000546c:    f8dc40c4    ...@    LDR      r4,[r12,#0xc4]
        0x00005470:    f0240480    $...    BIC      r4,r4,#0x80
        0x00005474:    f8cc40c4    ...@    STR      r4,[r12,#0xc4]
        0x00005478:    f8dc40d0    ...@    LDR      r4,[r12,#0xd0]
        0x0000547c:    f44464e0    D..d    ORR      r4,r4,#0x700
        0x00005480:    f8cc40d0    ...@    STR      r4,[r12,#0xd0]
        0x00005484:    f890c009    ....    LDRB     r12,[r0,#9]
        0x00005488:    e000        ..      B        0x548c ; mspi_device_configure + 2008
        0x0000548a:    e03f        ?.      B        0x550c ; mspi_device_configure + 2136
        0x0000548c:    f1bc0f00    ....    CMP      r12,#0
        0x00005490:    d13c        <.      BNE      0x550c ; mspi_device_configure + 2136
        0x00005492:    e03e        >.      B        0x5512 ; mspi_device_configure + 2142
        0x00005494:    b113        ..      CBZ      r3,0x549c ; mspi_device_configure + 2024
        0x00005496:    2b01        .+      CMP      r3,#1
        0x00005498:    d01a        ..      BEQ      0x54d0 ; mspi_device_configure + 2076
        0x0000549a:    e032        2.      B        0x5502 ; mspi_device_configure + 2126
        0x0000549c:    ea4f3c02    O..<    LSL      r12,r2,#12
        0x000054a0:    f10c4c80    ...L    ADD      r12,r12,#0x40000000
        0x000054a4:    f50c2cc0    ...,    ADD      r12,r12,#0x60000
        0x000054a8:    f8dc4084    ...@    LDR      r4,[r12,#0x84]
        0x000054ac:    f024040f    $...    BIC      r4,r4,#0xf
        0x000054b0:    1ca4        ..      ADDS     r4,r4,#2
        0x000054b2:    f8cc4084    ...@    STR      r4,[r12,#0x84]
        0x000054b6:    f8dc4084    ...@    LDR      r4,[r12,#0x84]
        0x000054ba:    f0240480    $...    BIC      r4,r4,#0x80
        0x000054be:    f8cc4084    ...@    STR      r4,[r12,#0x84]
        0x000054c2:    f8dc4090    ...@    LDR      r4,[r12,#0x90]
        0x000054c6:    f44464e0    D..d    ORR      r4,r4,#0x700
        0x000054ca:    f8cc4090    ...@    STR      r4,[r12,#0x90]
        0x000054ce:    e018        ..      B        0x5502 ; mspi_device_configure + 2126
        0x000054d0:    ea4f3c02    O..<    LSL      r12,r2,#12
        0x000054d4:    f10c4c80    ...L    ADD      r12,r12,#0x40000000
        0x000054d8:    f50c2cc0    ...,    ADD      r12,r12,#0x60000
        0x000054dc:    f8dc40c4    ...@    LDR      r4,[r12,#0xc4]
        0x000054e0:    f024040f    $...    BIC      r4,r4,#0xf
        0x000054e4:    1ca4        ..      ADDS     r4,r4,#2
        0x000054e6:    f8cc40c4    ...@    STR      r4,[r12,#0xc4]
        0x000054ea:    f8dc40c4    ...@    LDR      r4,[r12,#0xc4]
        0x000054ee:    f0240480    $...    BIC      r4,r4,#0x80
        0x000054f2:    f8cc40c4    ...@    STR      r4,[r12,#0xc4]
        0x000054f6:    f8dc40d0    ...@    LDR      r4,[r12,#0xd0]
        0x000054fa:    f44464e0    D..d    ORR      r4,r4,#0x700
        0x000054fe:    f8cc40d0    ...@    STR      r4,[r12,#0xd0]
        0x00005502:    f890c009    ....    LDRB     r12,[r0,#9]
        0x00005506:    f1bc0f00    ....    CMP      r12,#0
        0x0000550a:    d002        ..      BEQ      0x5512 ; mspi_device_configure + 2142
        0x0000550c:    f2410c1f    A...    MOV      r12,#0x101f
        0x00005510:    e426        &.      B        0x4d60 ; mspi_device_configure + 172
        0x00005512:    f2401c0f    @...    MOV      r12,#0x10f
        0x00005516:    e423        #.      B        0x4d60 ; mspi_device_configure + 172
        0x00005518:    b113        ..      CBZ      r3,0x5520 ; mspi_device_configure + 2156
        0x0000551a:    2b01        .+      CMP      r3,#1
        0x0000551c:    d01a        ..      BEQ      0x5554 ; mspi_device_configure + 2208
        0x0000551e:    e032        2.      B        0x5586 ; mspi_device_configure + 2258
        0x00005520:    ea4f3c02    O..<    LSL      r12,r2,#12
        0x00005524:    f10c4c80    ...L    ADD      r12,r12,#0x40000000
        0x00005528:    f50c2cc0    ...,    ADD      r12,r12,#0x60000
        0x0000552c:    f8dc4084    ...@    LDR      r4,[r12,#0x84]
        0x00005530:    f024040f    $...    BIC      r4,r4,#0xf
        0x00005534:    1c64        d.      ADDS     r4,r4,#1
        0x00005536:    f8cc4084    ...@    STR      r4,[r12,#0x84]
        0x0000553a:    f8dc4084    ...@    LDR      r4,[r12,#0x84]
        0x0000553e:    f0240480    $...    BIC      r4,r4,#0x80
        0x00005542:    f8cc4084    ...@    STR      r4,[r12,#0x84]
        0x00005546:    f8dc4090    ...@    LDR      r4,[r12,#0x90]
        0x0000554a:    f42464e0    $..d    BIC      r4,r4,#0x700
        0x0000554e:    f8cc4090    ...@    STR      r4,[r12,#0x90]
        0x00005552:    e018        ..      B        0x5586 ; mspi_device_configure + 2258
        0x00005554:    ea4f3c02    O..<    LSL      r12,r2,#12
        0x00005558:    f10c4c80    ...L    ADD      r12,r12,#0x40000000
        0x0000555c:    f50c2cc0    ...,    ADD      r12,r12,#0x60000
        0x00005560:    f8dc40c4    ...@    LDR      r4,[r12,#0xc4]
        0x00005564:    f024040f    $...    BIC      r4,r4,#0xf
        0x00005568:    1c64        d.      ADDS     r4,r4,#1
        0x0000556a:    f8cc40c4    ...@    STR      r4,[r12,#0xc4]
        0x0000556e:    f8dc40c4    ...@    LDR      r4,[r12,#0xc4]
        0x00005572:    f0240480    $...    BIC      r4,r4,#0x80
        0x00005576:    f8cc40c4    ...@    STR      r4,[r12,#0xc4]
        0x0000557a:    f8dc40d0    ...@    LDR      r4,[r12,#0xd0]
        0x0000557e:    f42464e0    $..d    BIC      r4,r4,#0x700
        0x00005582:    f8cc40d0    ...@    STR      r4,[r12,#0xd0]
        0x00005586:    f890c009    ....    LDRB     r12,[r0,#9]
        0x0000558a:    f1bc0f00    ....    CMP      r12,#0
        0x0000558e:    d13c        <.      BNE      0x560a ; mspi_device_configure + 2390
        0x00005590:    e03f        ?.      B        0x5612 ; mspi_device_configure + 2398
        0x00005592:    b113        ..      CBZ      r3,0x559a ; mspi_device_configure + 2278
        0x00005594:    2b01        .+      CMP      r3,#1
        0x00005596:    d01a        ..      BEQ      0x55ce ; mspi_device_configure + 2330
        0x00005598:    e032        2.      B        0x5600 ; mspi_device_configure + 2380
        0x0000559a:    ea4f3c02    O..<    LSL      r12,r2,#12
        0x0000559e:    f10c4c80    ...L    ADD      r12,r12,#0x40000000
        0x000055a2:    f50c2cc0    ...,    ADD      r12,r12,#0x60000
        0x000055a6:    f8dc4084    ...@    LDR      r4,[r12,#0x84]
        0x000055aa:    f024040f    $...    BIC      r4,r4,#0xf
        0x000055ae:    1ca4        ..      ADDS     r4,r4,#2
        0x000055b0:    f8cc4084    ...@    STR      r4,[r12,#0x84]
        0x000055b4:    f8dc4084    ...@    LDR      r4,[r12,#0x84]
        0x000055b8:    f0240480    $...    BIC      r4,r4,#0x80
        0x000055bc:    f8cc4084    ...@    STR      r4,[r12,#0x84]
        0x000055c0:    f8dc4090    ...@    LDR      r4,[r12,#0x90]
        0x000055c4:    f42464e0    $..d    BIC      r4,r4,#0x700
        0x000055c8:    f8cc4090    ...@    STR      r4,[r12,#0x90]
        0x000055cc:    e018        ..      B        0x5600 ; mspi_device_configure + 2380
        0x000055ce:    ea4f3c02    O..<    LSL      r12,r2,#12
        0x000055d2:    f10c4c80    ...L    ADD      r12,r12,#0x40000000
        0x000055d6:    f50c2cc0    ...,    ADD      r12,r12,#0x60000
        0x000055da:    f8dc40c4    ...@    LDR      r4,[r12,#0xc4]
        0x000055de:    f024040f    $...    BIC      r4,r4,#0xf
        0x000055e2:    1ca4        ..      ADDS     r4,r4,#2
        0x000055e4:    f8cc40c4    ...@    STR      r4,[r12,#0xc4]
        0x000055e8:    f8dc40c4    ...@    LDR      r4,[r12,#0xc4]
        0x000055ec:    f0240480    $...    BIC      r4,r4,#0x80
        0x000055f0:    f8cc40c4    ...@    STR      r4,[r12,#0xc4]
        0x000055f4:    f8dc40d0    ...@    LDR      r4,[r12,#0xd0]
        0x000055f8:    f42464e0    $..d    BIC      r4,r4,#0x700
        0x000055fc:    f8cc40d0    ...@    STR      r4,[r12,#0xd0]
        0x00005600:    f890c009    ....    LDRB     r12,[r0,#9]
        0x00005604:    f1bc0f00    ....    CMP      r12,#0
        0x00005608:    d003        ..      BEQ      0x5612 ; mspi_device_configure + 2398
        0x0000560a:    f2410c13    A...    MOV      r12,#0x1013
        0x0000560e:    f7ffbba7    ....    B        0x4d60 ; mspi_device_configure + 172
        0x00005612:    f2401c03    @...    MOV      r12,#0x103
        0x00005616:    f7ffbba3    ....    B        0x4d60 ; mspi_device_configure + 172
    i.mspi_dummy_callback
    mspi_dummy_callback
        0x0000561a:    4770        pG      BX       lr
    i.mspi_seq_loopback
    mspi_seq_loopback
        0x0000561c:    f8d01830    ..0.    LDR      r1,[r0,#0x830]
        0x00005620:    1c49        I.      ADDS     r1,r1,#1
        0x00005622:    6201        .b      STR      r1,[r0,#0x20]
        0x00005624:    2100        .!      MOVS     r1,#0
        0x00005626:    61c1        .a      STR      r1,[r0,#0x1c]
        0x00005628:    2101        .!      MOVS     r1,#1
        0x0000562a:    f8801834    ..4.    STRB     r1,[r0,#0x834]
        0x0000562e:    6840        @h      LDR      r0,[r0,#4]
        0x00005630:    2140        @!      MOVS     r1,#0x40
        0x00005632:    0300        ..      LSLS     r0,r0,#12
        0x00005634:    f1004080    ...@    ADD      r0,r0,#0x40000000
        0x00005638:    f50020c0    ...     ADD      r0,r0,#0x60000
        0x0000563c:    f8c012b4    ....    STR      r1,[r0,#0x2b4]
        0x00005640:    4770        pG      BX       lr
    i.ndigits_in_hex
    ndigits_in_hex
        0x00005642:    b530        0.      PUSH     {r4,r5,lr}
        0x00005644:    4602        .F      MOV      r2,r0
        0x00005646:    460b        .F      MOV      r3,r1
        0x00005648:    2400        .$      MOVS     r4,#0
        0x0000564a:    ea820104    ....    EOR      r1,r2,r4
        0x0000564e:    405c        \@      EORS     r4,r4,r3
        0x00005650:    4321        !C      ORRS     r1,r1,r4
        0x00005652:    d101        ..      BNE      0x5658 ; ndigits_in_hex + 22
        0x00005654:    2101        .!      MOVS     r1,#1
        0x00005656:    e000        ..      B        0x565a ; ndigits_in_hex + 24
        0x00005658:    2100        .!      MOVS     r1,#0
        0x0000565a:    4608        .F      MOV      r0,r1
        0x0000565c:    e004        ..      B        0x5668 ; ndigits_in_hex + 38
        0x0000565e:    0911        ..      LSRS     r1,r2,#4
        0x00005660:    ea417203    A..r    ORR      r2,r1,r3,LSL #28
        0x00005664:    091b        ..      LSRS     r3,r3,#4
        0x00005666:    1c40        @.      ADDS     r0,r0,#1
        0x00005668:    2400        .$      MOVS     r4,#0
        0x0000566a:    ea820104    ....    EOR      r1,r2,r4
        0x0000566e:    405c        \@      EORS     r4,r4,r3
        0x00005670:    4321        !C      ORRS     r1,r1,r4
        0x00005672:    d1f4        ..      BNE      0x565e ; ndigits_in_hex + 28
        0x00005674:    bd30        0.      POP      {r4,r5,pc}
    i.ndigits_in_i64
    ndigits_in_i64
        0x00005676:    b570        p.      PUSH     {r4-r6,lr}
        0x00005678:    4604        .F      MOV      r4,r0
        0x0000567a:    460d        .F      MOV      r5,r1
        0x0000567c:    2100        .!      MOVS     r1,#0
        0x0000567e:    4608        .F      MOV      r0,r1
        0x00005680:    1a61        a.      SUBS     r1,r4,r1
        0x00005682:    eb750000    u...    SBCS     r0,r5,r0
        0x00005686:    da03        ..      BGE      0x5690 ; ndigits_in_i64 + 26
        0x00005688:    2200        ."      MOVS     r2,#0
        0x0000568a:    4264        dB      RSBS     r4,r4,#0
        0x0000568c:    eb620505    b...    SBC      r5,r2,r5
        0x00005690:    4620         F      MOV      r0,r4
        0x00005692:    4629        )F      MOV      r1,r5
        0x00005694:    f000f801    ....    BL       ndigits_in_u64 ; 0x569a
        0x00005698:    bd70        p.      POP      {r4-r6,pc}
    i.ndigits_in_u64
    ndigits_in_u64
        0x0000569a:    b570        p.      PUSH     {r4-r6,lr}
        0x0000569c:    4604        .F      MOV      r4,r0
        0x0000569e:    460d        .F      MOV      r5,r1
        0x000056a0:    2100        .!      MOVS     r1,#0
        0x000056a2:    ea840001    ....    EOR      r0,r4,r1
        0x000056a6:    4069        i@      EORS     r1,r1,r5
        0x000056a8:    4308        .C      ORRS     r0,r0,r1
        0x000056aa:    d101        ..      BNE      0x56b0 ; ndigits_in_u64 + 22
        0x000056ac:    2001        .       MOVS     r0,#1
        0x000056ae:    e000        ..      B        0x56b2 ; ndigits_in_u64 + 24
        0x000056b0:    2000        .       MOVS     r0,#0
        0x000056b2:    4606        .F      MOV      r6,r0
        0x000056b4:    e006        ..      B        0x56c4 ; ndigits_in_u64 + 42
        0x000056b6:    4620         F      MOV      r0,r4
        0x000056b8:    4629        )F      MOV      r1,r5
        0x000056ba:    f7fefebc    ....    BL       divu64_10 ; 0x4436
        0x000056be:    4604        .F      MOV      r4,r0
        0x000056c0:    460d        .F      MOV      r5,r1
        0x000056c2:    1c76        v.      ADDS     r6,r6,#1
        0x000056c4:    2100        .!      MOVS     r1,#0
        0x000056c6:    ea840001    ....    EOR      r0,r4,r1
        0x000056ca:    4069        i@      EORS     r1,r1,r5
        0x000056cc:    4308        .C      ORRS     r0,r0,r1
        0x000056ce:    d1f2        ..      BNE      0x56b6 ; ndigits_in_u64 + 28
        0x000056d0:    4630        0F      MOV      r0,r6
        0x000056d2:    bd70        p.      POP      {r4-r6,pc}
    i.padbuffer
    padbuffer
        0x000056d4:    b530        0.      PUSH     {r4,r5,lr}
        0x000056d6:    4603        .F      MOV      r3,r0
        0x000056d8:    2000        .       MOVS     r0,#0
        0x000056da:    2a00        .*      CMP      r2,#0
        0x000056dc:    dc00        ..      BGT      0x56e0 ; padbuffer + 12
        0x000056de:    bd30        0.      POP      {r4,r5,pc}
        0x000056e0:    e003        ..      B        0x56ea ; padbuffer + 22
        0x000056e2:    b10b        ..      CBZ      r3,0x56e8 ; padbuffer + 20
        0x000056e4:    f8031b01    ....    STRB     r1,[r3],#1
        0x000056e8:    1c40        @.      ADDS     r0,r0,#1
        0x000056ea:    1e14        ..      SUBS     r4,r2,#0
        0x000056ec:    f1a20201    ....    SUB      r2,r2,#1
        0x000056f0:    d1f7        ..      BNE      0x56e2 ; padbuffer + 14
        0x000056f2:    bf00        ..      NOP      
        0x000056f4:    e7f3        ..      B        0x56de ; padbuffer + 10
    i.pfnMSPI_ATXP032_Callback
    pfnMSPI_ATXP032_Callback
        0x000056f6:    2201        ."      MOVS     r2,#1
        0x000056f8:    7002        .p      STRB     r2,[r0,#0]
        0x000056fa:    4770        pG      BX       lr
    i.sched_hiprio
    sched_hiprio
        0x000056fc:    b5f8        ..      PUSH     {r3-r7,lr}
        0x000056fe:    460e        .F      MOV      r6,r1
        0x00005700:    4604        .F      MOV      r4,r0
        0x00005702:    2500        .%      MOVS     r5,#0
        0x00005704:    f7fafe4e    ..N.    BL       am_hal_interrupt_master_disable ; 0x3a4
        0x00005708:    9000        ..      STR      r0,[sp,#0]
        0x0000570a:    f8d47840    ..@x    LDR      r7,[r4,#0x840]
        0x0000570e:    19b8        ..      ADDS     r0,r7,r6
        0x00005710:    f8c40840    ..@.    STR      r0,[r4,#0x840]
        0x00005714:    9800        ..      LDR      r0,[sp,#0]
        0x00005716:    f7fafe49    ..I.    BL       am_hal_interrupt_master_set ; 0x3ac
        0x0000571a:    2f00        ./      CMP      r7,#0
        0x0000571c:    d17e        ~.      BNE      0x581c ; sched_hiprio + 288
        0x0000571e:    6861        ah      LDR      r1,[r4,#4]
        0x00005720:    4e44        DN      LDR      r6,[pc,#272] ; [0x5834] = 0x186a0
        0x00005722:    ea4f3101    O..1    LSL      r1,r1,#12
        0x00005726:    f1014180    ...A    ADD      r1,r1,#0x40000000
        0x0000572a:    f50121c0    ...!    ADD      r1,r1,#0x60000
        0x0000572e:    f44f0000    O...    MOV      r0,#0x800000
        0x00005732:    4635        5F      MOV      r5,r6
        0x00005734:    f8c102b4    ....    STR      r0,[r1,#0x2b4]
        0x00005738:    6860        `h      LDR      r0,[r4,#4]
        0x0000573a:    ea4f3000    O..0    LSL      r0,r0,#12
        0x0000573e:    f1004080    ...@    ADD      r0,r0,#0x40000000
        0x00005742:    f50020c0    ...     ADD      r0,r0,#0x60000
        0x00005746:    f8d002a0    ....    LDR      r0,[r0,#0x2a0]
        0x0000574a:    f0100f01    ....    TST      r0,#1
        0x0000574e:    d020         .      BEQ      0x5792 ; sched_hiprio + 150
        0x00005750:    6860        `h      LDR      r0,[r4,#4]
        0x00005752:    ea4f3000    O..0    LSL      r0,r0,#12
        0x00005756:    f1004080    ...@    ADD      r0,r0,#0x40000000
        0x0000575a:    f50020c0    ...     ADD      r0,r0,#0x60000
        0x0000575e:    f8d012ac    ....    LDR      r1,[r0,#0x2ac]
        0x00005762:    f0110f08    ....    TST      r1,#8
        0x00005766:    bf1c        ..      ITT      NE
        0x00005768:    f8d002b8    ....    LDRNE    r0,[r0,#0x2b8]
        0x0000576c:    f0100f80    ....    TSTNE    r0,#0x80
        0x00005770:    d10f        ..      BNE      0x5792 ; sched_hiprio + 150
        0x00005772:    1e6d        m.      SUBS     r5,r5,#1
        0x00005774:    d35b        [.      BCC      0x582e ; sched_hiprio + 306
        0x00005776:    2001        .       MOVS     r0,#1
        0x00005778:    f7fcf99c    ....    BL       am_hal_delay_us ; 0x1ab4
        0x0000577c:    6860        `h      LDR      r0,[r4,#4]
        0x0000577e:    0300        ..      LSLS     r0,r0,#12
        0x00005780:    f1004080    ...@    ADD      r0,r0,#0x40000000
        0x00005784:    f50020c0    ...     ADD      r0,r0,#0x60000
        0x00005788:    f8d002a0    ....    LDR      r0,[r0,#0x2a0]
        0x0000578c:    f0100f01    ....    TST      r0,#1
        0x00005790:    d1de        ..      BNE      0x5750 ; sched_hiprio + 84
        0x00005792:    2701        .'      MOVS     r7,#1
        0x00005794:    9700        ..      STR      r7,[sp,#0]
        0x00005796:    4928        (I      LDR      r1,[pc,#160] ; [0x5838] = 0x40060104
        0x00005798:    6860        `h      LDR      r0,[r4,#4]
        0x0000579a:    2300        .#      MOVS     r3,#0
        0x0000579c:    eb013100    ...1    ADD      r1,r1,r0,LSL #12
        0x000057a0:    463a        :F      MOV      r2,r7
        0x000057a2:    4630        0F      MOV      r0,r6
        0x000057a4:    f7fcf990    ....    BL       am_hal_delay_us_status_check ; 0x1ac8
        0x000057a8:    0005        ..      MOVS     r5,r0
        0x000057aa:    bf18        ..      IT       NE
        0x000057ac:    bdf8        ..      POPNE    {r3-r7,pc}
        0x000057ae:    2200        ."      MOVS     r2,#0
        0x000057b0:    6262        bb      STR      r2,[r4,#0x24]
        0x000057b2:    6861        ah      LDR      r1,[r4,#4]
        0x000057b4:    2040        @       MOVS     r0,#0x40
        0x000057b6:    0309        ..      LSLS     r1,r1,#12
        0x000057b8:    f1014180    ...A    ADD      r1,r1,#0x40000000
        0x000057bc:    f50121c0    ...!    ADD      r1,r1,#0x60000
        0x000057c0:    f8c10208    ....    STR      r0,[r1,#0x208]
        0x000057c4:    6860        `h      LDR      r0,[r4,#4]
        0x000057c6:    0300        ..      LSLS     r0,r0,#12
        0x000057c8:    f1004080    ...@    ADD      r0,r0,#0x40000000
        0x000057cc:    f50020c0    ...     ADD      r0,r0,#0x60000
        0x000057d0:    f8d01200    ....    LDR      r1,[r0,#0x200]
        0x000057d4:    f0410140    A.@.    ORR      r1,r1,#0x40
        0x000057d8:    f8c01200    ....    STR      r1,[r0,#0x200]
        0x000057dc:    f884783c    ..<x    STRB     r7,[r4,#0x83c]
        0x000057e0:    f8d40850    ..P.    LDR      r0,[r4,#0x850]
        0x000057e4:    f8d43848    ..H8    LDR      r3,[r4,#0x848]
        0x000057e8:    1c40        @.      ADDS     r0,r0,#1
        0x000057ea:    fbb0fcf3    ....    UDIV     r12,r0,r3
        0x000057ee:    6861        ah      LDR      r1,[r4,#4]
        0x000057f0:    fb03001c    ....    MLS      r0,r3,r12,r0
        0x000057f4:    0309        ..      LSLS     r1,r1,#12
        0x000057f6:    f1014180    ...A    ADD      r1,r1,#0x40000000
        0x000057fa:    f8d43854    ..T8    LDR      r3,[r4,#0x854]
        0x000057fe:    f50121c0    ...!    ADD      r1,r1,#0x60000
        0x00005802:    eb000040    ..@.    ADD      r0,r0,r0,LSL #1
        0x00005806:    eb0300c0    ....    ADD      r0,r3,r0,LSL #3
        0x0000580a:    f8c12100    ...!    STR      r2,[r1,#0x100]
        0x0000580e:    6802        .h      LDR      r2,[r0,#0]
        0x00005810:    f8c12108    ...!    STR      r2,[r1,#0x108]
        0x00005814:    6842        Bh      LDR      r2,[r0,#4]
        0x00005816:    f8c1210c    ...!    STR      r2,[r1,#0x10c]
        0x0000581a:    e000        ..      B        0x581e ; sched_hiprio + 290
        0x0000581c:    e005        ..      B        0x582a ; sched_hiprio + 302
        0x0000581e:    6882        .h      LDR      r2,[r0,#8]
        0x00005820:    f8c12110    ...!    STR      r2,[r1,#0x110]
        0x00005824:    68c0        .h      LDR      r0,[r0,#0xc]
        0x00005826:    f8c10100    ....    STR      r0,[r1,#0x100]
        0x0000582a:    4628        (F      MOV      r0,r5
        0x0000582c:    bdf8        ..      POP      {r3-r7,pc}
        0x0000582e:    2004        .       MOVS     r0,#4
        0x00005830:    bdf8        ..      POP      {r3-r7,pc}
    $d
        0x00005832:    0000        ..      DCW    0
        0x00005834:    000186a0    ....    DCD    100000
        0x00005838:    40060104    ...@    DCD    1074135300
    $t
    i.simple_strlen
    simple_strlen
        0x0000583c:    4601        .F      MOV      r1,r0
        0x0000583e:    2000        .       MOVS     r0,#0
        0x00005840:    b901        ..      CBNZ     r1,0x5844 ; simple_strlen + 8
        0x00005842:    4770        pG      BX       lr
        0x00005844:    e000        ..      B        0x5848 ; simple_strlen + 12
        0x00005846:    1c40        @.      ADDS     r0,r0,#1
        0x00005848:    f8113b01    ...;    LDRB     r3,[r1],#1
        0x0000584c:    2b00        .+      CMP      r3,#0
        0x0000584e:    d1fa        ..      BNE      0x5846 ; simple_strlen + 10
        0x00005850:    bf00        ..      NOP      
        0x00005852:    e7f6        ..      B        0x5842 ; simple_strlen + 6
    i.uint64_to_hexstr
    uint64_to_hexstr
        0x00005854:    e92d41f0    -..A    PUSH     {r4-r8,lr}
        0x00005858:    b085        ..      SUB      sp,sp,#0x14
        0x0000585a:    4604        .F      MOV      r4,r0
        0x0000585c:    460d        .F      MOV      r5,r1
        0x0000585e:    461e        .F      MOV      r6,r3
        0x00005860:    2100        .!      MOVS     r1,#0
        0x00005862:    468c        .F      MOV      r12,r1
        0x00005864:    ea84070c    ....    EOR      r7,r4,r12
        0x00005868:    ea850c0c    ....    EOR      r12,r5,r12
        0x0000586c:    ea57070c    W...    ORRS     r7,r7,r12
        0x00005870:    d105        ..      BNE      0x587e ; uint64_to_hexstr + 42
        0x00005872:    f04f0830    O.0.    MOV      r8,#0x30
        0x00005876:    460f        .F      MOV      r7,r1
        0x00005878:    1c49        I.      ADDS     r1,r1,#1
        0x0000587a:    f80d8007    ....    STRB     r8,[sp,r7]
        0x0000587e:    e016        ..      B        0x58ae ; uint64_to_hexstr + 90
        0x00005880:    270f        .'      MOVS     r7,#0xf
        0x00005882:    4027        '@      ANDS     r7,r7,r4
        0x00005884:    b2fb        ..      UXTB     r3,r7
        0x00005886:    2b09        .+      CMP      r3,#9
        0x00005888:    dd05        ..      BLE      0x5896 ; uint64_to_hexstr + 66
        0x0000588a:    b10e        ..      CBZ      r6,0x5890 ; uint64_to_hexstr + 60
        0x0000588c:    2727        ''      MOVS     r7,#0x27
        0x0000588e:    e000        ..      B        0x5892 ; uint64_to_hexstr + 62
        0x00005890:    2707        .'      MOVS     r7,#7
        0x00005892:    441f        .D      ADD      r7,r7,r3
        0x00005894:    b2fb        ..      UXTB     r3,r7
        0x00005896:    f1030730    ..0.    ADD      r7,r3,#0x30
        0x0000589a:    f00708ff    ....    AND      r8,r7,#0xff
        0x0000589e:    460f        .F      MOV      r7,r1
        0x000058a0:    1c49        I.      ADDS     r1,r1,#1
        0x000058a2:    f80d8007    ....    STRB     r8,[sp,r7]
        0x000058a6:    0927        '.      LSRS     r7,r4,#4
        0x000058a8:    ea477405    G..t    ORR      r4,r7,r5,LSL #28
        0x000058ac:    092d        -.      LSRS     r5,r5,#4
        0x000058ae:    f04f0c00    O...    MOV      r12,#0
        0x000058b2:    ea84070c    ....    EOR      r7,r4,r12
        0x000058b6:    ea850c0c    ....    EOR      r12,r5,r12
        0x000058ba:    ea57070c    W...    ORRS     r7,r7,r12
        0x000058be:    d1df        ..      BNE      0x5880 ; uint64_to_hexstr + 44
        0x000058c0:    4608        .F      MOV      r0,r1
        0x000058c2:    b14a        J.      CBZ      r2,0x58d8 ; uint64_to_hexstr + 132
        0x000058c4:    e003        ..      B        0x58ce ; uint64_to_hexstr + 122
        0x000058c6:    f81d7001    ...p    LDRB     r7,[sp,r1]
        0x000058ca:    f8027b01    ...{    STRB     r7,[r2],#1
        0x000058ce:    1e0f        ..      SUBS     r7,r1,#0
        0x000058d0:    f1a10101    ....    SUB      r1,r1,#1
        0x000058d4:    d1f7        ..      BNE      0x58c6 ; uint64_to_hexstr + 114
        0x000058d6:    7017        .p      STRB     r7,[r2,#0]
        0x000058d8:    b005        ..      ADD      sp,sp,#0x14
        0x000058da:    e8bd81f0    ....    POP      {r4-r8,pc}
    i.uint64_to_str
    uint64_to_str
        0x000058de:    e92d4ff0    -..O    PUSH     {r4-r11,lr}
        0x000058e2:    b087        ..      SUB      sp,sp,#0x1c
        0x000058e4:    4607        .F      MOV      r7,r0
        0x000058e6:    4688        .F      MOV      r8,r1
        0x000058e8:    4616        .F      MOV      r6,r2
        0x000058ea:    f04f0900    O...    MOV      r9,#0
        0x000058ee:    46cb        .F      MOV      r11,r9
        0x000058f0:    bf00        ..      NOP      
        0x000058f2:    4638        8F      MOV      r0,r7
        0x000058f4:    4641        AF      MOV      r1,r8
        0x000058f6:    f7fefd9e    ....    BL       divu64_10 ; 0x4436
        0x000058fa:    4604        .F      MOV      r4,r0
        0x000058fc:    460d        .F      MOV      r5,r1
        0x000058fe:    210a        .!      MOVS     r1,#0xa
        0x00005900:    fba40101    ....    UMULL    r0,r1,r4,r1
        0x00005904:    ebb70a00    ....    SUBS     r10,r7,r0
        0x00005908:    f10a0030    ..0.    ADD      r0,r10,#0x30
        0x0000590c:    b2c2        ..      UXTB     r2,r0
        0x0000590e:    4648        HF      MOV      r0,r9
        0x00005910:    f1090901    ....    ADD      r9,r9,#1
        0x00005914:    f80d2000    ...     STRB     r2,[sp,r0]
        0x00005918:    4627        'F      MOV      r7,r4
        0x0000591a:    46a8        .F      MOV      r8,r5
        0x0000591c:    f04f0200    O...    MOV      r2,#0
        0x00005920:    ea870002    ....    EOR      r0,r7,r2
        0x00005924:    ea880102    ....    EOR      r1,r8,r2
        0x00005928:    4308        .C      ORRS     r0,r0,r1
        0x0000592a:    d1e2        ..      BNE      0x58f2 ; uint64_to_str + 20
        0x0000592c:    46cb        .F      MOV      r11,r9
        0x0000592e:    b156        V.      CBZ      r6,0x5946 ; uint64_to_str + 104
        0x00005930:    e003        ..      B        0x593a ; uint64_to_str + 92
        0x00005932:    f81d0009    ....    LDRB     r0,[sp,r9]
        0x00005936:    f8060b01    ....    STRB     r0,[r6],#1
        0x0000593a:    f1b90000    ....    SUBS     r0,r9,#0
        0x0000593e:    f1a90901    ....    SUB      r9,r9,#1
        0x00005942:    d1f6        ..      BNE      0x5932 ; uint64_to_str + 84
        0x00005944:    7030        0p      STRB     r0,[r6,#0]
        0x00005946:    4658        XF      MOV      r0,r11
        0x00005948:    b007        ..      ADD      sp,sp,#0x1c
        0x0000594a:    e8bd8ff0    ....    POP      {r4-r11,pc}
        0x0000594e:    0000        ..      MOVS     r0,r0
    x$fpl$d2f
    $v0
    __aeabi_d2f
    _d2f
        0x00005950:    f0214200    !..B    BIC      r2,r1,#0x80000000
        0x00005954:    f1a25260    ..`R    SUB      r2,r2,#0x38000000
        0x00005958:    f5b21f80    ....    CMP      r2,#0x100000
        0x0000595c:    f0014300    ...C    AND      r3,r1,#0x80000000
        0x00005960:    bf28        (.      IT       CS
        0x00005962:    f1d26c7f    ...l    RSBSCS   r12,r2,#0xff00000
        0x00005966:    d90b        ..      BLS      0x5980 ; __aeabi_d2f + 48
        0x00005968:    ea5f1c00    _...    LSLS     r12,r0,#4
        0x0000596c:    ea4302c2    C...    ORR      r2,r3,r2,LSL #3
        0x00005970:    eb427050    B.Pp    ADC      r0,r2,r0,LSR #29
        0x00005974:    bf18        ..      IT       NE
        0x00005976:    4770        pG      BXNE     lr
        0x00005978:    bf28        (.      IT       CS
        0x0000597a:    f0200001     ...    BICCS    r0,r0,#1
        0x0000597e:    4770        pG      BX       lr
        0x00005980:    f5b21f80    ....    CMP      r2,#0x100000
        0x00005984:    bfbc        ..      ITT      LT
        0x00005986:    4618        .F      MOVLT    r0,r3
        0x00005988:    4770        pG      BXLT     lr
        0x0000598a:    ea4f0c41    O.A.    LSL      r12,r1,#1
        0x0000598e:    f51c1f00    ....    CMN      r12,#0x200000
        0x00005992:    d202        ..      BCS      0x599a ; __aeabi_d2f + 74
        0x00005994:    4608        .F      MOV      r0,r1
        0x00005996:    f000b85f    .._.    B.W      __fpl_fretinf ; 0x5a58
        0x0000599a:    b570        p.      PUSH     {r4-r6,lr}
        0x0000599c:    f000f809    ....    BL       __fpl_dnaninf ; 0x59b2
    $d
        0x000059a0:    89000000    ....    DCD    2298478592
    $t
        0x000059a4:    f7ffbff6    ....    B.W      0x5994 ; __aeabi_d2f + 68
        0x000059a8:    f04f4000    O..@    MOV      r0,#0x80000000
        0x000059ac:    f5a00080    ....    SUB      r0,r0,#0x400000
        0x000059b0:    4770        pG      BX       lr
    x$fpl$dnaninf
    $v0
    __fpl_dnaninf
        0x000059b2:    f10e0e02    ....    ADD      lr,lr,#2
        0x000059b6:    f02e0e03    ....    BIC      lr,lr,#3
        0x000059ba:    f85e6b04    ^..k    LDR      r6,[lr],#4
        0x000059be:    4236        6B      TST      r6,r6
        0x000059c0:    d405        ..      BMI      0x59ce ; __fpl_dnaninf + 28
        0x000059c2:    2a01        .*      CMP      r2,#1
        0x000059c4:    eb430503    C...    ADC      r5,r3,r3
        0x000059c8:    f5151f00    ....    CMN      r5,#0x200000
        0x000059cc:    d812        ..      BHI      0x59f4 ; __fpl_dnaninf + 66
        0x000059ce:    2801        .(      CMP      r0,#1
        0x000059d0:    eb410c01    A...    ADC      r12,r1,r1
        0x000059d4:    f51c1f00    ....    CMN      r12,#0x200000
        0x000059d8:    d80c        ..      BHI      0x59f4 ; __fpl_dnaninf + 66
        0x000059da:    d10e        ..      BNE      0x59fa ; __fpl_dnaninf + 72
        0x000059dc:    ea4f7cd1    O..|    LSR      r12,r1,#31
        0x000059e0:    f5151f00    ....    CMN      r5,#0x200000
        0x000059e4:    eb0c0c4c    ..L.    ADD      r12,r12,r12,LSL #1
        0x000059e8:    f10c0c02    ....    ADD      r12,r12,#2
        0x000059ec:    bf08        ..      IT       EQ
        0x000059ee:    eb4c7cd3    L..|    ADCEQ    r12,r12,r3,LSR #31
        0x000059f2:    e004        ..      B        0x59fe ; __fpl_dnaninf + 76
        0x000059f4:    f04f0c08    O...    MOV      r12,#8
        0x000059f8:    e001        ..      B        0x59fe ; __fpl_dnaninf + 76
        0x000059fa:    ea4f7cd3    O..|    LSR      r12,r3,#31
        0x000059fe:    eb0c054c    ..L.    ADD      r5,r12,r12,LSL #1
        0x00005a02:    fa26f605    &...    LSR      r6,r6,r5
        0x00005a06:    f0060607    ....    AND      r6,r6,#7
        0x00005a0a:    f1b60c04    ....    SUBS     r12,r6,#4
        0x00005a0e:    d206        ..      BCS      0x5a1e ; __fpl_dnaninf + 108
        0x00005a10:    eb0e0c86    ....    ADD      r12,lr,r6,LSL #2
        0x00005a14:    e8bd4070    ..p@    POP      {r4-r6,lr}
        0x00005a18:    f04c0c01    L...    ORR      r12,r12,#1
        0x00005a1c:    4760        `G      BX       r12
        0x00005a1e:    e8dff00c    ....    TBB      [pc,r12]
    $d
        0x00005a22:    0b09        ..      DCW    2825
        0x00005a24:    0202        ..      DCW    514
    $t
        0x00005a26:    f04f4100    O..A    MOV      r1,#0x80000000
        0x00005a2a:    f04f0000    O...    MOV      r0,#0
        0x00005a2e:    f5a12100    ...!    SUB      r1,r1,#0x80000
        0x00005a32:    bd70        p.      POP      {r4-r6,pc}
        0x00005a34:    4619        .F      MOV      r1,r3
        0x00005a36:    4610        .F      MOV      r0,r2
        0x00005a38:    2801        .(      CMP      r0,#1
        0x00005a3a:    eb510401    Q...    ADCS     r4,r1,r1
        0x00005a3e:    bf18        ..      IT       NE
        0x00005a40:    f5d41400    ....    RSBSNE   r4,r4,#0x200000
        0x00005a44:    bf84        ..      ITT      HI
        0x00005a46:    2000        .       MOVHI    r0,#0
        0x00005a48:    f0014100    ...A    ANDHI    r1,r1,#0x80000000
        0x00005a4c:    bd70        p.      POP      {r4-r6,pc}
    x$fpl$fpinit
    $v0
    _fp_init
        0x00005a4e:    f04f7040    O.@p    MOV      r0,#0x3000000
        0x00005a52:    eee10a10    ....    VMSR     FPSCR,r0
    __fplib_config_fpu_vfp
    __fplib_config_pureend_doubles
        0x00005a56:    4770        pG      BX       lr
    x$fpl$fretinf
    $v0
    __fpl_fretinf
        0x00005a58:    21ff        .!      MOVS     r1,#0xff
        0x00005a5a:    ea4150d0    A..P    ORR      r0,r1,r0,LSR #23
        0x00005a5e:    05c0        ..      LSLS     r0,r0,#23
        0x00005a60:    4770        pG      BX       lr
    x$fpl$usenofp
    __I$use$fp
        0x00005a62:    0000        ..      MOVS     r0,r0
    $d.realdata
    .constdata
    __tagsym$$used
    ui32MCUAllowed
        0x00005a64:    00000021    !...    DCD    33
        0x00005a68:    00000000    ....    DCD    0
        0x00005a6c:    00000000    ....    DCD    0
        0x00005a70:    00000000    ....    DCD    0
        0x00005a74:    00000000    ....    DCD    0
    __tagsym$$used
    ui32DSP0Allowed
        0x00005a78:    00000001    ....    DCD    1
        0x00005a7c:    00000000    ....    DCD    0
        0x00005a80:    00010000    ....    DCD    65536
        0x00005a84:    00000000    ....    DCD    0
        0x00005a88:    00000000    ....    DCD    0
    __tagsym$$used
    ui32DSP1Allowed
        0x00005a8c:    00000000    ....    DCD    0
        0x00005a90:    00000000    ....    DCD    0
        0x00005a94:    00020000    ....    DCD    131072
        0x00005a98:    00000000    ....    DCD    0
        0x00005a9c:    00000000    ....    DCD    0
    __tagsym$$used
    ui32SharedAccess
        0x00005aa0:    00000001    ....    DCD    1
        0x00005aa4:    00000000    ....    DCD    0
        0x00005aa8:    00000000    ....    DCD    0
        0x00005aac:    00000000    ....    DCD    0
        0x00005ab0:    00000000    ....    DCD    0
    __tagsym$$used
    sGlobalAccess
        0x00005ab4:    00005aa0    .Z..    DCD    23200
        0x00005ab8:    00005a64    dZ..    DCD    23140
        0x00005abc:    00005a78    xZ..    DCD    23160
        0x00005ac0:    00005a8c    .Z..    DCD    23180
        0x00005ac4:    10060004    ....    DCD    268828676
        0x00005ac8:    10060018    ....    DCD    268828696
        0x00005acc:    1006002c    ,...    DCD    268828716
    .constdata
    MSPI_Flash_Config
        0x00005ad0:    00000404    ....    DCD    1028
        0x00005ad4:    100001a0    ....    DCD    268435872
        0x00005ad8:    00000a00    ....    DCD    2560
        0x00005adc:    00000000    ....    DCD    0
        0x00005ae0:    00000000    ....    DCD    0
    mspi_interrupts
        0x00005ae4:    00161514    ....    DCD    1447188
    .constdata
    g_am_hal_bootrom_helper
        0x00005ae8:    0800004d    M...    DCD    134217805
        0x00005aec:    08000051    Q...    DCD    134217809
        0x00005af0:    08000055    U...    DCD    134217813
        0x00005af4:    08000059    Y...    DCD    134217817
        0x00005af8:    0800006d    m...    DCD    134217837
        0x00005afc:    08000075    u...    DCD    134217845
        0x00005b00:    08000079    y...    DCD    134217849
        0x00005b04:    08000081    ....    DCD    134217857
        0x00005b08:    08000099    ....    DCD    134217881
        0x00005b0c:    0800009d    ....    DCD    134217885
    .constdata
    gAmHalCmdQReg
        0x00005b10:    40050228    (..@    DCD    1074070056
        0x00005b14:    4005022c    ,..@    DCD    1074070060
        0x00005b18:    40050240    @..@    DCD    1074070080
        0x00005b1c:    40050244    D..@    DCD    1074070084
        0x00005b20:    4005023c    <..@    DCD    1074070076
        0x00005b24:    00008000    ....    DCD    32768
        0x00005b28:    40050230    0..@    DCD    1074070064
        0x00005b2c:    00000001    ....    DCD    1
        0x00005b30:    00000004    ....    DCD    4
        0x00005b34:    00000002    ....    DCD    2
        0x00005b38:    40051228    (..@    DCD    1074074152
        0x00005b3c:    4005122c    ,..@    DCD    1074074156
        0x00005b40:    40051240    @..@    DCD    1074074176
        0x00005b44:    40051244    D..@    DCD    1074074180
        0x00005b48:    4005123c    <..@    DCD    1074074172
        0x00005b4c:    00008000    ....    DCD    32768
        0x00005b50:    40051230    0..@    DCD    1074074160
        0x00005b54:    00000001    ....    DCD    1
        0x00005b58:    00000004    ....    DCD    4
        0x00005b5c:    00000002    ....    DCD    2
        0x00005b60:    40052228    (".@    DCD    1074078248
        0x00005b64:    4005222c    ,".@    DCD    1074078252
        0x00005b68:    40052240    @".@    DCD    1074078272
        0x00005b6c:    40052244    D".@    DCD    1074078276
        0x00005b70:    4005223c    <".@    DCD    1074078268
        0x00005b74:    00008000    ....    DCD    32768
        0x00005b78:    40052230    0".@    DCD    1074078256
        0x00005b7c:    00000001    ....    DCD    1
        0x00005b80:    00000004    ....    DCD    4
        0x00005b84:    00000002    ....    DCD    2
        0x00005b88:    40053228    (2.@    DCD    1074082344
        0x00005b8c:    4005322c    ,2.@    DCD    1074082348
        0x00005b90:    40053240    @2.@    DCD    1074082368
        0x00005b94:    40053244    D2.@    DCD    1074082372
        0x00005b98:    4005323c    <2.@    DCD    1074082364
        0x00005b9c:    00008000    ....    DCD    32768
        0x00005ba0:    40053230    02.@    DCD    1074082352
        0x00005ba4:    00000001    ....    DCD    1
        0x00005ba8:    00000004    ....    DCD    4
        0x00005bac:    00000002    ....    DCD    2
        0x00005bb0:    40054228    (B.@    DCD    1074086440
        0x00005bb4:    4005422c    ,B.@    DCD    1074086444
        0x00005bb8:    40054240    @B.@    DCD    1074086464
        0x00005bbc:    40054244    DB.@    DCD    1074086468
        0x00005bc0:    4005423c    <B.@    DCD    1074086460
        0x00005bc4:    00008000    ....    DCD    32768
        0x00005bc8:    40054230    0B.@    DCD    1074086448
        0x00005bcc:    00000001    ....    DCD    1
        0x00005bd0:    00000004    ....    DCD    4
        0x00005bd4:    00000002    ....    DCD    2
        0x00005bd8:    40055228    (R.@    DCD    1074090536
        0x00005bdc:    4005522c    ,R.@    DCD    1074090540
        0x00005be0:    40055240    @R.@    DCD    1074090560
        0x00005be4:    40055244    DR.@    DCD    1074090564
        0x00005be8:    4005523c    <R.@    DCD    1074090556
        0x00005bec:    00008000    ....    DCD    32768
        0x00005bf0:    40055230    0R.@    DCD    1074090544
        0x00005bf4:    00000001    ....    DCD    1
        0x00005bf8:    00000004    ....    DCD    4
        0x00005bfc:    00000002    ....    DCD    2
        0x00005c00:    40056228    (b.@    DCD    1074094632
        0x00005c04:    4005622c    ,b.@    DCD    1074094636
        0x00005c08:    40056240    @b.@    DCD    1074094656
        0x00005c0c:    40056244    Db.@    DCD    1074094660
        0x00005c10:    4005623c    <b.@    DCD    1074094652
        0x00005c14:    00008000    ....    DCD    32768
        0x00005c18:    40056230    0b.@    DCD    1074094640
        0x00005c1c:    00000001    ....    DCD    1
        0x00005c20:    00000004    ....    DCD    4
        0x00005c24:    00000002    ....    DCD    2
        0x00005c28:    40057228    (r.@    DCD    1074098728
        0x00005c2c:    4005722c    ,r.@    DCD    1074098732
        0x00005c30:    40057240    @r.@    DCD    1074098752
        0x00005c34:    40057244    Dr.@    DCD    1074098756
        0x00005c38:    4005723c    <r.@    DCD    1074098748
        0x00005c3c:    00008000    ....    DCD    32768
        0x00005c40:    40057230    0r.@    DCD    1074098736
        0x00005c44:    00000001    ....    DCD    1
        0x00005c48:    00000004    ....    DCD    4
        0x00005c4c:    00000002    ....    DCD    2
        0x00005c50:    400602a0    ...@    DCD    1074135712
        0x00005c54:    400602a8    ...@    DCD    1074135720
        0x00005c58:    400602c0    ...@    DCD    1074135744
        0x00005c5c:    400602c4    ...@    DCD    1074135748
        0x00005c60:    400602b8    ...@    DCD    1074135736
        0x00005c64:    00004000    .@..    DCD    16384
        0x00005c68:    400602ac    ...@    DCD    1074135724
        0x00005c6c:    00000001    ....    DCD    1
        0x00005c70:    00000004    ....    DCD    4
        0x00005c74:    00000008    ....    DCD    8
        0x00005c78:    400612a0    ...@    DCD    1074139808
        0x00005c7c:    400612a8    ...@    DCD    1074139816
        0x00005c80:    400612c0    ...@    DCD    1074139840
        0x00005c84:    400612c4    ...@    DCD    1074139844
        0x00005c88:    400612b8    ...@    DCD    1074139832
        0x00005c8c:    00004000    .@..    DCD    16384
        0x00005c90:    400612ac    ...@    DCD    1074139820
        0x00005c94:    00000001    ....    DCD    1
        0x00005c98:    00000004    ....    DCD    4
        0x00005c9c:    00000008    ....    DCD    8
        0x00005ca0:    400622a0    .".@    DCD    1074143904
        0x00005ca4:    400622a8    .".@    DCD    1074143912
        0x00005ca8:    400622c0    .".@    DCD    1074143936
        0x00005cac:    400622c4    .".@    DCD    1074143940
        0x00005cb0:    400622b8    .".@    DCD    1074143928
        0x00005cb4:    00004000    .@..    DCD    16384
        0x00005cb8:    400622ac    .".@    DCD    1074143916
        0x00005cbc:    00000001    ....    DCD    1
        0x00005cc0:    00000004    ....    DCD    4
        0x00005cc4:    00000008    ....    DCD    8
    .constdata
    am_hal_pwrctrl_peripheral_control
        0x00005cc8:    40021004    ...@    DCD    1073876996
        0x00005ccc:    00000001    ....    DCD    1
        0x00005cd0:    40021008    ...@    DCD    1073877000
        0x00005cd4:    00000001    ....    DCD    1
        0x00005cd8:    40021004    ...@    DCD    1073876996
        0x00005cdc:    00000002    ....    DCD    2
        0x00005ce0:    40021008    ...@    DCD    1073877000
        0x00005ce4:    00000002    ....    DCD    2
        0x00005ce8:    40021004    ...@    DCD    1073876996
        0x00005cec:    00000004    ....    DCD    4
        0x00005cf0:    40021008    ...@    DCD    1073877000
        0x00005cf4:    00000004    ....    DCD    4
        0x00005cf8:    40021004    ...@    DCD    1073876996
        0x00005cfc:    00000008    ....    DCD    8
        0x00005d00:    40021008    ...@    DCD    1073877000
        0x00005d04:    00000008    ....    DCD    8
        0x00005d08:    40021004    ...@    DCD    1073876996
        0x00005d0c:    00000010    ....    DCD    16
        0x00005d10:    40021008    ...@    DCD    1073877000
        0x00005d14:    00000010    ....    DCD    16
        0x00005d18:    40021004    ...@    DCD    1073876996
        0x00005d1c:    00000020     ...    DCD    32
        0x00005d20:    40021008    ...@    DCD    1073877000
        0x00005d24:    00000020     ...    DCD    32
        0x00005d28:    40021004    ...@    DCD    1073876996
        0x00005d2c:    00000040    @...    DCD    64
        0x00005d30:    40021008    ...@    DCD    1073877000
        0x00005d34:    00000040    @...    DCD    64
        0x00005d38:    40021004    ...@    DCD    1073876996
        0x00005d3c:    00000080    ....    DCD    128
        0x00005d40:    40021008    ...@    DCD    1073877000
        0x00005d44:    00000080    ....    DCD    128
        0x00005d48:    40021004    ...@    DCD    1073876996
        0x00005d4c:    00000100    ....    DCD    256
        0x00005d50:    40021008    ...@    DCD    1073877000
        0x00005d54:    00000100    ....    DCD    256
        0x00005d58:    40021004    ...@    DCD    1073876996
        0x00005d5c:    00000200    ....    DCD    512
        0x00005d60:    40021008    ...@    DCD    1073877000
        0x00005d64:    00000200    ....    DCD    512
        0x00005d68:    40021004    ...@    DCD    1073876996
        0x00005d6c:    00000400    ....    DCD    1024
        0x00005d70:    40021008    ...@    DCD    1073877000
        0x00005d74:    00000400    ....    DCD    1024
        0x00005d78:    40021004    ...@    DCD    1073876996
        0x00005d7c:    00000800    ....    DCD    2048
        0x00005d80:    40021008    ...@    DCD    1073877000
        0x00005d84:    00000800    ....    DCD    2048
        0x00005d88:    40021004    ...@    DCD    1073876996
        0x00005d8c:    00001000    ....    DCD    4096
        0x00005d90:    40021008    ...@    DCD    1073877000
        0x00005d94:    00001000    ....    DCD    4096
        0x00005d98:    40021004    ...@    DCD    1073876996
        0x00005d9c:    00002000    . ..    DCD    8192
        0x00005da0:    40021008    ...@    DCD    1073877000
        0x00005da4:    00002000    . ..    DCD    8192
        0x00005da8:    40021004    ...@    DCD    1073876996
        0x00005dac:    00004000    .@..    DCD    16384
        0x00005db0:    40021008    ...@    DCD    1073877000
        0x00005db4:    00004000    .@..    DCD    16384
        0x00005db8:    40021004    ...@    DCD    1073876996
        0x00005dbc:    00008000    ....    DCD    32768
        0x00005dc0:    40021008    ...@    DCD    1073877000
        0x00005dc4:    00008000    ....    DCD    32768
        0x00005dc8:    40021004    ...@    DCD    1073876996
        0x00005dcc:    00010000    ....    DCD    65536
        0x00005dd0:    40021008    ...@    DCD    1073877000
        0x00005dd4:    00010000    ....    DCD    65536
        0x00005dd8:    40021004    ...@    DCD    1073876996
        0x00005ddc:    00020000    ....    DCD    131072
        0x00005de0:    40021008    ...@    DCD    1073877000
        0x00005de4:    00020000    ....    DCD    131072
        0x00005de8:    40021004    ...@    DCD    1073876996
        0x00005dec:    00040000    ....    DCD    262144
        0x00005df0:    40021008    ...@    DCD    1073877000
        0x00005df4:    00040000    ....    DCD    262144
        0x00005df8:    40021004    ...@    DCD    1073876996
        0x00005dfc:    00080000    ....    DCD    524288
        0x00005e00:    40021008    ...@    DCD    1073877000
        0x00005e04:    00080000    ....    DCD    524288
        0x00005e08:    40021004    ...@    DCD    1073876996
        0x00005e0c:    00100000    ....    DCD    1048576
        0x00005e10:    40021008    ...@    DCD    1073877000
        0x00005e14:    00100000    ....    DCD    1048576
        0x00005e18:    40021004    ...@    DCD    1073876996
        0x00005e1c:    00200000    .. .    DCD    2097152
        0x00005e20:    40021008    ...@    DCD    1073877000
        0x00005e24:    00200000    .. .    DCD    2097152
        0x00005e28:    40021004    ...@    DCD    1073876996
        0x00005e2c:    00400000    ..@.    DCD    4194304
        0x00005e30:    40021008    ...@    DCD    1073877000
        0x00005e34:    00400000    ..@.    DCD    4194304
        0x00005e38:    40021004    ...@    DCD    1073876996
        0x00005e3c:    00800000    ....    DCD    8388608
        0x00005e40:    40021008    ...@    DCD    1073877000
        0x00005e44:    00800000    ....    DCD    8388608
        0x00005e48:    40021004    ...@    DCD    1073876996
        0x00005e4c:    01000000    ....    DCD    16777216
        0x00005e50:    40021008    ...@    DCD    1073877000
        0x00005e54:    01000000    ....    DCD    16777216
        0x00005e58:    40021004    ...@    DCD    1073876996
        0x00005e5c:    02000000    ....    DCD    33554432
        0x00005e60:    40021008    ...@    DCD    1073877000
        0x00005e64:    02000000    ....    DCD    33554432
        0x00005e68:    40021004    ...@    DCD    1073876996
        0x00005e6c:    04000000    ....    DCD    67108864
        0x00005e70:    40021008    ...@    DCD    1073877000
        0x00005e74:    04000000    ....    DCD    67108864
        0x00005e78:    4002100c    ...@    DCD    1073877004
        0x00005e7c:    00000001    ....    DCD    1
        0x00005e80:    40021010    ...@    DCD    1073877008
        0x00005e84:    00000001    ....    DCD    1
        0x00005e88:    4002100c    ...@    DCD    1073877004
        0x00005e8c:    00000002    ....    DCD    2
        0x00005e90:    40021010    ...@    DCD    1073877008
        0x00005e94:    00000002    ....    DCD    2
        0x00005e98:    4002100c    ...@    DCD    1073877004
        0x00005e9c:    00000004    ....    DCD    4
        0x00005ea0:    40021010    ...@    DCD    1073877008
        0x00005ea4:    00000004    ....    DCD    4
        0x00005ea8:    4002100c    ...@    DCD    1073877004
        0x00005eac:    00000008    ....    DCD    8
        0x00005eb0:    40021010    ...@    DCD    1073877008
        0x00005eb4:    00000008    ....    DCD    8
        0x00005eb8:    4002100c    ...@    DCD    1073877004
        0x00005ebc:    00000010    ....    DCD    16
        0x00005ec0:    40021010    ...@    DCD    1073877008
        0x00005ec4:    00000010    ....    DCD    16
        0x00005ec8:    4002100c    ...@    DCD    1073877004
        0x00005ecc:    00000020     ...    DCD    32
        0x00005ed0:    40021010    ...@    DCD    1073877008
        0x00005ed4:    00000020     ...    DCD    32
        0x00005ed8:    4002100c    ...@    DCD    1073877004
        0x00005edc:    00000040    @...    DCD    64
        0x00005ee0:    40021010    ...@    DCD    1073877008
        0x00005ee4:    00000040    @...    DCD    64
        0x00005ee8:    4002100c    ...@    DCD    1073877004
        0x00005eec:    00000080    ....    DCD    128
        0x00005ef0:    40021010    ...@    DCD    1073877008
        0x00005ef4:    00000080    ....    DCD    128
        0x00005ef8:    4002100c    ...@    DCD    1073877004
        0x00005efc:    00000100    ....    DCD    256
        0x00005f00:    40021010    ...@    DCD    1073877008
        0x00005f04:    00000100    ....    DCD    256
        0x00005f08:    4002100c    ...@    DCD    1073877004
        0x00005f0c:    00000200    ....    DCD    512
        0x00005f10:    40021010    ...@    DCD    1073877008
        0x00005f14:    00000200    ....    DCD    512
        0x00005f18:    4002100c    ...@    DCD    1073877004
        0x00005f1c:    00000400    ....    DCD    1024
        0x00005f20:    40021010    ...@    DCD    1073877008
        0x00005f24:    00000400    ....    DCD    1024
        0x00005f28:    4002100c    ...@    DCD    1073877004
        0x00005f2c:    00000800    ....    DCD    2048
        0x00005f30:    4002100c    ...@    DCD    1073877004
        0x00005f34:    00000800    ....    DCD    2048
    .constdata
    g_am_hal_mcuctrl_ssram_size
        0x00005f38:    00080000    ....    DCD    524288
        0x00005f3c:    00100000    ....    DCD    1048576
        0x00005f40:    00178000    ....    DCD    1540096
    g_am_hal_mcuctrl_mram_size
        0x00005f44:    00080000    ....    DCD    524288
        0x00005f48:    00100000    ....    DCD    1048576
        0x00005f4c:    00180000    ....    DCD    1572864
        0x00005f50:    00200000    .. .    DCD    2097152
    Region$$Table$$Base
        0x00005f54:    00005f84    ._..    DCD    24452
        0x00005f58:    10000000    ....    DCD    268435456
        0x00005f5c:    000001a0    ....    DCD    416
        0x00005f60:    00000274    t...    DCD    628
        0x00005f64:    00006028    (`..    DCD    24616
        0x00005f68:    10060000    ....    DCD    268828672
        0x00005f6c:    00000040    @...    DCD    64
        0x00005f70:    000002d0    ....    DCD    720
        0x00005f74:    00006028    (`..    DCD    24616
        0x00005f78:    100001a0    ....    DCD    268435872
        0x00005f7c:    000081c8    ....    DCD    33224
        0x00005f80:    000002ec    ....    DCD    748
    Region$$Table$$Limit

** Section #2 'MCU_TCM' (SHT_PROGBITS) [SHF_ALLOC + SHF_WRITE]
    Size   : 164 bytes (alignment 4)
    Address: 0x10000000

    Data section was compressed (Original size: 416 bytes)

    0x10000000:   00 20 06 40 00 00 00 00 00 00 00 00 4d 53 50 49    . .@........MSPI
    0x10000010:   20 46 4c 41 53 48 20 41 54 58 50 30 33 32 00 00     FLASH ATXP032..
    0x10000020:   e1 0d 00 00 c9 0b 00 00 99 0d 00 00 01 14 00 00    ................
    0x10000030:   d9 11 00 00 29 11 00 00 b1 12 00 00 41 0d 00 00    ....).......A...
    0x10000040:   c1 0c 00 00 15 0d 00 00 6d 0c 00 00 00 00 00 00    ........m.......
    0x10000050:   00 00 00 00 00 00 00 00 00 00 00 00 00 00 00 00    ................
    0x10000060:   00 00 00 14 00 0a 00 00 00 00 00 00 00 00 00 00    ................
    0x10000070:   00 00 00 00 00 00 00 18 00 0a 00 00 00 00 00 00    ................
    0x10000080:   00 00 00 00 00 00 00 00 00 00 00 1c 00 0a 00 00    ................
    0x10000090:   00 08 03 00 0b 02 00 00 00 04 00 01 01 01 00 00    ................
    0x100000a0:   00 00 00 00 00 08 03 00 0b 02 01 00 00 04 00 01    ................
    0x100000b0:   01 01 00 00 00 00 00 00 00 08 03 00 0b 02 04 00    ................
    0x100000c0:   00 04 00 01 01 01 00 00 00 00 00 00 00 08 03 00    ................
    0x100000d0:   0b 02 05 00 00 04 00 01 01 01 00 00 00 00 00 00    ................
    0x100000e0:   00 08 03 00 0b 02 06 00 00 04 00 01 01 01 00 00    ................
    0x100000f0:   00 00 00 00 00 08 03 00 0b 02 07 00 00 04 00 01    ................
    0x10000100:   01 01 00 00 00 00 00 00 00 00 00 00 90 00 00 10    ................
    0x10000110:   01 00 00 00 a4 00 00 10 04 00 00 00 b8 00 00 10    ................
    0x10000120:   05 00 00 00 cc 00 00 10 06 00 00 00 e0 00 00 10    ................
    0x10000130:   07 00 00 00 f4 00 00 10 00 00 00 00 00 00 00 00    ................
    0x10000140:   00 00 00 00 87 01 20 00 87 01 21 00 80 00 00 00    ...... ...!.....
    0x10000150:   80 00 00 00 80 00 00 00 80 00 00 00 80 00 00 00    ................
    0x10000160:   80 00 00 00 80 00 00 00 80 00 00 00 80 00 00 00    ................
    0x10000170:   87 01 24 00 87 01 25 00 80 00 00 00 80 00 00 00    ..$...%.........
    0x10000180:   80 00 00 00 80 00 00 00 80 00 00 00 80 00 00 00    ................
    0x10000190:   80 00 00 00 80 00 00 00 80 00 00 00 00 00 00 00    ................


** Section #3 'MCU_TCM' (SHT_NOBITS) [SHF_ALLOC + SHF_WRITE]
    Size   : 33224 bytes (alignment 8)
    Address: 0x100001a0


** Section #4 'SHARED_SRAM' (SHT_PROGBITS) [SHF_ALLOC + SHF_WRITE]
    Size   : 64 bytes (alignment 4)
    Address: 0x10060000

    0x10060000:   b4 5a 00 00 00 00 00 00 00 00 00 00 00 00 00 00    .Z..............
    0x10060010:   00 00 00 00 00 00 00 00 00 00 00 00 00 00 00 00    ................
    0x10060020:   00 00 00 00 00 00 00 00 00 00 00 00 00 00 00 00    ................
    0x10060030:   00 00 00 00 00 00 00 00 00 00 00 00 00 00 00 00    ................


** Section #5 '.debug_abbrev' (SHT_PROGBITS)
    Size   : 1476 bytes


** Section #6 '.debug_frame' (SHT_PROGBITS)
    Size   : 4440 bytes


** Section #7 '.debug_info' (SHT_PROGBITS)
    Size   : 1068240 bytes


** Section #8 '.debug_line' (SHT_PROGBITS)
    Size   : 10468 bytes


** Section #9 '.debug_loc' (SHT_PROGBITS)
    Size   : 5388 bytes


** Section #10 '.debug_macinfo' (SHT_PROGBITS)
    Size   : 784304 bytes


** Section #11 '.debug_pubnames' (SHT_PROGBITS)
    Size   : 1820 bytes


** Section #12 '.symtab' (SHT_SYMTAB)
    Size   : 13152 bytes (alignment 4)
    String table #13 '.strtab'
    Last local symbol no. 514

    Symbol table .symtab (821 symbols, 514 local)

      #  Symbol Name                Value      Bind  Sec  Type  Vis  Size
    ========================================================================

      1  $d                         0x00000000   Lc    1   --   De 
      2  $t                         0x00000200   Lc    1   --   De 
      3  $d                         0x00000232   Lc    1   --   De 
      4  $t                         0x00000238   Lc    1   --   De 
      5  $d                         0x0000026c   Lc    1   --   De 
      6  $t                         0x00000274   Lc    1   --   De 
      7  $d                         0x000003be   Lc    1   --   De 
      8  $t                         0x000003cc   Lc    1   --   De 
      9  $d                         0x00000570   Lc    1   --   De 
     10  $t                         0x00000574   Lc    1   --   De 
     11  $d                         0x0000057c   Lc    1   --   De 
     12  $t                         0x00000580   Lc    1   --   De 
     13  $d                         0x000005ac   Lc    1   --   De 
     14  $t                         0x000005bc   Lc    1   --   De 
     15  $d                         0x000005e2   Lc    1   --   De 
     16  $t                         0x000005f2   Lc    1   --   De 
     17  $d                         0x000005fc   Lc    1   --   De 
     18  $t                         0x0000060c   Lc    1   --   De 
     19  $d                         0x0000098e   Lc    1   --   De 
     20  $t                         0x000009e8   Lc    1   --   De 
     21  $d                         0x00000a02   Lc    1   --   De 
     22  $t                         0x00000a0a   Lc    1   --   De 
     23  $d                         0x00000a98   Lc    1   --   De 
     24  $t                         0x00000aa0   Lc    1   --   De 
     25  $d                         0x00000b5a   Lc    1   --   De 
     26  $t                         0x00000b60   Lc    1   --   De 
     27  $d                         0x00000bc4   Lc    1   --   De 
     28  $t                         0x00000bc8   Lc    1   --   De 
     29  $d                         0x00000c46   Lc    1   --   De 
     30  $t                         0x00000c6c   Lc    1   --   De 
     31  $d                         0x00000cba   Lc    1   --   De 
     32  $t                         0x00000cc0   Lc    1   --   De 
     33  $d                         0x00000d0e   Lc    1   --   De 
     34  $t                         0x00000d14   Lc    1   --   De 
     35  $d                         0x00000d3a   Lc    1   --   De 
     36  $t                         0x00000d40   Lc    1   --   De 
     37  $d                         0x00000d92   Lc    1   --   De 
     38  $t                         0x00000d98   Lc    1   --   De 
     39  $d                         0x00000ddc   Lc    1   --   De 
     40  $t                         0x00000de0   Lc    1   --   De 
     41  $d                         0x00000e56   Lc    1   --   De 
     42  $t                         0x00000e5e   Lc    1   --   De 
     43  $d                         0x0000105a   Lc    1   --   De 
     44  $t                         0x00001128   Lc    1   --   De 
     45  $d                         0x000011d2   Lc    1   --   De 
     46  $t                         0x000011d8   Lc    1   --   De 
     47  $d                         0x00001278   Lc    1   --   De 
     48  $t                         0x00001280   Lc    1   --   De 
     49  $d                         0x0000134c   Lc    1   --   De 
     50  $t                         0x00001354   Lc    1   --   De 
     51  $d                         0x000013fc   Lc    1   --   De 
     52  $t                         0x00001400   Lc    1   --   De 
     53  $d                         0x000014d2   Lc    1   --   De 
     54  $t                         0x000014da   Lc    1   --   De 
     55  $d                         0x0000158c   Lc    1   --   De 
     56  $t                         0x00001594   Lc    1   --   De 
     57  $d                         0x0000165c   Lc    1   --   De 
     58  $t                         0x00001660   Lc    1   --   De 
     59  $d                         0x0000169c   Lc    1   --   De 
     60  $t                         0x000016a0   Lc    1   --   De 
     61  $d                         0x000016dc   Lc    1   --   De 
     62  $t                         0x000016e0   Lc    1   --   De 
     63  $d                         0x00001750   Lc    1   --   De 
     64  $t                         0x00001754   Lc    1   --   De 
     65  $d                         0x000017f2   Lc    1   --   De 
     66  $t                         0x000017f8   Lc    1   --   De 
     67  $d                         0x000018da   Lc    1   --   De 
     68  $t                         0x000018e8   Lc    1   --   De 
     69  $d                         0x00001930   Lc    1   --   De 
     70  $t                         0x00001934   Lc    1   --   De 
     71  $d                         0x0000198a   Lc    1   --   De 
     72  $t                         0x00001990   Lc    1   --   De 
     73  $d                         0x000019c2   Lc    1   --   De 
     74  $t                         0x000019c8   Lc    1   --   De 
     75  $d                         0x00001a26   Lc    1   --   De 
     76  $t                         0x00001a2c   Lc    1   --   De 
     77  $d                         0x00001ab0   Lc    1   --   De 
     78  $t                         0x00001ab4   Lc    1   --   De 
     79  $d                         0x00001ac4   Lc    1   --   De 
     80  $t                         0x00001ac8   Lc    1   --   De 
     81  $d                         0x00001b0c   Lc    1   --   De 
     82  $t                         0x00001b10   Lc    1   --   De 
     83  $d                         0x00001b84   Lc    1   --   De 
     84  $t                         0x00001b88   Lc    1   --   De 
     85  $d                         0x00001bb4   Lc    1   --   De 
     86  $t                         0x00001bd0   Lc    1   --   De 
     87  $d                         0x00001d88   Lc    1   --   De 
     88  $t                         0x00001db0   Lc    1   --   De 
     89  $d                         0x00001fd8   Lc    1   --   De 
     90  $t                         0x00001fe8   Lc    1   --   De 
     91  $d                         0x0000206a   Lc    1   --   De 
     92  $t                         0x00002074   Lc    1   --   De 
     93  $d                         0x000020b6   Lc    1   --   De 
     94  $t                         0x000020ce   Lc    1   --   De 
     95  $d                         0x0000247a   Lc    1   --   De 
     96  $t                         0x00002488   Lc    1   --   De 
     97  $d                         0x00002880   Lc    1   --   De 
     98  $t                         0x0000289c   Lc    1   --   De 
     99  $d                         0x000029f2   Lc    1   --   De 
    100  $t                         0x000029fc   Lc    1   --   De 
    101  $d                         0x00002a74   Lc    1   --   De 
    102  $t                         0x00002a7c   Lc    1   --   De 
    103  $d                         0x00002cce   Lc    1   --   De 
    104  $t                         0x00002cdc   Lc    1   --   De 
    105  $d                         0x00002d3e   Lc    1   --   De 
    106  $t                         0x00002d48   Lc    1   --   De 
    107  $d                         0x00002dee   Lc    1   --   De 
    108  $t                         0x00002dfc   Lc    1   --   De 
    109  $d                         0x00002e4a   Lc    1   --   De 
    110  $t                         0x00002e54   Lc    1   --   De 
    111  $d                         0x00002e82   Lc    1   --   De 
    112  $t                         0x00002e88   Lc    1   --   De 
    113  $d                         0x00002ebe   Lc    1   --   De 
    114  $t                         0x00002ec4   Lc    1   --   De 
    115  $d                         0x00002ef8   Lc    1   --   De 
    116  $t                         0x00002efc   Lc    1   --   De 
    117  $d                         0x0000317e   Lc    1   --   De 
    118  $t                         0x00003188   Lc    1   --   De 
    119  $d                         0x000031ca   Lc    1   --   De 
    120  $t                         0x000031d0   Lc    1   --   De 
    121  $d                         0x0000332e   Lc    1   --   De 
    122  $t                         0x00003338   Lc    1   --   De 
    123  $d                         0x00003746   Lc    1   --   De 
    124  $t                         0x0000374c   Lc    1   --   De 
    125  $d                         0x000037b2   Lc    1   --   De 
    126  $t                         0x000037b8   Lc    1   --   De 
    127  $d                         0x000037fc   Lc    1   --   De 
    128  $t                         0x00003800   Lc    1   --   De 
    129  $d                         0x00003846   Lc    1   --   De 
    130  $t                         0x0000384c   Lc    1   --   De 
    131  $d                         0x0000385a   Lc    1   --   De 
    132  $t                         0x00003860   Lc    1   --   De 
    133  $d                         0x0000389e   Lc    1   --   De 
    134  $t                         0x000038a8   Lc    1   --   De 
    135  $d                         0x000038e4   Lc    1   --   De 
    136  $t                         0x000038f0   Lc    1   --   De 
    137  $d                         0x00003914   Lc    1   --   De 
    138  $t                         0x00003918   Lc    1   --   De 
    139  $d                         0x00003b0c   Lc    1   --   De 
    140  $t                         0x00003e18   Lc    1   --   De 
    141  $d                         0x00003e4a   Lc    1   --   De 
    142  $t                         0x00003e54   Lc    1   --   De 
    143  $d                         0x00003e5a   Lc    1   --   De 
    144  $t                         0x00003e60   Lc    1   --   De 
    145  $d                         0x00003e6a   Lc    1   --   De 
    146  $t                         0x00003e80   Lc    1   --   De 
    147  $d                         0x00004224   Lc    1   --   De 
    148  $t                         0x00004234   Lc    1   --   De 
    149  $d                         0x000043d0   Lc    1   --   De 
    150  $t                         0x000043f4   Lc    1   --   De 
    151  $d                         0x00004676   Lc    1   --   De 
    152  $t                         0x0000467c   Lc    1   --   De 
    153  $d                         0x000048e0   Lc    1   --   De 
    154  $t                         0x00004cb4   Lc    1   --   De 
    155  $d                         0x00004cd0   Lc    1   --   De 
    156  $t                         0x00004ce2   Lc    1   --   De 
    157  $d                         0x00005832   Lc    1   --   De 
    158  $t                         0x0000583c   Lc    1   --   De 
    159  $d                         0x000059a0   Lc    1   --   De 
    160  $t                         0x000059a4   Lc    1   --   De 
    161  $d                         0x00005a22   Lc    1   --   De 
    162  $t                         0x00005a26   Lc    1   --   De 
    163  $d.realdata                0x00005a64   Lc    1   --   De 
    164  $d.realdata                0x10000000   Lc    2   --   De 
    165  $d.realdata                0x10060000   Lc    4   --   De 
    166  ..\src\am_resources.c      0x00000000   Lc  Abs  File  De 
    167  ../src/am_resources.c      0x00000000   Lc  Abs  File  De 
    168  .constdata                 0x00005a64   Lc    1  Sect  De   0x6c
    169  __tagsym$$used             0x00005a64   Lc    1   --   De 
    170  __tagsym$$used             0x00005a78   Lc    1   --   De 
    171  __tagsym$$used             0x00005a8c   Lc    1   --   De 
    172  __tagsym$$used             0x00005aa0   Lc    1   --   De 
    173  __tagsym$$used             0x00005ab4   Lc    1   --   De 
    174  RESOURCE_TABLE             0x10060000   Lc    4  Sect  De   0x4
    175  __tagsym$$used             0x10060000   Lc    4   --   De 
    176  SHARED_RW                  0x10060004   Lc    4  Sect  De   0x3c
    177  __tagsym$$used             0x10060004   Lc    4   --   De 
    178  __tagsym$$used             0x10060018   Lc    4   --   De 
    179  __tagsym$$used             0x1006002c   Lc    4   --   De 
    180  ..\src\mspi_quad_example.c 0x00000000   Lc  Abs  File  De 
    181  .emb_text                  0x00000334   Lc    1  Sect  De   0x42
    182  $v0                        0x00000334   Lc    1   --   De 
    183  ../src/mspi_quad_example.c 0x00000000   Lc  Abs  File  De 
    184  i.am_mspi2_isr             0x000038f0   Lc    1  Sect  De 
    185  i.main                     0x0000467c   Lc    1  Sect  De 
    186  .bss                       0x100001a0   Lc    3  Sect  De   0x5400
    187  .constdata                 0x00005ad0   Lc    1  Sect  De   0x17
    188  mspi_interrupts            0x00005ae4   Lc    1  Data  De   0x3
    189  .data                      0x10000000   Lc    2  Sect  De   0x4c
    190  ..\..\..\..\..\..\utils\am_util_delay.c
                                    0x00000000   Lc  Abs  File  De 
    191  ../../../../../../utils/am_util_delay.c
                                    0x00000000   Lc  Abs  File  De 
    192  i.am_util_delay_ms         0x00003918   Lc    1  Sect  De 
    193  i.am_util_delay_us         0x0000392a   Lc    1  Sect  De 
    194  ..\..\..\..\..\..\utils\am_util_faultisr.c
                                    0x00000000   Lc  Abs  File  De 
    195  .emb_text                  0x00000378   Lc    1  Sect  De   0x22
    196  $v0                        0x00000378   Lc    1   --   De 
    197  ../../../../../../utils/am_util_faultisr.c
                                    0x00000000   Lc  Abs  File  De 
    198  i.am_util_faultisr_collect_data
                                    0x00003938   Lc    1  Sect  De 
    199  ../../../../../../utils/am_util_stdio.c
                                    0x00000000   Lc  Abs  File  De 
    200  i.am_util_stdio_printf     0x00003e18   Lc    1  Sect  De 
    201  i.am_util_stdio_printf_init
                                    0x00003e54   Lc    1  Sect  De 
    202  i.am_util_stdio_terminal_clear
                                    0x00003e60   Lc    1  Sect  De 
    203  i.am_util_stdio_vsprintf   0x00003e80   Lc    1  Sect  De 
    204  i.decstr_to_int            0x000043f4   Lc    1  Sect  De 
    205  decstr_to_int              0x000043f5   Lc    1  Code  De   0x42
    206  i.divu64_10                0x00004436   Lc    1  Sect  De 
    207  divu64_10                  0x00004437   Lc    1  Code  De   0xcc
    208  i.ftoa                     0x00004504   Lc    1  Sect  De 
    209  ftoa                       0x00004505   Lc    1  Code  De   0x172
    210  i.ndigits_in_hex           0x00005642   Lc    1  Sect  De 
    211  ndigits_in_hex             0x00005643   Lc    1  Code  De   0x34
    212  i.ndigits_in_i64           0x00005676   Lc    1  Sect  De 
    213  ndigits_in_i64             0x00005677   Lc    1  Code  De   0x24
    214  i.ndigits_in_u64           0x0000569a   Lc    1  Sect  De 
    215  ndigits_in_u64             0x0000569b   Lc    1  Code  De   0x3a
    216  i.padbuffer                0x000056d4   Lc    1  Sect  De 
    217  padbuffer                  0x000056d5   Lc    1  Code  De   0x22
    218  i.simple_strlen            0x0000583c   Lc    1  Sect  De 
    219  simple_strlen              0x0000583d   Lc    1  Code  De   0x18
    220  i.uint64_to_hexstr         0x00005854   Lc    1  Sect  De 
    221  uint64_to_hexstr           0x00005855   Lc    1  Code  De   0x8a
    222  i.uint64_to_str            0x000058de   Lc    1  Sect  De 
    223  uint64_to_str              0x000058df   Lc    1  Code  De   0x70
    224  .bss                       0x100055a0   Lc    3  Sect  De   0x100
    225  g_prfbuf                   0x100055a0   Lc    3  Data  De   0x100
    226  .data                      0x1000004c   Lc    2  Sect  De   0x5
    227  g_bTxtXlate                0x10000050   Lc    2  Data  De   0x1
    228  ..\..\..\..\..\..\devices\am_devices_mspi_atxp032.c
                                    0x00000000   Lc  Abs  File  De 
    229  ../../../../../../devices/am_devices_mspi_atxp032.c
                                    0x00000000   Lc  Abs  File  De 
    230  i.am_device_deinit_flash   0x000009e8   Lc    1  Sect  De 
    231  am_device_deinit_flash     0x000009e9   Lc    1  Code  De   0x56
    232  i.am_device_init_flash     0x00000a3e   Lc    1  Sect  De 
    233  am_device_init_flash       0x00000a3f   Lc    1  Code  De   0xb6
    234  i.am_devices_mspi_atxp032_command_read
                                    0x00000af4   Lc    1  Sect  De 
    235  am_devices_mspi_atxp032_command_read
                                    0x00000af5   Lc    1  Code  De   0x66
    236  i.am_devices_mspi_atxp032_command_write
                                    0x00000b60   Lc    1  Sect  De 
    237  am_devices_mspi_atxp032_command_write
                                    0x00000b61   Lc    1  Code  De   0x64
    238  i.am_devices_mspi_atxp032_deinit
                                    0x00000bc8   Lc    1  Sect  De 
    239  i.am_devices_mspi_atxp032_disable_scrambling
                                    0x00000c6c   Lc    1  Sect  De 
    240  i.am_devices_mspi_atxp032_disable_xip
                                    0x00000cc0   Lc    1  Sect  De 
    241  i.am_devices_mspi_atxp032_enable_scrambling
                                    0x00000d14   Lc    1  Sect  De 
    242  i.am_devices_mspi_atxp032_enable_xip
                                    0x00000d40   Lc    1  Sect  De 
    243  i.am_devices_mspi_atxp032_id
                                    0x00000d98   Lc    1  Sect  De 
    244  i.am_devices_mspi_atxp032_init
                                    0x00000de0   Lc    1  Sect  De 
    245  i.am_devices_mspi_atxp032_mass_erase
                                    0x00001128   Lc    1  Sect  De 
    246  i.am_devices_mspi_atxp032_read
                                    0x000011d8   Lc    1  Sect  De 
    247  i.am_devices_mspi_atxp032_reset
                                    0x00001280   Lc    1  Sect  De 
    248  i.am_devices_mspi_atxp032_sector_erase
                                    0x000012b0   Lc    1  Sect  De 
    249  i.am_devices_mspi_atxp032_write
                                    0x00001400   Lc    1  Sect  De 
    250  i.pfnMSPI_ATXP032_Callback 0x000056f6   Lc    1  Sect  De 
    251  pfnMSPI_ATXP032_Callback   0x000056f7   Lc    1  Code  De   0x6
    252  .bss                       0x100056a0   Lc    3  Sect  De   0x2c
    253  .data                      0x10000054   Lc    2  Sect  De   0xe4
    254  ../keil/startup_keil.s     0x00000000   Lc  Abs  File  De 
    255  STACK                      0x10007368   Lc    3  Sect  De   0x1000
    256  StackMem                   0x10007368   Lc    3  Data  De 
    257  HEAP                       0x10007368   Lc    3  Sect  De 
    258  HeapMem                    0x10007368   Lc    3  Data  De 
    259  RESET                      0x00000000   Lc    1  Sect  De   0x238
    260  $v0                        0x00000200   Lc    1   --   De 
    261  am_cryptosec_isr           0x00000231   Lc    1  Code  De 
    262  am_default_isr             0x00000231   Lc    1  Code  De   0x2
    263  .text                      0x000003b4   Lc    1  Sect  De   0x18
    264  $v0                        0x000003b4   Lc    1   --   De 
    265  ..\..\..\..\..\mcu\apollo4\hal\am_hal_global.c
                                    0x00000000   Lc  Abs  File  De 
    266  ../../../../../mcu/apollo4/hal/am_hal_global.c
                                    0x00000000   Lc  Abs  File  De 
    267  .data                      0x10000138   Lc    2  Sect  De   0x4
    268  ..\..\..\..\..\mcu\apollo4\hal\mcu\am_hal_fault.c
                                    0x00000000   Lc  Abs  File  De 
    269  ../../../../../mcu/apollo4/hal/mcu/am_hal_fault.c
                                    0x00000000   Lc  Abs  File  De 
    270  i.am_hal_fault_capture_enable
                                    0x00001b10   Lc    1  Sect  De 
    271  i.am_hal_fault_status_get  0x00001b22   Lc    1  Sect  De 
    272  ..\..\..\..\..\mcu\apollo4\hal\mcu\am_hal_interrupt.c
                                    0x00000000   Lc  Abs  File  De 
    273  .emb_text                  0x0000039c   Lc    1  Sect  De   0x16
    274  $v0                        0x0000039c   Lc    1   --   De 
    275  ../../../../../mcu/apollo4/hal/mcu/am_hal_interrupt.c
                                    0x00000000   Lc  Abs  File  De 
    276  ..\..\..\..\..\mcu\apollo4\hal\mcu\am_hal_mspi.c
                                    0x00000000   Lc  Abs  File  De 
    277  ../../../../../mcu/apollo4/hal/mcu/am_hal_mspi.c
                                    0x00000000   Lc  Abs  File  De 
    278  i.am_hal_mspi_blocking_transfer
                                    0x00001db0   Lc    1  Sect  De 
    279  i.am_hal_mspi_configure    0x00001fe8   Lc    1  Sect  De 
    280  i.am_hal_mspi_control      0x00002074   Lc    1  Sect  De 
    281  i.am_hal_mspi_deinitialize 0x000029fc   Lc    1  Sect  De 
    282  i.am_hal_mspi_device_configure
                                    0x00002a7c   Lc    1  Sect  De 
    283  i.am_hal_mspi_disable      0x00002cdc   Lc    1  Sect  De 
    284  i.am_hal_mspi_enable       0x00002d48   Lc    1  Sect  De 
    285  i.am_hal_mspi_initialize   0x00002dfc   Lc    1  Sect  De 
    286  i.am_hal_mspi_interrupt_clear
                                    0x00002e54   Lc    1  Sect  De 
    287  i.am_hal_mspi_interrupt_disable
                                    0x00002e88   Lc    1  Sect  De 
    288  i.am_hal_mspi_interrupt_enable
                                    0x00002ec4   Lc    1  Sect  De 
    289  i.am_hal_mspi_interrupt_service
                                    0x00002efc   Lc    1  Sect  De 
    290  i.am_hal_mspi_interrupt_status_get
                                    0x00003188   Lc    1  Sect  De 
    291  i.am_hal_mspi_nonblocking_transfer
                                    0x000031d0   Lc    1  Sect  De 
    292  i.am_hal_mspi_power_control
                                    0x00003338   Lc    1  Sect  De 
    293  i.build_dma_cmdlist        0x00004234   Lc    1  Sect  De 
    294  i.mspi_device_configure    0x00004cb4   Lc    1  Sect  De 
    295  mspi_device_configure      0x00004cb5   Lc    1  Code  De   0x966
    296  i.mspi_dummy_callback      0x0000561a   Lc    1  Sect  De 
    297  mspi_dummy_callback        0x0000561b   Lc    1  Code  De   0x2
    298  i.mspi_seq_loopback        0x0000561c   Lc    1  Sect  De 
    299  mspi_seq_loopback          0x0000561d   Lc    1  Code  De   0x26
    300  i.sched_hiprio             0x000056fc   Lc    1  Sect  De 
    301  sched_hiprio               0x000056fd   Lc    1  Code  De   0x136
    302  .bss                       0x100056cc   Lc    3  Sect  De   0x1a58
    303  ..\..\..\..\..\mcu\apollo4\hal\mcu\am_hal_sysctrl.c
                                    0x00000000   Lc  Abs  File  De 
    304  ../../../../../mcu/apollo4/hal/mcu/am_hal_sysctrl.c
                                    0x00000000   Lc  Abs  File  De 
    305  i.am_hal_sysctrl_sleep     0x00003860   Lc    1  Sect  De 
    306  ..\..\..\..\..\mcu\apollo4\hal\mcu\am_hal_utils.c
                                    0x00000000   Lc  Abs  File  De 
    307  ../../../../../mcu/apollo4/hal/mcu/am_hal_utils.c
                                    0x00000000   Lc  Abs  File  De 
    308  i.am_hal_delay_us          0x00001ab4   Lc    1  Sect  De 
    309  i.am_hal_delay_us_status_check
                                    0x00001ac8   Lc    1  Sect  De 
    310  ..\am_bsp.c                0x00000000   Lc  Abs  File  De 
    311  ../am_bsp.c                0x00000000   Lc  Abs  File  De 
    312  i.am_bsp_itm_printf_enable 0x00000584   Lc    1  Sect  De 
    313  i.am_bsp_low_power_init    0x000005bc   Lc    1  Sect  De 
    314  i.am_bsp_mspi_pins_enable  0x000005cc   Lc    1  Sect  De 
    315  .data                      0x1000013c   Lc    2  Sect  De   0x8
    316  g_ePrintInterface          0x1000013c   Lc    2  Data  De   0x1
    317  g_sCOMUART                 0x10000140   Lc    2  Data  De   0x4
    318  ..\..\..\..\..\mcu\apollo4\hal\mcu\am_hal_bootrom_helper.c
                                    0x00000000   Lc  Abs  File  De 
    319  ../../../../../mcu/apollo4/hal/mcu/am_hal_bootrom_helper.c
                                    0x00000000   Lc  Abs  File  De 
    320  .constdata                 0x00005ae8   Lc    1  Sect  De   0x28
    321  ..\..\..\..\..\mcu\apollo4\hal\mcu\am_hal_cmdq.c
                                    0x00000000   Lc  Abs  File  De 
    322  ../../../../../mcu/apollo4/hal/mcu/am_hal_cmdq.c
                                    0x00000000   Lc  Abs  File  De 
    323  i.am_hal_cmdq_alloc_block  0x00001594   Lc    1  Sect  De 
    324  i.am_hal_cmdq_disable      0x00001660   Lc    1  Sect  De 
    325  i.am_hal_cmdq_enable       0x000016a0   Lc    1  Sect  De 
    326  i.am_hal_cmdq_error_resume 0x000016e0   Lc    1  Sect  De 
    327  i.am_hal_cmdq_get_status   0x00001754   Lc    1  Sect  De 
    328  i.am_hal_cmdq_init         0x000017f8   Lc    1  Sect  De 
    329  i.am_hal_cmdq_post_block   0x000018e8   Lc    1  Sect  De 
    330  i.am_hal_cmdq_post_loop_block
                                    0x00001934   Lc    1  Sect  De 
    331  i.am_hal_cmdq_release_block
                                    0x00001990   Lc    1  Sect  De 
    332  i.am_hal_cmdq_reset        0x000019c8   Lc    1  Sect  De 
    333  i.am_hal_cmdq_term         0x00001a2c   Lc    1  Sect  De 
    334  .bss                       0x10007124   Lc    3  Sect  De   0x1e4
    335  gAmHalCmdq                 0x10007124   Lc    3  Data  De   0x1e4
    336  .constdata                 0x00005b10   Lc    1  Sect  De   0x1b8
    337  gAmHalCmdQReg              0x00005b10   Lc    1  Data  De   0x1b8
    338  ..\..\..\..\..\mcu\apollo4\hal\mcu\am_hal_itm.c
                                    0x00000000   Lc  Abs  File  De 
    339  ../../../../../mcu/apollo4/hal/mcu/am_hal_itm.c
                                    0x00000000   Lc  Abs  File  De 
    340  i.am_hal_itm_enable        0x00001b88   Lc    1  Sect  De 
    341  i.am_hal_itm_print         0x00001bd0   Lc    1  Sect  De 
    342  ..\..\..\..\..\mcu\apollo4\hal\mcu\am_hal_rtc.c
                                    0x00000000   Lc  Abs  File  De 
    343  ../../../../../mcu/apollo4/hal/mcu/am_hal_rtc.c
                                    0x00000000   Lc  Abs  File  De 
    344  i.am_hal_rtc_osc_disable   0x0000384c   Lc    1  Sect  De 
    345  ..\..\..\..\..\mcu\apollo4\hal\mcu\am_hal_tpiu.c
                                    0x00000000   Lc  Abs  File  De 
    346  ../../../../../mcu/apollo4/hal/mcu/am_hal_tpiu.c
                                    0x00000000   Lc  Abs  File  De 
    347  i.am_hal_tpiu_enable       0x000038a8   Lc    1  Sect  De 
    348  ..\..\..\..\..\mcu\apollo4\hal\mcu\am_hal_uart.c
                                    0x00000000   Lc  Abs  File  De 
    349  ../../../../../mcu/apollo4/hal/mcu/am_hal_uart.c
                                    0x00000000   Lc  Abs  File  De 
    350  ..\..\..\..\..\mcu\apollo4\hal\am_hal_gpio.c
                                    0x00000000   Lc  Abs  File  De 
    351  ../../../../../mcu/apollo4/hal/am_hal_gpio.c
                                    0x00000000   Lc  Abs  File  De 
    352  i.am_hal_gpio_pinconfig    0x00001b60   Lc    1  Sect  De 
    353  ..\..\..\..\..\mcu\apollo4\hal\am_hal_pwrctrl.c
                                    0x00000000   Lc  Abs  File  De 
    354  ../../../../../mcu/apollo4/hal/am_hal_pwrctrl.c
                                    0x00000000   Lc  Abs  File  De 
    355  i.am_hal_pwrctrl_low_power_init
                                    0x00003798   Lc    1  Sect  De 
    356  i.am_hal_pwrctrl_periph_disable
                                    0x000037b8   Lc    1  Sect  De 
    357  i.am_hal_pwrctrl_periph_enable
                                    0x00003800   Lc    1  Sect  De 
    358  .constdata                 0x00005cc8   Lc    1  Sect  De   0x270
    359  ..\am_bsp_pins.c           0x00000000   Lc  Abs  File  De 
    360  ../am_bsp_pins.c           0x00000000   Lc  Abs  File  De 
    361  .data                      0x10000144   Lc    2  Sect  De   0x4
    362  .data                      0x10000148   Lc    2  Sect  De   0x4
    363  .data                      0x1000014c   Lc    2  Sect  De   0x4
    364  .data                      0x10000150   Lc    2  Sect  De   0x4
    365  .data                      0x10000154   Lc    2  Sect  De   0x4
    366  .data                      0x10000158   Lc    2  Sect  De   0x4
    367  .data                      0x1000015c   Lc    2  Sect  De   0x4
    368  .data                      0x10000160   Lc    2  Sect  De   0x4
    369  .data                      0x10000164   Lc    2  Sect  De   0x4
    370  .data                      0x10000168   Lc    2  Sect  De   0x4
    371  .data                      0x1000016c   Lc    2  Sect  De   0x4
    372  .data                      0x10000170   Lc    2  Sect  De   0x4
    373  .data                      0x10000174   Lc    2  Sect  De   0x4
    374  .data                      0x10000178   Lc    2  Sect  De   0x4
    375  .data                      0x1000017c   Lc    2  Sect  De   0x4
    376  .data                      0x10000180   Lc    2  Sect  De   0x4
    377  .data                      0x10000184   Lc    2  Sect  De   0x4
    378  .data                      0x10000188   Lc    2  Sect  De   0x4
    379  .data                      0x1000018c   Lc    2  Sect  De   0x4
    380  .data                      0x10000190   Lc    2  Sect  De   0x4
    381  .data                      0x10000194   Lc    2  Sect  De   0x4
    382  .data                      0x10000198   Lc    2  Sect  De   0x4
    383  .data                      0x1000019c   Lc    2  Sect  De   0x4
    384  ..\..\..\..\..\mcu\apollo4\hal\mcu\am_hal_mcuctrl.c
                                    0x00000000   Lc  Abs  File  De 
    385  ../../../../../mcu/apollo4/hal/mcu/am_hal_mcuctrl.c
                                    0x00000000   Lc  Abs  File  De 
    386  i.am_hal_mcuctrl_info_get  0x00001c00   Lc    1  Sect  De 
    387  .constdata                 0x00005f38   Lc    1  Sect  De   0x1c
    388  ..\..\..\..\..\mcu\apollo4\hal\am_hal_pin.c
                                    0x00000000   Lc  Abs  File  De 
    389  ../../../../../mcu/apollo4/hal/am_hal_pin.c
                                    0x00000000   Lc  Abs  File  De 
    390  ..\..\..\..\..\mcu\apollo4\hal\am_hal_queue.c
                                    0x00000000   Lc  Abs  File  De 
    391  ../../../../../mcu/apollo4/hal/am_hal_queue.c
                                    0x00000000   Lc  Abs  File  De 
    392  dc.s                       0x00000000   Lc  Abs  File  De 
    393  ../clib/memcpset.s         0x00000000   Lc  Abs  File  De 
    394  .text                      0x000003cc   Lc    1  Sect  De   0x8a
    395  ../clib/memcpset.s         0x00000000   Lc  Abs  File  De 
    396  .text                      0x00000456   Lc    1  Sect  De   0x4e
    397  ../clib/heapaux.c          0x00000000   Lc  Abs  File  De 
    398  .text                      0x000004a4   Lc    1  Sect  De 
    399  ../clib/angel/startup.s    0x00000000   Lc  Abs  File  De 
    400  !!!main                    0x00000238   Lc    1  Sect  De   0x8
    401  ../clib/angel/handlers.s   0x00000000   Lc  Abs  File  De 
    402  !!handler_copy             0x000002d0   Lc    1  Sect  De   0x1a
    403  ../fplib/d2f.s             0x00000000   Lc  Abs  File  De 
    404  x$fpl$d2f                  0x00005950   Lc    1  Sect  De   0x62
    405  $v0                        0x00005950   Lc    1   --   De 
    406  ../clib/angel/kernel.s     0x00000000   Lc  Abs  File  De 
    407  .ARM.Collect$$rtentry$$00000000
                                    0x00000314   Lc    1  Sect  De 
    408  ../clib/memcpset.s         0x00000000   Lc  Abs  File  De 
    409  .text                      0x000004aa   Lc    1  Sect  De   0x64
    410  ../fplib/dnaninf.s         0x00000000   Lc  Abs  File  De 
    411  x$fpl$dnaninf              0x000059b2   Lc    1  Sect  De   0x9c
    412  $v0                        0x000059b2   Lc    1   --   De 
    413  ../fplib/fretinf.s         0x00000000   Lc  Abs  File  De 
    414  x$fpl$fretinf              0x00005a58   Lc    1  Sect  De   0xa
    415  $v0                        0x00005a58   Lc    1   --   De 
    416  ../fplib/usenofp.s         0x00000000   Lc  Abs  File  De 
    417  x$fpl$usenofp              0x00005a62   Lc    1  Sect  De 
    418  ../clib/angel/kernel.s     0x00000000   Lc  Abs  File  De 
    419  .ARM.Collect$$rtentry$$00000002
                                    0x00000314   Lc    1  Sect  De 
    420  .ARM.Collect$$rtentry$$00000009
                                    0x0000031a   Lc    1  Sect  De 
    421  .ARM.Collect$$rtentry$$0000000A
                                    0x0000031a   Lc    1  Sect  De   0x4
    422  .ARM.Collect$$rtentry$$0000000C
                                    0x0000031e   Lc    1  Sect  De 
    423  .ARM.Collect$$rtentry$$0000000D
                                    0x0000031e   Lc    1  Sect  De   0x8
    424  ../clib/angel/kernel.s     0x00000000   Lc  Abs  File  De 
    425  .ARM.Collect$$rtentry$$00000004
                                    0x00000314   Lc    1  Sect  De   0x6
    426  ../clib/angel/sys.s        0x00000000   Lc  Abs  File  De 
    427  .text                      0x0000050e   Lc    1  Sect  De   0x4a
    428  ../clib/stdlib.c           0x00000000   Lc  Abs  File  De 
    429  .text                      0x00000558   Lc    1  Sect  De 
    430  ../clib/angel/boardlib.s   0x00000000   Lc  Abs  File  De 
    431  ../clib/angel/boardlib.s   0x00000000   Lc  Abs  File  De 
    432  ../clib/angel/boardlib.s   0x00000000   Lc  Abs  File  De 
    433  ../clib/libinit.s          0x00000000   Lc  Abs  File  De 
    434  .ARM.Collect$$libinit$$00000000
                                    0x00000308   Lc    1  Sect  De   0x2
    435  ../clib/angel/sys.s        0x00000000   Lc  Abs  File  De 
    436  .text                      0x0000056c   Lc    1  Sect  De   0x8
    437  .bss                       0x10007308   Lc    3  Sect  De   0x60
    438  ../clib/angel/kernel.s     0x00000000   Lc  Abs  File  De 
    439  .ARM.Collect$$rtexit$$00000000
                                    0x00000326   Lc    1  Sect  De   0x2
    440  ../clib/libinit.s          0x00000000   Lc  Abs  File  De 
    441  .ARM.Collect$$libinit$$00000001
                                    0x0000030a   Lc    1  Sect  De   0x4
    442  .ARM.Collect$$libinit$$00000004
                                    0x0000030e   Lc    1  Sect  De 
    443  .ARM.Collect$$libinit$$0000000A
                                    0x0000030e   Lc    1  Sect  De 
    444  .ARM.Collect$$libinit$$0000000C
                                    0x0000030e   Lc    1  Sect  De 
    445  .ARM.Collect$$libinit$$0000000E
                                    0x0000030e   Lc    1  Sect  De 
    446  .ARM.Collect$$libinit$$00000011
                                    0x0000030e   Lc    1  Sect  De 
    447  .ARM.Collect$$libinit$$00000013
                                    0x0000030e   Lc    1  Sect  De 
    448  .ARM.Collect$$libinit$$00000015
                                    0x0000030e   Lc    1  Sect  De 
    449  .ARM.Collect$$libinit$$00000017
                                    0x0000030e   Lc    1  Sect  De 
    450  .ARM.Collect$$libinit$$00000019
                                    0x0000030e   Lc    1  Sect  De 
    451  .ARM.Collect$$libinit$$0000001B
                                    0x0000030e   Lc    1  Sect  De 
    452  .ARM.Collect$$libinit$$0000001D
                                    0x0000030e   Lc    1  Sect  De 
    453  .ARM.Collect$$libinit$$0000001F
                                    0x0000030e   Lc    1  Sect  De 
    454  .ARM.Collect$$libinit$$00000021
                                    0x0000030e   Lc    1  Sect  De 
    455  .ARM.Collect$$libinit$$00000023
                                    0x0000030e   Lc    1  Sect  De 
    456  .ARM.Collect$$libinit$$00000025
                                    0x0000030e   Lc    1  Sect  De 
    457  .ARM.Collect$$libinit$$0000002C
                                    0x0000030e   Lc    1  Sect  De 
    458  .ARM.Collect$$libinit$$0000002E
                                    0x0000030e   Lc    1  Sect  De 
    459  .ARM.Collect$$libinit$$00000030
                                    0x0000030e   Lc    1  Sect  De 
    460  .ARM.Collect$$libinit$$00000032
                                    0x0000030e   Lc    1  Sect  De 
    461  .ARM.Collect$$libinit$$00000033
                                    0x0000030e   Lc    1  Sect  De   0x2
    462  ../clib/angel/kernel.s     0x00000000   Lc  Abs  File  De 
    463  .ARM.Collect$$rtexit$$00000002
                                    0x00000328   Lc    1  Sect  De 
    464  .ARM.Collect$$rtexit$$00000003
                                    0x00000328   Lc    1  Sect  De   0x4
    465  .ARM.Collect$$rtexit$$00000004
                                    0x0000032c   Lc    1  Sect  De   0x6
    466  ../clib/armsys.c           0x00000000   Lc  Abs  File  De 
    467  ../clib/armsys.c           0x00000000   Lc  Abs  File  De 
    468  ../fplib/fpinit.s          0x00000000   Lc  Abs  File  De 
    469  x$fpl$fpinit               0x00005a4e   Lc    1  Sect  De   0xa
    470  $v0                        0x00005a4e   Lc    1   --   De 
    471  ../clib/angel/sysapp.c     0x00000000   Lc  Abs  File  De 
    472  .text                      0x00000574   Lc    1  Sect  De 
    473  ../clib/angel/boardlib.s   0x00000000   Lc  Abs  File  De 
    474  ../clib/armsys.c           0x00000000   Lc  Abs  File  De 
    475  ../clib/armsys.c           0x00000000   Lc  Abs  File  De 
    476  ../clib/libinit.s          0x00000000   Lc  Abs  File  De 
    477  .ARM.Collect$$libshutdown$$00000000
                                    0x00000310   Lc    1  Sect  De   0x2
    478  ../clib/angel/sysapp.c     0x00000000   Lc  Abs  File  De 
    479  ../clib/angel/sys.s        0x00000000   Lc  Abs  File  De 
    480  .text                      0x00000580   Lc    1  Sect  De   0x2
    481  ../clib/angel/sys.s        0x00000000   Lc  Abs  File  De 
    482  .text                      0x00000582   Lc    1  Sect  De 
    483  ../clib/heapalloc.c        0x00000000   Lc  Abs  File  De 
    484  ../clib/signal.c           0x00000000   Lc  Abs  File  De 
    485  ../clib/signal.c           0x00000000   Lc  Abs  File  De 
    486  ../clib/libinit.s          0x00000000   Lc  Abs  File  De 
    487  .ARM.Collect$$libshutdown$$00000002
                                    0x00000312   Lc    1  Sect  De 
    488  .ARM.Collect$$libshutdown$$00000004
                                    0x00000312   Lc    1  Sect  De 
    489  .ARM.Collect$$libshutdown$$00000007
                                    0x00000312   Lc    1  Sect  De 
    490  .ARM.Collect$$libshutdown$$0000000A
                                    0x00000312   Lc    1  Sect  De 
    491  .ARM.Collect$$libshutdown$$0000000C
                                    0x00000312   Lc    1  Sect  De 
    492  .ARM.Collect$$libshutdown$$0000000F
                                    0x00000312   Lc    1  Sect  De 
    493  .ARM.Collect$$libshutdown$$00000010
                                    0x00000312   Lc    1  Sect  De   0x2
    494  ../clib/angel/rt.s         0x00000000   Lc  Abs  File  De 
    495  ../clib/signal.c           0x00000000   Lc  Abs  File  De 
    496  ../clib/signal.c           0x00000000   Lc  Abs  File  De 
    497  ../clib/signal.c           0x00000000   Lc  Abs  File  De 
    498  ../clib/signal.c           0x00000000   Lc  Abs  File  De 
    499  ../clib/angel/sysapp.c     0x00000000   Lc  Abs  File  De 
    500  ../clib/signal.s           0x00000000   Lc  Abs  File  De 
    501  ../clib/signal.c           0x00000000   Lc  Abs  File  De 
    502  ../clib/signal.c           0x00000000   Lc  Abs  File  De 
    503  ../clib/signal.c           0x00000000   Lc  Abs  File  De 
    504  ../clib/signal.c           0x00000000   Lc  Abs  File  De 
    505  ../clib/signal.c           0x00000000   Lc  Abs  File  De 
    506  ../clib/signal.c           0x00000000   Lc  Abs  File  De 
    507  ../clib/signal.c           0x00000000   Lc  Abs  File  De 
    508  ../clib/signal.c           0x00000000   Lc  Abs  File  De 
    509  ../clib/angel/dczerorl2.s  0x00000000   Lc  Abs  File  De 
    510  !!dczerorl2                0x00000274   Lc    1  Sect  De   0x5a
    511  ../clib/angel/scatter.s    0x00000000   Lc  Abs  File  De 
    512  !!!scatter                 0x00000240   Lc    1  Sect  De   0x34
    513  ../clib/angel/handlers.s   0x00000000   Lc  Abs  File  De 
    514  !!handler_zi               0x000002ec   Lc    1  Sect  De   0x1c
    515  BuildAttributes$$THM_ISAv4$E$P$D$K$B$S$7EM$VFPi3$EXTD16$VFPS$VFMA$PE$A:L22UL41UL21$X:L11$S22US41US21$IEEE1$IW$USESV6$~STKCKD$USESV7$~SHL$OTIME$ROPI$EBA8$UX$STANDARDLIB$REQ8$PRES8$EABIv2
                                    0x00000000   Gb  Abs   --   Hi 
    516  __ARM_use_no_argv          0x00000000   Gb  Abs   --   Hi 
    517  __Vectors                  0x00000000   Gb    1  Data  Hi 
    518  __Patchable                0x00000190   Gb    1  Data  Hi 
    519  Reset_Handler              0x00000201   Wk    1  Code  Hi   0x1c
    520  NMI_Handler                0x0000021f   Wk    1  Code  Hi   0x2
    521  MemManage_Handler          0x00000221   Wk    1  Code  Hi   0x2
    522  BusFault_Handler           0x00000223   Wk    1  Code  Hi   0x2
    523  UsageFault_Handler         0x00000225   Wk    1  Code  Hi   0x2
    524  SecureFault_Handler        0x00000227   Wk    1  Code  Hi   0x2
    525  SVC_Handler                0x00000229   Wk    1  Code  Hi   0x2
    526  DebugMon_Handler           0x0000022b   Wk    1  Code  Hi   0x2
    527  PendSV_Handler             0x0000022d   Wk    1  Code  Hi   0x2
    528  SysTick_Handler            0x0000022f   Wk    1  Code  Hi   0x2
    529  am_adc_isr                 0x00000231   Wk    1  Code  Hi 
    530  am_audadc0_isr             0x00000231   Wk    1  Code  Hi 
    531  am_brownout_isr            0x00000231   Wk    1  Code  Hi 
    532  am_cachecpu_isr            0x00000231   Wk    1  Code  Hi 
    533  am_clkgen_isr              0x00000231   Wk    1  Code  Hi 
    534  am_cpucpumb_isr            0x00000231   Wk    1  Code  Hi 
    535  am_ctimer_isr              0x00000231   Wk    1  Code  Hi 
    536  am_disp_isr                0x00000231   Wk    1  Code  Hi 
    537  am_dsi_isr                 0x00000231   Wk    1  Code  Hi 
    538  am_dsp0cpumb_isr           0x00000231   Wk    1  Code  Hi 
    539  am_dsp0idamtrigout_isr     0x00000231   Wk    1  Code  Hi 
    540  am_dsp1cpumb_isr           0x00000231   Wk    1  Code  Hi 
    541  am_dsp1idamtrigout_isr     0x00000231   Wk    1  Code  Hi 
    542  am_dspi2s0_isr             0x00000231   Wk    1  Code  Hi 
    543  am_dspi2s1_isr             0x00000231   Wk    1  Code  Hi 
    544  am_dspi2s2_isr             0x00000231   Wk    1  Code  Hi 
    545  am_dspi2s3_isr             0x00000231   Wk    1  Code  Hi 
    546  am_gpio0_001f_isr          0x00000231   Wk    1  Code  Hi 
    547  am_gpio0_203f_isr          0x00000231   Wk    1  Code  Hi 
    548  am_gpio0_405f_isr          0x00000231   Wk    1  Code  Hi 
    549  am_gpio0_607f_isr          0x00000231   Wk    1  Code  Hi 
    550  am_gpio1_001f_isr          0x00000231   Wk    1  Code  Hi 
    551  am_gpio1_203f_isr          0x00000231   Wk    1  Code  Hi 
    552  am_gpio1_405f_isr          0x00000231   Wk    1  Code  Hi 
    553  am_gpio1_607f_isr          0x00000231   Wk    1  Code  Hi 
    554  am_gpu_isr                 0x00000231   Wk    1  Code  Hi 
    555  am_iomaster0_isr           0x00000231   Wk    1  Code  Hi 
    556  am_iomaster1_isr           0x00000231   Wk    1  Code  Hi 
    557  am_iomaster2_isr           0x00000231   Wk    1  Code  Hi 
    558  am_iomaster3_isr           0x00000231   Wk    1  Code  Hi 
    559  am_iomaster4_isr           0x00000231   Wk    1  Code  Hi 
    560  am_iomaster5_isr           0x00000231   Wk    1  Code  Hi 
    561  am_iomaster6_isr           0x00000231   Wk    1  Code  Hi 
    562  am_iomaster7_isr           0x00000231   Wk    1  Code  Hi 
    563  am_ioslave_acc_isr         0x00000231   Wk    1  Code  Hi 
    564  am_ioslave_ios_isr         0x00000231   Wk    1  Code  Hi 
    565  am_memcpy0_isr             0x00000231   Wk    1  Code  Hi 
    566  am_mspi0_isr               0x00000231   Wk    1  Code  Hi 
    567  am_mspi1_isr               0x00000231   Wk    1  Code  Hi 
    568  am_pdm0_isr                0x00000231   Wk    1  Code  Hi 
    569  am_pdm1_isr                0x00000231   Wk    1  Code  Hi 
    570  am_pdm2_isr                0x00000231   Wk    1  Code  Hi 
    571  am_pdm3_isr                0x00000231   Wk    1  Code  Hi 
    572  am_rtc_isr                 0x00000231   Wk    1  Code  Hi 
    573  am_sdio_isr                0x00000231   Wk    1  Code  Hi 
    574  am_stimer_cmpr0_isr        0x00000231   Wk    1  Code  Hi 
    575  am_stimer_cmpr1_isr        0x00000231   Wk    1  Code  Hi 
    576  am_stimer_cmpr2_isr        0x00000231   Wk    1  Code  Hi 
    577  am_stimer_cmpr3_isr        0x00000231   Wk    1  Code  Hi 
    578  am_stimer_cmpr4_isr        0x00000231   Wk    1  Code  Hi 
    579  am_stimer_cmpr5_isr        0x00000231   Wk    1  Code  Hi 
    580  am_stimer_cmpr6_isr        0x00000231   Wk    1  Code  Hi 
    581  am_stimer_cmpr7_isr        0x00000231   Wk    1  Code  Hi 
    582  am_stimerof_isr            0x00000231   Wk    1  Code  Hi 
    583  am_timer00_isr             0x00000231   Wk    1  Code  Hi 
    584  am_timer01_isr             0x00000231   Wk    1  Code  Hi 
    585  am_timer02_isr             0x00000231   Wk    1  Code  Hi 
    586  am_timer03_isr             0x00000231   Wk    1  Code  Hi 
    587  am_timer04_isr             0x00000231   Wk    1  Code  Hi 
    588  am_timer05_isr             0x00000231   Wk    1  Code  Hi 
    589  am_timer06_isr             0x00000231   Wk    1  Code  Hi 
    590  am_timer07_isr             0x00000231   Wk    1  Code  Hi 
    591  am_timer08_isr             0x00000231   Wk    1  Code  Hi 
    592  am_timer09_isr             0x00000231   Wk    1  Code  Hi 
    593  am_timer10_isr             0x00000231   Wk    1  Code  Hi 
    594  am_timer11_isr             0x00000231   Wk    1  Code  Hi 
    595  am_timer12_isr             0x00000231   Wk    1  Code  Hi 
    596  am_timer13_isr             0x00000231   Wk    1  Code  Hi 
    597  am_timer14_isr             0x00000231   Wk    1  Code  Hi 
    598  am_timer15_isr             0x00000231   Wk    1  Code  Hi 
    599  am_uart1_isr               0x00000231   Wk    1  Code  Hi 
    600  am_uart2_isr               0x00000231   Wk    1  Code  Hi 
    601  am_uart3_isr               0x00000231   Wk    1  Code  Hi 
    602  am_uart_isr                0x00000231   Wk    1  Code  Hi 
    603  am_usb_isr                 0x00000231   Wk    1  Code  Hi 
    604  am_vcomp_isr               0x00000231   Wk    1  Code  Hi 
    605  am_watchdog_isr            0x00000231   Wk    1  Code  Hi 
    606  __main                     0x00000239   Gb    1  Code  Hi   0x8
    607  __scatterload              0x00000241   Gb    1  Code  Hi 
    608  __scatterload_rt2          0x00000241   Gb    1  Code  Hi   0x2c
    609  __scatterload_rt2_thumb_only
                                    0x00000241   Gb    1  Code  Hi 
    610  __scatterload_null         0x0000024f   Gb    1  Code  Hi 
    611  __decompress               0x00000275   Gb    1  Code  Hi   0x5a
    612  __decompress1              0x00000275   Gb    1  Code  Hi 
    613  __scatterload_copy         0x000002d1   Gb    1  Code  Hi   0x1a
    614  __scatterload_zeroinit     0x000002ed   Gb    1  Code  Hi   0x1c
    615  __rt_lib_init              0x00000309   Gb    1  Code  De 
    616  __rt_lib_init_fp_1         0x0000030b   Gb    1  Code  Hi 
    617  __rt_lib_init_alloca_1     0x0000030f   Gb    1  Code  Hi 
    618  __rt_lib_init_argv_1       0x0000030f   Gb    1  Code  Hi 
    619  __rt_lib_init_atexit_1     0x0000030f   Gb    1  Code  Hi 
    620  __rt_lib_init_clock_1      0x0000030f   Gb    1  Code  Hi 
    621  __rt_lib_init_cpp_1        0x0000030f   Gb    1  Code  Hi 
    622  __rt_lib_init_exceptions_1 0x0000030f   Gb    1  Code  Hi 
    623  __rt_lib_init_fp_trap_1    0x0000030f   Gb    1  Code  Hi 
    624  __rt_lib_init_getenv_1     0x0000030f   Gb    1  Code  Hi 
    625  __rt_lib_init_heap_1       0x0000030f   Gb    1  Code  Hi 
    626  __rt_lib_init_lc_collate_1 0x0000030f   Gb    1  Code  Hi 
    627  __rt_lib_init_lc_ctype_1   0x0000030f   Gb    1  Code  Hi 
    628  __rt_lib_init_lc_monetary_1
                                    0x0000030f   Gb    1  Code  Hi 
    629  __rt_lib_init_lc_numeric_1 0x0000030f   Gb    1  Code  Hi 
    630  __rt_lib_init_lc_time_1    0x0000030f   Gb    1  Code  Hi 
    631  __rt_lib_init_preinit_1    0x0000030f   Gb    1  Code  Hi 
    632  __rt_lib_init_rand_1       0x0000030f   Gb    1  Code  Hi 
    633  __rt_lib_init_return       0x0000030f   Gb    1  Code  Hi 
    634  __rt_lib_init_signal_1     0x0000030f   Gb    1  Code  Hi 
    635  __rt_lib_init_stdio_1      0x0000030f   Gb    1  Code  Hi 
    636  __rt_lib_init_user_alloc_1 0x0000030f   Gb    1  Code  Hi 
    637  __rt_lib_shutdown          0x00000311   Gb    1  Code  De 
    638  __rt_lib_shutdown_cpp_1    0x00000313   Gb    1  Code  Hi 
    639  __rt_lib_shutdown_fp_trap_1
                                    0x00000313   Gb    1  Code  Hi 
    640  __rt_lib_shutdown_heap_1   0x00000313   Gb    1  Code  Hi 
    641  __rt_lib_shutdown_return   0x00000313   Gb    1  Code  Hi 
    642  __rt_lib_shutdown_signal_1 0x00000313   Gb    1  Code  Hi 
    643  __rt_lib_shutdown_stdio_1  0x00000313   Gb    1  Code  Hi 
    644  __rt_lib_shutdown_user_alloc_1
                                    0x00000313   Gb    1  Code  Hi 
    645  __rt_entry                 0x00000315   Gb    1  Code  Hi 
    646  __rt_entry_presh_1         0x00000315   Gb    1  Code  Hi 
    647  __rt_entry_sh              0x00000315   Gb    1  Code  Hi 
    648  __rt_entry_li              0x0000031b   Gb    1  Code  Hi 
    649  __rt_entry_postsh_1        0x0000031b   Gb    1  Code  Hi 
    650  __rt_entry_main            0x0000031f   Gb    1  Code  Hi 
    651  __rt_entry_postli_1        0x0000031f   Gb    1  Code  Hi 
    652  __rt_exit                  0x00000327   Gb    1  Code  De 
    653  __rt_exit_ls               0x00000329   Gb    1  Code  Hi 
    654  __rt_exit_prels_1          0x00000329   Gb    1  Code  Hi 
    655  __rt_exit_exit             0x0000032d   Gb    1  Code  Hi 
    656  __asm___19_mspi_quad_example_c_ba1d92ee__xip_test_function
                                    0x00000335   Gb    1  Code  Hi   0x42
    657  HardFault_Handler          0x00000379   Gb    1  Code  Hi   0x1a
    658  getStackedReg              0x00000393   Gb    1  Code  Hi   0x8
    659  am_hal_interrupt_master_enable
                                    0x0000039d   Gb    1  Code  Hi   0x8
    660  am_hal_interrupt_master_disable
                                    0x000003a5   Gb    1  Code  Hi   0x8
    661  am_hal_interrupt_master_set
                                    0x000003ad   Gb    1  Code  Hi   0x6
    662  __user_initial_stackheap   0x000003b5   Gb    1  Code  Hi   0xa
    663  __aeabi_memcpy             0x000003cd   Gb    1  Code  Hi 
    664  __rt_memcpy                0x000003cd   Gb    1  Code  De   0x8a
    665  _memcpy_lastbytes          0x00000433   Gb    1  Code  De 
    666  __aeabi_memclr4            0x00000457   Gb    1  Code  Hi 
    667  __aeabi_memclr8            0x00000457   Gb    1  Code  De 
    668  __rt_memclr_w              0x00000457   Gb    1  Code  De   0x4e
    669  _memset_w                  0x0000045b   Gb    1  Code  De 
    670  __use_two_region_memory    0x000004a5   Gb    1  Code  Hi   0x2
    671  __rt_heap_escrow$2region   0x000004a7   Gb    1  Code  De   0x2
    672  __rt_heap_expand$2region   0x000004a9   Gb    1  Code  De   0x2
    673  __aeabi_memcpy4            0x000004ab   Gb    1  Code  De 
    674  __aeabi_memcpy8            0x000004ab   Gb    1  Code  De 
    675  __rt_memcpy_w              0x000004ab   Gb    1  Code  De   0x64
    676  _memcpy_lastbytes_aligned  0x000004f3   Gb    1  Code  De 
    677  __user_setup_stackheap     0x0000050f   Gb    1  Code  De   0x4a
    678  exit                       0x00000559   Gb    1  Code  De   0x12
    679  __user_libspace            0x0000056d   Wk    1  Code  De   0x8
    680  __user_perproc_libspace    0x0000056d   Wk    1  Code  De 
    681  __user_perthread_libspace  0x0000056d   Wk    1  Code  De 
    682  _sys_exit                  0x00000575   Gb    1  Code  De   0x8
    683  __I$use$semihosting        0x00000581   Gb    1  Code  Hi 
    684  __use_no_semihosting_swi   0x00000581   Gb    1  Code  Hi   0x2
    685  __semihosting_library_function
                                    0x00000583   Gb    1  Code  Hi 
    686  am_bsp_itm_printf_enable   0x00000585   Gb    1  Code  Hi   0x28
    687  am_bsp_low_power_init      0x000005bd   Gb    1  Code  Hi   0xe
    688  am_bsp_mspi_pins_enable    0x000005cd   Gb    1  Code  Hi   0x3c2
    689  am_devices_mspi_atxp032_deinit
                                    0x00000bc9   Gb    1  Code  Hi   0x7e
    690  am_devices_mspi_atxp032_disable_scrambling
                                    0x00000c6d   Gb    1  Code  Hi   0x4e
    691  am_devices_mspi_atxp032_disable_xip
                                    0x00000cc1   Gb    1  Code  Hi   0x4e
    692  am_devices_mspi_atxp032_enable_scrambling
                                    0x00000d15   Gb    1  Code  Hi   0x26
    693  am_devices_mspi_atxp032_enable_xip
                                    0x00000d41   Gb    1  Code  Hi   0x52
    694  am_devices_mspi_atxp032_id 0x00000d99   Gb    1  Code  Hi   0x44
    695  am_devices_mspi_atxp032_init
                                    0x00000de1   Gb    1  Code  Hi   0x27a
    696  am_devices_mspi_atxp032_mass_erase
                                    0x00001129   Gb    1  Code  Hi   0xaa
    697  am_devices_mspi_atxp032_read
                                    0x000011d9   Gb    1  Code  Hi   0xa0
    698  am_devices_mspi_atxp032_reset
                                    0x00001281   Gb    1  Code  Hi   0x2e
    699  am_devices_mspi_atxp032_sector_erase
                                    0x000012b1   Gb    1  Code  Hi   0x14c
    700  am_devices_mspi_atxp032_write
                                    0x00001401   Gb    1  Code  Hi   0x18c
    701  am_hal_cmdq_alloc_block    0x00001595   Gb    1  Code  Hi   0xc8
    702  am_hal_cmdq_disable        0x00001661   Gb    1  Code  Hi   0x3c
    703  am_hal_cmdq_enable         0x000016a1   Gb    1  Code  Hi   0x3c
    704  am_hal_cmdq_error_resume   0x000016e1   Gb    1  Code  Hi   0x70
    705  am_hal_cmdq_get_status     0x00001755   Gb    1  Code  Hi   0x9e
    706  am_hal_cmdq_init           0x000017f9   Gb    1  Code  Hi   0xe2
    707  am_hal_cmdq_post_block     0x000018e9   Gb    1  Code  Hi   0x48
    708  am_hal_cmdq_post_loop_block
                                    0x00001935   Gb    1  Code  Hi   0x56
    709  am_hal_cmdq_release_block  0x00001991   Gb    1  Code  Hi   0x32
    710  am_hal_cmdq_reset          0x000019c9   Gb    1  Code  Hi   0x5e
    711  am_hal_cmdq_term           0x00001a2d   Gb    1  Code  Hi   0x84
    712  am_hal_delay_us            0x00001ab5   Gb    1  Code  Hi   0x10
    713  am_hal_delay_us_status_check
                                    0x00001ac9   Gb    1  Code  Hi   0x44
    714  am_hal_fault_capture_enable
                                    0x00001b11   Gb    1  Code  Hi   0x12
    715  am_hal_fault_status_get    0x00001b23   Gb    1  Code  Hi   0x3e
    716  am_hal_gpio_pinconfig      0x00001b61   Gb    1  Code  Hi   0x24
    717  am_hal_itm_enable          0x00001b89   Gb    1  Code  Hi   0x2c
    718  am_hal_itm_print           0x00001bd1   Gb    1  Code  Hi   0x30
    719  am_hal_mcuctrl_info_get    0x00001c01   Gb    1  Code  Hi   0x188
    720  am_hal_mspi_blocking_transfer
                                    0x00001db1   Gb    1  Code  Hi   0x228
    721  am_hal_mspi_configure      0x00001fe9   Gb    1  Code  Hi   0x82
    722  am_hal_mspi_control        0x00002075   Gb    1  Code  Hi   0x97e
    723  am_hal_mspi_deinitialize   0x000029fd   Gb    1  Code  Hi   0x78
    724  am_hal_mspi_device_configure
                                    0x00002a7d   Gb    1  Code  Hi   0x252
    725  am_hal_mspi_disable        0x00002cdd   Gb    1  Code  Hi   0x62
    726  am_hal_mspi_enable         0x00002d49   Gb    1  Code  Hi   0xa6
    727  am_hal_mspi_initialize     0x00002dfd   Gb    1  Code  Hi   0x4e
    728  am_hal_mspi_interrupt_clear
                                    0x00002e55   Gb    1  Code  Hi   0x2e
    729  am_hal_mspi_interrupt_disable
                                    0x00002e89   Gb    1  Code  Hi   0x36
    730  am_hal_mspi_interrupt_enable
                                    0x00002ec5   Gb    1  Code  Hi   0x34
    731  am_hal_mspi_interrupt_service
                                    0x00002efd   Gb    1  Code  Hi   0x282
    732  am_hal_mspi_interrupt_status_get
                                    0x00003189   Gb    1  Code  Hi   0x42
    733  am_hal_mspi_nonblocking_transfer
                                    0x000031d1   Gb    1  Code  Hi   0x15e
    734  am_hal_mspi_power_control  0x00003339   Gb    1  Code  Hi   0x460
    735  am_hal_pwrctrl_low_power_init
                                    0x00003799   Gb    1  Code  Hi   0x1a
    736  am_hal_pwrctrl_periph_disable
                                    0x000037b9   Gb    1  Code  Hi   0x44
    737  am_hal_pwrctrl_periph_enable
                                    0x00003801   Gb    1  Code  Hi   0x46
    738  am_hal_rtc_osc_disable     0x0000384d   Gb    1  Code  Hi   0xe
    739  am_hal_sysctrl_sleep       0x00003861   Gb    1  Code  Hi   0x3e
    740  am_hal_tpiu_enable         0x000038a9   Gb    1  Code  Hi   0x3c
    741  am_mspi2_isr               0x000038f1   Gb    1  Code  Hi   0x24
    742  am_util_delay_ms           0x00003919   Gb    1  Code  Hi   0x12
    743  am_util_delay_us           0x0000392b   Gb    1  Code  Hi   0xc
    744  am_util_faultisr_collect_data
                                    0x00003939   Gb    1  Code  Hi   0x1d4
    745  am_util_stdio_printf       0x00003e19   Gb    1  Code  Hi   0x32
    746  am_util_stdio_printf_init  0x00003e55   Gb    1  Code  Hi   0x6
    747  am_util_stdio_terminal_clear
                                    0x00003e61   Gb    1  Code  Hi   0xa
    748  am_util_stdio_vsprintf     0x00003e81   Gb    1  Code  Hi   0x3a4
    749  build_dma_cmdlist          0x00004235   Gb    1  Code  Hi   0x19c
    750  main                       0x0000467d   Gb    1  Code  Hi   0x264
    751  __aeabi_d2f                0x00005951   Gb    1  Code  Hi 
    752  _d2f                       0x00005951   Gb    1  Code  De   0x62
    753  __fpl_dnaninf              0x000059b3   Gb    1  Code  De   0x9c
    754  _fp_init                   0x00005a4f   Gb    1  Code  De   0xa
    755  __fplib_config_fpu_vfp     0x00005a57   Gb    1  Code  De 
    756  __fplib_config_pureend_doubles
                                    0x00005a57   Gb    1  Code  De 
    757  __fpl_fretinf              0x00005a59   Gb    1  Code  De   0xa
    758  __I$use$fp                 0x00005a62   Gb    1   --   De 
    759  ui32MCUAllowed             0x00005a64   Gb    1  Data  Hi   0x14
    760  ui32DSP0Allowed            0x00005a78   Gb    1  Data  Hi   0x14
    761  ui32DSP1Allowed            0x00005a8c   Gb    1  Data  Hi   0x14
    762  ui32SharedAccess           0x00005aa0   Gb    1  Data  Hi   0x14
    763  sGlobalAccess              0x00005ab4   Gb    1  Data  Hi   0x1c
    764  MSPI_Flash_Config          0x00005ad0   Gb    1  Data  Hi   0x14
    765  g_am_hal_bootrom_helper    0x00005ae8   Gb    1  Data  Hi   0x28
    766  am_hal_pwrctrl_peripheral_control
                                    0x00005cc8   Gb    1  Data  Hi   0x270
    767  g_am_hal_mcuctrl_ssram_size
                                    0x00005f38   Gb    1  Data  Hi   0xc
    768  g_am_hal_mcuctrl_mram_size 0x00005f44   Gb    1  Data  Hi   0x10
    769  Region$$Table$$Base        0x00005f54   Gb    1   --   Hi 
    770  Region$$Table$$Limit       0x00005f84   Gb    1   --   Hi 
    771  mspi2_debug                0x10000000   Gb    2  Data  Hi   0x4
    772  g_FlashHdl                 0x10000004   Gb    2  Data  Hi   0x4
    773  g_MSPIHdl                  0x10000008   Gb    2  Data  Hi   0x4
    774  device_func                0x1000000c   Gb    2  Data  Hi   0x40
    775  g_pfnCharPrint             0x1000004c   Gb    2  Data  Hi   0x4
    776  gXipConfig                 0x10000054   Gb    2  Data  Hi   0x3c
    777  MSPI_ATXP032_Serial_CE0_MSPIConfig
                                    0x10000090   Gb    2  Data  Hi   0x14
    778  MSPI_ATXP032_Serial_CE1_MSPIConfig
                                    0x100000a4   Gb    2  Data  Hi   0x14
    779  MSPI_ATXP032_Quad_CE0_MSPIConfig
                                    0x100000b8   Gb    2  Data  Hi   0x14
    780  MSPI_ATXP032_Quad_CE1_MSPIConfig
                                    0x100000cc   Gb    2  Data  Hi   0x14
    781  MSPI_ATXP032_Octal_CE0_MSPIConfig
                                    0x100000e0   Gb    2  Data  Hi   0x14
    782  MSPI_ATXP032_Octal_CE1_MSPIConfig
                                    0x100000f4   Gb    2  Data  Hi   0x14
    783  g_ATXP032_DevConfig        0x10000108   Gb    2  Data  Hi   0x30
    784  g_ui32HALflags             0x10000138   Gb    2  Data  Hi   0x4
    785  g_AM_BSP_GPIO_MSPI0_CE0    0x10000144   Gb    2  Data  Hi   0x4
    786  g_AM_BSP_GPIO_MSPI0_CE1    0x10000148   Gb    2  Data  Hi   0x4
    787  g_AM_BSP_GPIO_MSPI0_D0     0x1000014c   Gb    2  Data  Hi   0x4
    788  g_AM_BSP_GPIO_MSPI0_D1     0x10000150   Gb    2  Data  Hi   0x4
    789  g_AM_BSP_GPIO_MSPI0_D2     0x10000154   Gb    2  Data  Hi   0x4
    790  g_AM_BSP_GPIO_MSPI0_D3     0x10000158   Gb    2  Data  Hi   0x4
    791  g_AM_BSP_GPIO_MSPI0_D4     0x1000015c   Gb    2  Data  Hi   0x4
    792  g_AM_BSP_GPIO_MSPI0_D5     0x10000160   Gb    2  Data  Hi   0x4
    793  g_AM_BSP_GPIO_MSPI0_D6     0x10000164   Gb    2  Data  Hi   0x4
    794  g_AM_BSP_GPIO_MSPI0_D7     0x10000168   Gb    2  Data  Hi   0x4
    795  g_AM_BSP_GPIO_MSPI0_SCK    0x1000016c   Gb    2  Data  Hi   0x4
    796  g_AM_BSP_GPIO_MSPI2_CE0    0x10000170   Gb    2  Data  Hi   0x4
    797  g_AM_BSP_GPIO_MSPI2_CE1    0x10000174   Gb    2  Data  Hi   0x4
    798  g_AM_BSP_GPIO_MSPI2_D0     0x10000178   Gb    2  Data  Hi   0x4
    799  g_AM_BSP_GPIO_MSPI2_D1     0x1000017c   Gb    2  Data  Hi   0x4
    800  g_AM_BSP_GPIO_MSPI2_D2     0x10000180   Gb    2  Data  Hi   0x4
    801  g_AM_BSP_GPIO_MSPI2_D3     0x10000184   Gb    2  Data  Hi   0x4
    802  g_AM_BSP_GPIO_MSPI2_D4     0x10000188   Gb    2  Data  Hi   0x4
    803  g_AM_BSP_GPIO_MSPI2_D5     0x1000018c   Gb    2  Data  Hi   0x4
    804  g_AM_BSP_GPIO_MSPI2_D6     0x10000190   Gb    2  Data  Hi   0x4
    805  g_AM_BSP_GPIO_MSPI2_D7     0x10000194   Gb    2  Data  Hi   0x4
    806  g_AM_BSP_GPIO_MSPI2_SCK    0x10000198   Gb    2  Data  Hi   0x4
    807  g_AM_BSP_GPIO_ITM_SWO      0x1000019c   Gb    2  Data  Hi   0x4
    808  DMATCBBuffer               0x100001a0   Gb    3  Data  Hi   0x2800
    809  TestBuffer                 0x100029a0   Gb    3  Data  Hi   0x800
    810  DummyBuffer                0x100031a0   Gb    3  Data  Hi   0x400
    811  g_SectorTXBuffer           0x100035a0   Gb    3  Data  Hi   0x1000
    812  g_SectorRXBuffer           0x100045a0   Gb    3  Data  Hi   0x1000
    813  gMspiCfg                   0x100056a0   Gb    3  Data  Hi   0xc
    814  gAmAtxp032                 0x100056ac   Gb    3  Data  Hi   0x20
    815  g_MSPIState                0x100056cc   Gb    3  Data  Hi   0x1a58
    816  __libspace_start           0x10007308   Gb    3  Data  De   0x60
    817  __temporary_stack_top$libspace
                                    0x10007368   Gb    3  Data  De 
    818  psGlobalAccessPtr          0x10060000   Gb    4  Data  Hi   0x4
    819  ui32MCUClaimed             0x10060004   Gb    4  Data  Hi   0x14
    820  ui32DSP0Claimed            0x10060018   Gb    4  Data  Hi   0x14
    821  ui32DSP1Claimed            0x1006002c   Gb    4  Data  Hi   0x14


** Section #13 '.strtab' (SHT_STRTAB)
    Size   : 13176 bytes

            #  Offset String
        ====================================

            1      1: $d
            2      4: $t
            3      7: $d.realdata
            4     19: ..\src\am_resources.c
            5     41: ../src/am_resources.c
            6     63: .constdata
            7     74: __tagsym$$used
            8     89: RESOURCE_TABLE
            9    104: SHARED_RW
           10    114: ..\src\mspi_quad_example.c
           11    141: .emb_text
           12    151: $v0
           13    155: ../src/mspi_quad_example.c
           14    182: i.am_mspi2_isr
           15    197: i.main
           16    204: .bss
           17    209: mspi_interrupts
           18    225: .data
           19    231: ..\..\..\..\..\..\utils\am_util_delay.c
           20    271: ../../../../../../utils/am_util_delay.c
           21    311: i.am_util_delay_ms
           22    330: i.am_util_delay_us
           23    349: ..\..\..\..\..\..\utils\am_util_faultisr.c
           24    392: ../../../../../../utils/am_util_faultisr.c
           25    435: i.am_util_faultisr_collect_data
           26    467: ../../../../../../utils/am_util_stdio.c
           27    507: i.am_util_stdio_printf
           28    530: i.am_util_stdio_printf_init
           29    558: i.am_util_stdio_terminal_clear
           30    589: i.am_util_stdio_vsprintf
           31    614: i.decstr_to_int
           32    630: decstr_to_int
           33    644: i.divu64_10
           34    656: divu64_10
           35    666: i.ftoa
           36    673: ftoa
           37    678: i.ndigits_in_hex
           38    695: ndigits_in_hex
           39    710: i.ndigits_in_i64
           40    727: ndigits_in_i64
           41    742: i.ndigits_in_u64
           42    759: ndigits_in_u64
           43    774: i.padbuffer
           44    786: padbuffer
           45    796: i.simple_strlen
           46    812: simple_strlen
           47    826: i.uint64_to_hexstr
           48    845: uint64_to_hexstr
           49    862: i.uint64_to_str
           50    878: uint64_to_str
           51    892: g_prfbuf
           52    901: g_bTxtXlate
           53    913: ..\..\..\..\..\..\devices\am_devices_mspi_atxp032.c
           54    965: ../../../../../../devices/am_devices_mspi_atxp032.c
           55   1017: i.am_device_deinit_flash
           56   1042: am_device_deinit_flash
           57   1065: i.am_device_init_flash
           58   1088: am_device_init_flash
           59   1109: i.am_devices_mspi_atxp032_command_read
           60   1148: am_devices_mspi_atxp032_command_read
           61   1185: i.am_devices_mspi_atxp032_command_write
           62   1225: am_devices_mspi_atxp032_command_write
           63   1263: i.am_devices_mspi_atxp032_deinit
           64   1296: i.am_devices_mspi_atxp032_disable_scrambling
           65   1341: i.am_devices_mspi_atxp032_disable_xip
           66   1379: i.am_devices_mspi_atxp032_enable_scrambling
           67   1423: i.am_devices_mspi_atxp032_enable_xip
           68   1460: i.am_devices_mspi_atxp032_id
           69   1489: i.am_devices_mspi_atxp032_init
           70   1520: i.am_devices_mspi_atxp032_mass_erase
           71   1557: i.am_devices_mspi_atxp032_read
           72   1588: i.am_devices_mspi_atxp032_reset
           73   1620: i.am_devices_mspi_atxp032_sector_erase
           74   1659: i.am_devices_mspi_atxp032_write
           75   1691: i.pfnMSPI_ATXP032_Callback
           76   1718: pfnMSPI_ATXP032_Callback
           77   1743: ../keil/startup_keil.s
           78   1766: STACK
           79   1772: StackMem
           80   1781: HEAP
           81   1786: HeapMem
           82   1794: RESET
           83   1800: am_cryptosec_isr
           84   1817: am_default_isr
           85   1832: .text
           86   1838: ..\..\..\..\..\mcu\apollo4\hal\am_hal_global.c
           87   1885: ../../../../../mcu/apollo4/hal/am_hal_global.c
           88   1932: ..\..\..\..\..\mcu\apollo4\hal\mcu\am_hal_fault.c
           89   1982: ../../../../../mcu/apollo4/hal/mcu/am_hal_fault.c
           90   2032: i.am_hal_fault_capture_enable
           91   2062: i.am_hal_fault_status_get
           92   2088: ..\..\..\..\..\mcu\apollo4\hal\mcu\am_hal_interrupt.c
           93   2142: ../../../../../mcu/apollo4/hal/mcu/am_hal_interrupt.c
           94   2196: ..\..\..\..\..\mcu\apollo4\hal\mcu\am_hal_mspi.c
           95   2245: ../../../../../mcu/apollo4/hal/mcu/am_hal_mspi.c
           96   2294: i.am_hal_mspi_blocking_transfer
           97   2326: i.am_hal_mspi_configure
           98   2350: i.am_hal_mspi_control
           99   2372: i.am_hal_mspi_deinitialize
          100   2399: i.am_hal_mspi_device_configure
          101   2430: i.am_hal_mspi_disable
          102   2452: i.am_hal_mspi_enable
          103   2473: i.am_hal_mspi_initialize
          104   2498: i.am_hal_mspi_interrupt_clear
          105   2528: i.am_hal_mspi_interrupt_disable
          106   2560: i.am_hal_mspi_interrupt_enable
          107   2591: i.am_hal_mspi_interrupt_service
          108   2623: i.am_hal_mspi_interrupt_status_get
          109   2658: i.am_hal_mspi_nonblocking_transfer
          110   2693: i.am_hal_mspi_power_control
          111   2721: i.build_dma_cmdlist
          112   2741: i.mspi_device_configure
          113   2765: mspi_device_configure
          114   2787: i.mspi_dummy_callback
          115   2809: mspi_dummy_callback
          116   2829: i.mspi_seq_loopback
          117   2849: mspi_seq_loopback
          118   2867: i.sched_hiprio
          119   2882: sched_hiprio
          120   2895: ..\..\..\..\..\mcu\apollo4\hal\mcu\am_hal_sysctrl.c
          121   2947: ../../../../../mcu/apollo4/hal/mcu/am_hal_sysctrl.c
          122   2999: i.am_hal_sysctrl_sleep
          123   3022: ..\..\..\..\..\mcu\apollo4\hal\mcu\am_hal_utils.c
          124   3072: ../../../../../mcu/apollo4/hal/mcu/am_hal_utils.c
          125   3122: i.am_hal_delay_us
          126   3140: i.am_hal_delay_us_status_check
          127   3171: ..\am_bsp.c
          128   3183: ../am_bsp.c
          129   3195: i.am_bsp_itm_printf_enable
          130   3222: i.am_bsp_low_power_init
          131   3246: i.am_bsp_mspi_pins_enable
          132   3272: g_ePrintInterface
          133   3290: g_sCOMUART
          134   3301: ..\..\..\..\..\mcu\apollo4\hal\mcu\am_hal_bootrom_helper.c
          135   3360: ../../../../../mcu/apollo4/hal/mcu/am_hal_bootrom_helper.c
          136   3419: ..\..\..\..\..\mcu\apollo4\hal\mcu\am_hal_cmdq.c
          137   3468: ../../../../../mcu/apollo4/hal/mcu/am_hal_cmdq.c
          138   3517: i.am_hal_cmdq_alloc_block
          139   3543: i.am_hal_cmdq_disable
          140   3565: i.am_hal_cmdq_enable
          141   3586: i.am_hal_cmdq_error_resume
          142   3613: i.am_hal_cmdq_get_status
          143   3638: i.am_hal_cmdq_init
          144   3657: i.am_hal_cmdq_post_block
          145   3682: i.am_hal_cmdq_post_loop_block
          146   3712: i.am_hal_cmdq_release_block
          147   3740: i.am_hal_cmdq_reset
          148   3760: i.am_hal_cmdq_term
          149   3779: gAmHalCmdq
          150   3790: gAmHalCmdQReg
          151   3804: ..\..\..\..\..\mcu\apollo4\hal\mcu\am_hal_itm.c
          152   3852: ../../../../../mcu/apollo4/hal/mcu/am_hal_itm.c
          153   3900: i.am_hal_itm_enable
          154   3920: i.am_hal_itm_print
          155   3939: ..\..\..\..\..\mcu\apollo4\hal\mcu\am_hal_rtc.c
          156   3987: ../../../../../mcu/apollo4/hal/mcu/am_hal_rtc.c
          157   4035: i.am_hal_rtc_osc_disable
          158   4060: ..\..\..\..\..\mcu\apollo4\hal\mcu\am_hal_tpiu.c
          159   4109: ../../../../../mcu/apollo4/hal/mcu/am_hal_tpiu.c
          160   4158: i.am_hal_tpiu_enable
          161   4179: ..\..\..\..\..\mcu\apollo4\hal\mcu\am_hal_uart.c
          162   4228: ../../../../../mcu/apollo4/hal/mcu/am_hal_uart.c
          163   4277: ..\..\..\..\..\mcu\apollo4\hal\am_hal_gpio.c
          164   4322: ../../../../../mcu/apollo4/hal/am_hal_gpio.c
          165   4367: i.am_hal_gpio_pinconfig
          166   4391: ..\..\..\..\..\mcu\apollo4\hal\am_hal_pwrctrl.c
          167   4439: ../../../../../mcu/apollo4/hal/am_hal_pwrctrl.c
          168   4487: i.am_hal_pwrctrl_low_power_init
          169   4519: i.am_hal_pwrctrl_periph_disable
          170   4551: i.am_hal_pwrctrl_periph_enable
          171   4582: ..\am_bsp_pins.c
          172   4599: ../am_bsp_pins.c
          173   4616: ..\..\..\..\..\mcu\apollo4\hal\mcu\am_hal_mcuctrl.c
          174   4668: ../../../../../mcu/apollo4/hal/mcu/am_hal_mcuctrl.c
          175   4720: i.am_hal_mcuctrl_info_get
          176   4746: ..\..\..\..\..\mcu\apollo4\hal\am_hal_pin.c
          177   4790: ../../../../../mcu/apollo4/hal/am_hal_pin.c
          178   4834: ..\..\..\..\..\mcu\apollo4\hal\am_hal_queue.c
          179   4880: ../../../../../mcu/apollo4/hal/am_hal_queue.c
          180   4926: dc.s
          181   4931: ../clib/memcpset.s
          182   4950: ../clib/heapaux.c
          183   4968: ../clib/angel/startup.s
          184   4992: !!!main
          185   5000: ../clib/angel/handlers.s
          186   5025: !!handler_copy
          187   5040: ../fplib/d2f.s
          188   5055: x$fpl$d2f
          189   5065: ../clib/angel/kernel.s
          190   5088: .ARM.Collect$$rtentry$$00000000
          191   5120: ../fplib/dnaninf.s
          192   5139: x$fpl$dnaninf
          193   5153: ../fplib/fretinf.s
          194   5172: x$fpl$fretinf
          195   5186: ../fplib/usenofp.s
          196   5205: x$fpl$usenofp
          197   5219: .ARM.Collect$$rtentry$$00000002
          198   5251: .ARM.Collect$$rtentry$$00000009
          199   5283: .ARM.Collect$$rtentry$$0000000A
          200   5315: .ARM.Collect$$rtentry$$0000000C
          201   5347: .ARM.Collect$$rtentry$$0000000D
          202   5379: .ARM.Collect$$rtentry$$00000004
          203   5411: ../clib/angel/sys.s
          204   5431: ../clib/stdlib.c
          205   5448: ../clib/angel/boardlib.s
          206   5473: ../clib/libinit.s
          207   5491: .ARM.Collect$$libinit$$00000000
          208   5523: .ARM.Collect$$rtexit$$00000000
          209   5554: .ARM.Collect$$libinit$$00000001
          210   5586: .ARM.Collect$$libinit$$00000004
          211   5618: .ARM.Collect$$libinit$$0000000A
          212   5650: .ARM.Collect$$libinit$$0000000C
          213   5682: .ARM.Collect$$libinit$$0000000E
          214   5714: .ARM.Collect$$libinit$$00000011
          215   5746: .ARM.Collect$$libinit$$00000013
          216   5778: .ARM.Collect$$libinit$$00000015
          217   5810: .ARM.Collect$$libinit$$00000017
          218   5842: .ARM.Collect$$libinit$$00000019
          219   5874: .ARM.Collect$$libinit$$0000001B
          220   5906: .ARM.Collect$$libinit$$0000001D
          221   5938: .ARM.Collect$$libinit$$0000001F
          222   5970: .ARM.Collect$$libinit$$00000021
          223   6002: .ARM.Collect$$libinit$$00000023
          224   6034: .ARM.Collect$$libinit$$00000025
          225   6066: .ARM.Collect$$libinit$$0000002C
          226   6098: .ARM.Collect$$libinit$$0000002E
          227   6130: .ARM.Collect$$libinit$$00000030
          228   6162: .ARM.Collect$$libinit$$00000032
          229   6194: .ARM.Collect$$libinit$$00000033
          230   6226: .ARM.Collect$$rtexit$$00000002
          231   6257: .ARM.Collect$$rtexit$$00000003
          232   6288: .ARM.Collect$$rtexit$$00000004
          233   6319: ../clib/armsys.c
          234   6336: ../fplib/fpinit.s
          235   6354: x$fpl$fpinit
          236   6367: ../clib/angel/sysapp.c
          237   6390: .ARM.Collect$$libshutdown$$00000000
          238   6426: ../clib/heapalloc.c
          239   6446: ../clib/signal.c
          240   6463: .ARM.Collect$$libshutdown$$00000002
          241   6499: .ARM.Collect$$libshutdown$$00000004
          242   6535: .ARM.Collect$$libshutdown$$00000007
          243   6571: .ARM.Collect$$libshutdown$$0000000A
          244   6607: .ARM.Collect$$libshutdown$$0000000C
          245   6643: .ARM.Collect$$libshutdown$$0000000F
          246   6679: .ARM.Collect$$libshutdown$$00000010
          247   6715: ../clib/angel/rt.s
          248   6734: ../clib/signal.s
          249   6751: ../clib/angel/dczerorl2.s
          250   6777: !!dczerorl2
          251   6789: ../clib/angel/scatter.s
          252   6813: !!!scatter
          253   6824: !!handler_zi
          254   6837: BuildAttributes$$THM_ISAv4$E$P$D$K$B$S$7EM$VFPi3$EXTD16$VFPS$VFMA$PE$A:L22UL41UL21$X:L11$S22US41US21$IEEE1$IW$USESV6$~STKCKD$USESV7$~SHL$OTIME$ROPI$EBA8$UX$STANDARDLIB$REQ8$PRES8$EABIv2
          255   7023: __ARM_use_no_argv
          256   7041: __Vectors
          257   7051: __Patchable
          258   7063: Reset_Handler
          259   7077: NMI_Handler
          260   7089: MemManage_Handler
          261   7107: BusFault_Handler
          262   7124: UsageFault_Handler
          263   7143: SecureFault_Handler
          264   7163: SVC_Handler
          265   7175: DebugMon_Handler
          266   7192: PendSV_Handler
          267   7207: SysTick_Handler
          268   7223: am_adc_isr
          269   7234: am_audadc0_isr
          270   7249: am_brownout_isr
          271   7265: am_cachecpu_isr
          272   7281: am_clkgen_isr
          273   7295: am_cpucpumb_isr
          274   7311: am_ctimer_isr
          275   7325: am_disp_isr
          276   7337: am_dsi_isr
          277   7348: am_dsp0cpumb_isr
          278   7365: am_dsp0idamtrigout_isr
          279   7388: am_dsp1cpumb_isr
          280   7405: am_dsp1idamtrigout_isr
          281   7428: am_dspi2s0_isr
          282   7443: am_dspi2s1_isr
          283   7458: am_dspi2s2_isr
          284   7473: am_dspi2s3_isr
          285   7488: am_gpio0_001f_isr
          286   7506: am_gpio0_203f_isr
          287   7524: am_gpio0_405f_isr
          288   7542: am_gpio0_607f_isr
          289   7560: am_gpio1_001f_isr
          290   7578: am_gpio1_203f_isr
          291   7596: am_gpio1_405f_isr
          292   7614: am_gpio1_607f_isr
          293   7632: am_gpu_isr
          294   7643: am_iomaster0_isr
          295   7660: am_iomaster1_isr
          296   7677: am_iomaster2_isr
          297   7694: am_iomaster3_isr
          298   7711: am_iomaster4_isr
          299   7728: am_iomaster5_isr
          300   7745: am_iomaster6_isr
          301   7762: am_iomaster7_isr
          302   7779: am_ioslave_acc_isr
          303   7798: am_ioslave_ios_isr
          304   7817: am_memcpy0_isr
          305   7832: am_mspi0_isr
          306   7845: am_mspi1_isr
          307   7858: am_pdm0_isr
          308   7870: am_pdm1_isr
          309   7882: am_pdm2_isr
          310   7894: am_pdm3_isr
          311   7906: am_rtc_isr
          312   7917: am_sdio_isr
          313   7929: am_stimer_cmpr0_isr
          314   7949: am_stimer_cmpr1_isr
          315   7969: am_stimer_cmpr2_isr
          316   7989: am_stimer_cmpr3_isr
          317   8009: am_stimer_cmpr4_isr
          318   8029: am_stimer_cmpr5_isr
          319   8049: am_stimer_cmpr6_isr
          320   8069: am_stimer_cmpr7_isr
          321   8089: am_stimerof_isr
          322   8105: am_timer00_isr
          323   8120: am_timer01_isr
          324   8135: am_timer02_isr
          325   8150: am_timer03_isr
          326   8165: am_timer04_isr
          327   8180: am_timer05_isr
          328   8195: am_timer06_isr
          329   8210: am_timer07_isr
          330   8225: am_timer08_isr
          331   8240: am_timer09_isr
          332   8255: am_timer10_isr
          333   8270: am_timer11_isr
          334   8285: am_timer12_isr
          335   8300: am_timer13_isr
          336   8315: am_timer14_isr
          337   8330: am_timer15_isr
          338   8345: am_uart1_isr
          339   8358: am_uart2_isr
          340   8371: am_uart3_isr
          341   8384: am_uart_isr
          342   8396: am_usb_isr
          343   8407: am_vcomp_isr
          344   8420: am_watchdog_isr
          345   8436: __main
          346   8443: __scatterload
          347   8457: __scatterload_rt2
          348   8475: __scatterload_rt2_thumb_only
          349   8504: __scatterload_null
          350   8523: __decompress
          351   8536: __decompress1
          352   8550: __scatterload_copy
          353   8569: __scatterload_zeroinit
          354   8592: __rt_lib_init
          355   8606: __rt_lib_init_fp_1
          356   8625: __rt_lib_init_alloca_1
          357   8648: __rt_lib_init_argv_1
          358   8669: __rt_lib_init_atexit_1
          359   8692: __rt_lib_init_clock_1
          360   8714: __rt_lib_init_cpp_1
          361   8734: __rt_lib_init_exceptions_1
          362   8761: __rt_lib_init_fp_trap_1
          363   8785: __rt_lib_init_getenv_1
          364   8808: __rt_lib_init_heap_1
          365   8829: __rt_lib_init_lc_collate_1
          366   8856: __rt_lib_init_lc_ctype_1
          367   8881: __rt_lib_init_lc_monetary_1
          368   8909: __rt_lib_init_lc_numeric_1
          369   8936: __rt_lib_init_lc_time_1
          370   8960: __rt_lib_init_preinit_1
          371   8984: __rt_lib_init_rand_1
          372   9005: __rt_lib_init_return
          373   9026: __rt_lib_init_signal_1
          374   9049: __rt_lib_init_stdio_1
          375   9071: __rt_lib_init_user_alloc_1
          376   9098: __rt_lib_shutdown
          377   9116: __rt_lib_shutdown_cpp_1
          378   9140: __rt_lib_shutdown_fp_trap_1
          379   9168: __rt_lib_shutdown_heap_1
          380   9193: __rt_lib_shutdown_return
          381   9218: __rt_lib_shutdown_signal_1
          382   9245: __rt_lib_shutdown_stdio_1
          383   9271: __rt_lib_shutdown_user_alloc_1
          384   9302: __rt_entry
          385   9313: __rt_entry_presh_1
          386   9332: __rt_entry_sh
          387   9346: __rt_entry_li
          388   9360: __rt_entry_postsh_1
          389   9380: __rt_entry_main
          390   9396: __rt_entry_postli_1
          391   9416: __rt_exit
          392   9426: __rt_exit_ls
          393   9439: __rt_exit_prels_1
          394   9457: __rt_exit_exit
          395   9472: __asm___19_mspi_quad_example_c_ba1d92ee__xip_test_function
          396   9531: HardFault_Handler
          397   9549: getStackedReg
          398   9563: am_hal_interrupt_master_enable
          399   9594: am_hal_interrupt_master_disable
          400   9626: am_hal_interrupt_master_set
          401   9654: __user_initial_stackheap
          402   9679: __aeabi_memcpy
          403   9694: __rt_memcpy
          404   9706: _memcpy_lastbytes
          405   9724: __aeabi_memclr4
          406   9740: __aeabi_memclr8
          407   9756: __rt_memclr_w
          408   9770: _memset_w
          409   9780: __use_two_region_memory
          410   9804: __rt_heap_escrow$2region
          411   9829: __rt_heap_expand$2region
          412   9854: __aeabi_memcpy4
          413   9870: __aeabi_memcpy8
          414   9886: __rt_memcpy_w
          415   9900: _memcpy_lastbytes_aligned
          416   9926: __user_setup_stackheap
          417   9949: exit
          418   9954: __user_libspace
          419   9970: __user_perproc_libspace
          420   9994: __user_perthread_libspace
          421  10020: _sys_exit
          422  10030: __I$use$semihosting
          423  10050: __use_no_semihosting_swi
          424  10075: __semihosting_library_function
          425  10106: am_bsp_itm_printf_enable
          426  10131: am_bsp_low_power_init
          427  10153: am_bsp_mspi_pins_enable
          428  10177: am_devices_mspi_atxp032_deinit
          429  10208: am_devices_mspi_atxp032_disable_scrambling
          430  10251: am_devices_mspi_atxp032_disable_xip
          431  10287: am_devices_mspi_atxp032_enable_scrambling
          432  10329: am_devices_mspi_atxp032_enable_xip
          433  10364: am_devices_mspi_atxp032_id
          434  10391: am_devices_mspi_atxp032_init
          435  10420: am_devices_mspi_atxp032_mass_erase
          436  10455: am_devices_mspi_atxp032_read
          437  10484: am_devices_mspi_atxp032_reset
          438  10514: am_devices_mspi_atxp032_sector_erase
          439  10551: am_devices_mspi_atxp032_write
          440  10581: am_hal_cmdq_alloc_block
          441  10605: am_hal_cmdq_disable
          442  10625: am_hal_cmdq_enable
          443  10644: am_hal_cmdq_error_resume
          444  10669: am_hal_cmdq_get_status
          445  10692: am_hal_cmdq_init
          446  10709: am_hal_cmdq_post_block
          447  10732: am_hal_cmdq_post_loop_block
          448  10760: am_hal_cmdq_release_block
          449  10786: am_hal_cmdq_reset
          450  10804: am_hal_cmdq_term
          451  10821: am_hal_delay_us
          452  10837: am_hal_delay_us_status_check
          453  10866: am_hal_fault_capture_enable
          454  10894: am_hal_fault_status_get
          455  10918: am_hal_gpio_pinconfig
          456  10940: am_hal_itm_enable
          457  10958: am_hal_itm_print
          458  10975: am_hal_mcuctrl_info_get
          459  10999: am_hal_mspi_blocking_transfer
          460  11029: am_hal_mspi_configure
          461  11051: am_hal_mspi_control
          462  11071: am_hal_mspi_deinitialize
          463  11096: am_hal_mspi_device_configure
          464  11125: am_hal_mspi_disable
          465  11145: am_hal_mspi_enable
          466  11164: am_hal_mspi_initialize
          467  11187: am_hal_mspi_interrupt_clear
          468  11215: am_hal_mspi_interrupt_disable
          469  11245: am_hal_mspi_interrupt_enable
          470  11274: am_hal_mspi_interrupt_service
          471  11304: am_hal_mspi_interrupt_status_get
          472  11337: am_hal_mspi_nonblocking_transfer
          473  11370: am_hal_mspi_power_control
          474  11396: am_hal_pwrctrl_low_power_init
          475  11426: am_hal_pwrctrl_periph_disable
          476  11456: am_hal_pwrctrl_periph_enable
          477  11485: am_hal_rtc_osc_disable
          478  11508: am_hal_sysctrl_sleep
          479  11529: am_hal_tpiu_enable
          480  11548: am_mspi2_isr
          481  11561: am_util_delay_ms
          482  11578: am_util_delay_us
          483  11595: am_util_faultisr_collect_data
          484  11625: am_util_stdio_printf
          485  11646: am_util_stdio_printf_init
          486  11672: am_util_stdio_terminal_clear
          487  11701: am_util_stdio_vsprintf
          488  11724: build_dma_cmdlist
          489  11742: main
          490  11747: __aeabi_d2f
          491  11759: _d2f
          492  11764: __fpl_dnaninf
          493  11778: _fp_init
          494  11787: __fplib_config_fpu_vfp
          495  11810: __fplib_config_pureend_doubles
          496  11841: __fpl_fretinf
          497  11855: __I$use$fp
          498  11866: ui32MCUAllowed
          499  11881: ui32DSP0Allowed
          500  11897: ui32DSP1Allowed
          501  11913: ui32SharedAccess
          502  11930: sGlobalAccess
          503  11944: MSPI_Flash_Config
          504  11962: g_am_hal_bootrom_helper
          505  11986: am_hal_pwrctrl_peripheral_control
          506  12020: g_am_hal_mcuctrl_ssram_size
          507  12048: g_am_hal_mcuctrl_mram_size
          508  12075: Region$$Table$$Base
          509  12095: Region$$Table$$Limit
          510  12116: mspi2_debug
          511  12128: g_FlashHdl
          512  12139: g_MSPIHdl
          513  12149: device_func
          514  12161: g_pfnCharPrint
          515  12176: gXipConfig
          516  12187: MSPI_ATXP032_Serial_CE0_MSPIConfig
          517  12222: MSPI_ATXP032_Serial_CE1_MSPIConfig
          518  12257: MSPI_ATXP032_Quad_CE0_MSPIConfig
          519  12290: MSPI_ATXP032_Quad_CE1_MSPIConfig
          520  12323: MSPI_ATXP032_Octal_CE0_MSPIConfig
          521  12357: MSPI_ATXP032_Octal_CE1_MSPIConfig
          522  12391: g_ATXP032_DevConfig
          523  12411: g_ui32HALflags
          524  12426: g_AM_BSP_GPIO_MSPI0_CE0
          525  12450: g_AM_BSP_GPIO_MSPI0_CE1
          526  12474: g_AM_BSP_GPIO_MSPI0_D0
          527  12497: g_AM_BSP_GPIO_MSPI0_D1
          528  12520: g_AM_BSP_GPIO_MSPI0_D2
          529  12543: g_AM_BSP_GPIO_MSPI0_D3
          530  12566: g_AM_BSP_GPIO_MSPI0_D4
          531  12589: g_AM_BSP_GPIO_MSPI0_D5
          532  12612: g_AM_BSP_GPIO_MSPI0_D6
          533  12635: g_AM_BSP_GPIO_MSPI0_D7
          534  12658: g_AM_BSP_GPIO_MSPI0_SCK
          535  12682: g_AM_BSP_GPIO_MSPI2_CE0
          536  12706: g_AM_BSP_GPIO_MSPI2_CE1
          537  12730: g_AM_BSP_GPIO_MSPI2_D0
          538  12753: g_AM_BSP_GPIO_MSPI2_D1
          539  12776: g_AM_BSP_GPIO_MSPI2_D2
          540  12799: g_AM_BSP_GPIO_MSPI2_D3
          541  12822: g_AM_BSP_GPIO_MSPI2_D4
          542  12845: g_AM_BSP_GPIO_MSPI2_D5
          543  12868: g_AM_BSP_GPIO_MSPI2_D6
          544  12891: g_AM_BSP_GPIO_MSPI2_D7
          545  12914: g_AM_BSP_GPIO_MSPI2_SCK
          546  12938: g_AM_BSP_GPIO_ITM_SWO
          547  12960: DMATCBBuffer
          548  12973: TestBuffer
          549  12984: DummyBuffer
          550  12996: g_SectorTXBuffer
          551  13013: g_SectorRXBuffer
          552  13030: gMspiCfg
          553  13039: gAmAtxp032
          554  13050: g_MSPIState
          555  13062: __libspace_start
          556  13079: __temporary_stack_top$libspace
          557  13110: psGlobalAccessPtr
          558  13128: ui32MCUClaimed
          559  13143: ui32DSP0Claimed
          560  13159: ui32DSP1Claimed
          561  13175: 


** Section #14 '.note' (SHT_NOTE)
    Size   : 32 bytes (alignment 4)


** Section #15 '.comment' (SHT_PROGBITS)
    Size   : 31196 bytes


** Section #16 '.shstrtab' (SHT_STRTAB)
    Size   : 176 bytes

            #  Offset String
        ====================================

            1      1: MCU_MRAM
            2     10: MCU_TCM
            3     18: MCU_SRAM
            4     27: SHARED_SRAM
            5     39: .debug_abbrev
            6     53: .debug_frame
            7     66: .debug_info
            8     78: .debug_line
            9     90: .debug_loc
           10    101: .debug_macinfo
           11    116: .debug_pubnames
           12    132: .symtab
           13    140: .strtab
           14    148: .note
           15    154: .comment
           16    163: .shstrtab
           17    173: 
           18    174: 
           19    175: 


